

Microchip MPLAB XC8 Assembler V2.36 build 20220127204148 
                                                                                               Wed Jun 22 11:43:10 2022

Microchip MPLAB XC8 C Compiler v2.36 (Free license) build 20220127204148 Og1 
     1                           	processor	18F4550
     2                           	fnconf	rparam,??,?,0
     3                           	pagewidth 120
     4                           	opt	flic
     5                           	psect	idataCOMRAM,global,class=CODE,delta=1,noexec
     6                           	psect	idataBANK0,global,class=CODE,delta=1,noexec
     7                           	psect	cinit,global,reloc=2,class=CODE,delta=1
     8                           	psect	bssCOMRAM,global,class=COMRAM,space=1,delta=1,lowdata,noexec
     9                           	psect	dataCOMRAM,global,class=COMRAM,space=1,delta=1,lowdata,noexec
    10                           	psect	bssBANK0,global,class=BANK0,space=1,delta=1,lowdata,noexec
    11                           	psect	dataBANK0,global,class=BANK0,space=1,delta=1,lowdata,noexec
    12                           	psect	cstackBANK0,global,class=BANK0,space=1,delta=1,lowdata,noexec
    13                           	psect	cstackCOMRAM,global,class=COMRAM,space=1,delta=1,lowdata,noexec
    14                           	psect	text0,global,reloc=2,class=CODE,delta=1
    15                           	psect	text1,global,reloc=2,class=CODE,delta=1
    16                           	psect	text2,global,reloc=2,class=CODE,delta=1
    17                           	psect	text3,global,reloc=2,class=CODE,delta=1,group=1
    18                           	psect	text4,global,reloc=2,class=CODE,delta=1
    19                           	psect	text5,global,reloc=2,class=CODE,delta=1,group=1
    20                           	psect	text6,global,reloc=2,class=CODE,delta=1,group=1
    21                           	psect	text7,global,reloc=2,class=CODE,delta=1,group=1
    22                           	psect	text8,global,reloc=2,class=CODE,delta=1,group=1
    23                           	psect	text9,global,reloc=2,class=CODE,delta=1,group=1
    24                           	psect	text10,global,reloc=2,class=CODE,delta=1,group=1
    25                           	psect	text11,global,reloc=2,class=CODE,delta=1
    26                           	psect	text12,global,reloc=2,class=CODE,delta=1
    27                           	psect	text13,global,reloc=2,class=CODE,delta=1
    28                           	psect	text14,global,reloc=2,class=CODE,delta=1
    29                           	psect	text15,global,reloc=2,class=CODE,delta=1,group=1
    30                           	psect	text16,global,reloc=2,class=CODE,delta=1,group=1
    31                           	psect	text17,global,reloc=2,class=CODE,delta=1
    32                           	psect	text18,global,reloc=2,class=CODE,delta=1
    33                           	psect	text19,global,reloc=2,class=CODE,delta=1
    34                           	psect	text20,global,reloc=2,class=CODE,delta=1
    35                           	psect	intcode,global,reloc=2,class=CODE,delta=1
    36                           	psect	intcode_body,global,reloc=2,class=CODE,delta=1
    37                           	psect	text22,global,reloc=2,class=CODE,delta=1
    38                           	psect	text23,global,reloc=2,class=CODE,delta=1
    39                           	psect	text24,global,reloc=2,class=CODE,delta=1
    40                           	psect	text25,global,reloc=2,class=CODE,delta=1
    41                           	psect	text26,global,reloc=2,class=CODE,delta=1
    42                           	psect	text27,global,reloc=2,class=CODE,delta=1
    43                           	psect	text28,global,reloc=2,class=CODE,delta=1
    44                           	psect	text29,global,reloc=2,class=CODE,delta=1
    45                           	psect	text30,global,reloc=2,class=CODE,delta=1
    46                           	psect	intsave_regs,global,class=BIGRAM,space=1,delta=1,noexec
    47                           	psect	rparam,global,class=COMRAM,space=1,delta=1,noexec
    48                           	psect	temp,global,ovrld,common,class=COMRAM,space=1,delta=1
    49                           	psect	idloc,global,abs,ovrld,class=IDLOC,space=5,delta=1,noexec
    50                           	psect	config,global,abs,ovrld,class=CONFIG,space=4,delta=1,noexec
    51  0000                     
    52                           ; Version 2.36
    53                           ; Generated 28/01/2022 GMT
    54                           ; 
    55                           ; Copyright © 2022, Microchip Technology Inc. and its subsidiaries ("Microchip")
    56                           ; All rights reserved.
    57                           ; 
    58                           ; This software is developed by Microchip Technology Inc. and its subsidiaries ("Microch
      +                          ip").
    59                           ; 
    60                           ; Redistribution and use in source and binary forms, with or without modification, are
    61                           ; permitted provided that the following conditions are met:
    62                           ; 
    63                           ;     1. Redistributions of source code must retain the above copyright notice, this lis
      +                          t of
    64                           ;        conditions and the following disclaimer.
    65                           ; 
    66                           ;     2. Redistributions in binary form must reproduce the above copyright notice, this 
      +                          list
    67                           ;        of conditions and the following disclaimer in the documentation and/or other
    68                           ;        materials provided with the distribution. Publication is not required when
    69                           ;        this file is used in an embedded application.
    70                           ; 
    71                           ;     3. Microchip's name may not be used to endorse or promote products derived from th
      +                          is
    72                           ;        software without specific prior written permission.
    73                           ; 
    74                           ; THIS SOFTWARE IS PROVIDED BY MICROCHIP "AS IS" AND ANY EXPRESS OR IMPLIED WARRANTIES,
    75                           ; INCLUDING, BUT NOT LIMITED TO, THE IMPLIED WARRANTIES OF MERCHANTABILITY AND FITNESS F
      +                          OR
    76                           ; PURPOSE ARE DISCLAIMED.  IN NO EVENT SHALL MICROCHIP BE LIABLE FOR ANY DIRECT, INDIREC
      +                          T,
    77                           ; INCIDENTAL, SPECIAL, EXEMPLARY, OR CONSEQUENTIAL DAMAGES (INCLUDING BUT NOT LIMITED TO
    78                           ; PROCUREMENT OF SUBSTITUTE GOODS OR SERVICES; LOSS OF USE, DATA OR PROFITS; OR BUSINESS
    79                           ; INTERRUPTION) HOWSOEVER CAUSED AND ON ANY THEORY OF LIABILITY, WHETHER IN CONTRACT, ST
      +                          RICT
    80                           ; LIABILITY, OR TORT (INCLUDING NEGLIGENCE OR OTHERWISE) ARISING IN ANY WAY OUT OF THE U
      +                          SE OF
    81                           ; THIS SOFTWARE, EVEN IF ADVISED OF THE POSSIBILITY OF SUCH DAMAGE.
    82                           ; 
    83                           ; 
    84                           ; Code-generator required, PIC18F4550 Definitions
    85                           ; 
    86                           ; SFR Addresses
    87  0000                     
    88                           	psect	idataCOMRAM
    89  003332                     __pidataCOMRAM:
    90                           	callstack 0
    91                           
    92                           ;initializer for _interfaz
    93  003332  08                 	db	8
    94                           
    95                           	psect	idataBANK0
    96  003330                     __pidataBANK0:
    97                           	callstack 0
    98                           
    99                           ;initializer for _tiempo
   100  003330  0004               	dw	4
   101  0000                     _RCREG	set	4014
   102  0000                     _TXREG	set	4013
   103  0000                     _SPBRG	set	4015
   104  0000                     _BAUDCON	set	4024
   105  0000                     _LATD2	set	31842
   106  0000                     _LATD3	set	31843
   107  0000                     _TRMT	set	32097
   108  0000                     _GIE	set	32663
   109  0000                     _TMR0IE	set	32661
   110  0000                     _TMR0IF	set	32658
   111  0000                     _INT0IE	set	32660
   112  0000                     _TMR2ON	set	32338
   113  0000                     _LATE1	set	31849
   114  0000                     _LATE0	set	31848
   115  0000                     _TRISC2	set	31906
   116  0000                     _LATD1	set	31841
   117  0000                     _LATD0	set	31840
   118  0000                     _LATD	set	3980
   119  0000                     _LATC2	set	31834
   120  0000                     _LATE	set	3981
   121  0000                     _TRISC1	set	31905
   122  0000                     _RCSTA	set	4011
   123  0000                     _TXSTA	set	4012
   124  0000                     _CCP1CON	set	4029
   125  0000                     _CCPR1L	set	4030
   126  0000                     _ADCON1	set	4033
   127  0000                     _TRISE	set	3990
   128  0000                     _TRISD	set	3989
   129  0000                     _RCIE	set	31981
   130  0000                     _RCIF	set	31989
   131  0000                     _RCIP	set	31997
   132  0000                     _T2CON	set	4042
   133  0000                     _PR2	set	4043
   134  0000                     _TMR2	set	4044
   135  0000                     _T0CON	set	4053
   136  0000                     _INTEDG0	set	32654
   137  0000                     _INT0IF	set	32657
   138  0000                     _TMR0	set	4054
   139                           
   140                           ; #config settings
   141                           
   142                           	psect	cinit
   143  003224                     __pcinit:
   144                           	callstack 0
   145  003224                     start_initialization:
   146                           	callstack 0
   147  003224                     __initialization:
   148                           	callstack 0
   149                           
   150                           ; Initialize objects allocated to BANK0 (2 bytes)
   151                           ; load TBLPTR registers with __pidataBANK0
   152  003224  0E30               	movlw	low __pidataBANK0
   153  003226  6EF6               	movwf	tblptrl,c
   154  003228  0E33               	movlw	high __pidataBANK0
   155  00322A  6EF7               	movwf	tblptrh,c
   156  00322C  0E00               	movlw	low (__pidataBANK0 shr (0+16))
   157  00322E  6EF8               	movwf	tblptru,c
   158  003230  0009               	tblrd		*+	;fetch initializer
   159  003232  CFF5 F0B8          	movff	tablat,__pdataBANK0
   160  003236  0009               	tblrd		*+	;fetch initializer
   161  003238  CFF5 F0B9          	movff	tablat,__pdataBANK0+1
   162                           
   163                           ; Initialize objects allocated to COMRAM (1 bytes)
   164                           ; load TBLPTR registers with __pidataCOMRAM
   165  00323C  0E32               	movlw	low __pidataCOMRAM
   166  00323E  6EF6               	movwf	tblptrl,c
   167  003240  0E33               	movlw	high __pidataCOMRAM
   168  003242  6EF7               	movwf	tblptrh,c
   169  003244  0E00               	movlw	low (__pidataCOMRAM shr (0+16))
   170  003246  6EF8               	movwf	tblptru,c
   171  003248  0009               	tblrd		*+	;fetch initializer
   172  00324A  CFF5 F04C          	movff	tablat,__pdataCOMRAM
   173                           
   174                           ; Clear objects allocated to BANK0 (14 bytes)
   175  00324E  EE00  F0AA         	lfsr	0,__pbssBANK0
   176  003252  0E0E               	movlw	14
   177  003254                     clear_0:
   178  003254  6AEE               	clrf	postinc0,c
   179  003256  06E8               	decf	wreg,f,c
   180  003258  E1FD               	bnz	clear_0
   181                           
   182                           ; Clear objects allocated to COMRAM (1 bytes)
   183  00325A  6A4B               	clrf	__pbssCOMRAM& (0+255),c
   184  00325C                     end_of_initialization:
   185                           	callstack 0
   186  00325C                     __end_of__initialization:
   187                           	callstack 0
   188  00325C  904D               	bcf	int$flags,0,c	;clear compiler interrupt flag (level 1)
   189  00325E  924D               	bcf	int$flags,1,c	;clear compiler interrupt flag (level 2)
   190  003260  0E00               	movlw	low (__Lmediumconst shr (0+16))
   191  003262  6EF8               	movwf	tblptru,c
   192  003264  0100               	movlb	0
   193  003266  EFA1  F00E         	goto	_main	;jump to C main() function
   194                           
   195                           	psect	bssCOMRAM
   196  00004B                     __pbssCOMRAM:
   197                           	callstack 0
   198  00004B                     _lectura:
   199                           	callstack 0
   200  00004B                     	ds	1
   201                           
   202                           	psect	dataCOMRAM
   203  00004C                     __pdataCOMRAM:
   204                           	callstack 0
   205  00004C                     _interfaz:
   206                           	callstack 0
   207  00004C                     	ds	1
   208                           
   209                           	psect	bssBANK0
   210  0000AA                     __pbssBANK0:
   211                           	callstack 0
   212  0000AA                     _calc:
   213                           	callstack 0
   214  0000AA                     	ds	4
   215  0000AE                     _var1:
   216                           	callstack 0
   217  0000AE                     	ds	4
   218  0000B2                     _temporal:
   219                           	callstack 0
   220  0000B2                     	ds	2
   221  0000B4                     _estado:
   222                           	callstack 0
   223  0000B4                     	ds	2
   224  0000B6                     _PWM:
   225                           	callstack 0
   226  0000B6                     	ds	2
   227                           
   228                           	psect	dataBANK0
   229  0000B8                     __pdataBANK0:
   230                           	callstack 0
   231  0000B8                     _tiempo:
   232                           	callstack 0
   233  0000B8                     	ds	2
   234                           
   235                           	psect	cstackBANK0
   236  000060                     __pcstackBANK0:
   237                           	callstack 0
   238  000060                     ??_RetardoLCD:
   239  000060                     ?___awmod:
   240                           	callstack 0
   241  000060                     ?___fladd:
   242                           	callstack 0
   243  000060                     ?___fltol:
   244                           	callstack 0
   245  000060                     ?___xxtofl:
   246                           	callstack 0
   247  000060                     ConfiguraLCD@a:
   248                           	callstack 0
   249  000060                     Transmitir@dato:
   250                           	callstack 0
   251  000060                     ___awmod@dividend:
   252                           	callstack 0
   253  000060                     ___fltol@f1:
   254                           	callstack 0
   255  000060                     ___fladd@b:
   256                           	callstack 0
   257  000060                     ___xxtofl@val:
   258                           	callstack 0
   259                           
   260                           ; 4 bytes @ 0x0
   261  000060                     	ds	2
   262  000062                     RetardoLCD@a:
   263                           	callstack 0
   264  000062                     ___awmod@divisor:
   265                           	callstack 0
   266                           
   267                           ; 2 bytes @ 0x2
   268  000062                     	ds	1
   269  000063                     ??_EnviaDato:
   270                           
   271                           ; 1 bytes @ 0x3
   272  000063                     	ds	1
   273  000064                     ??___fltol:
   274  000064                     ??___xxtofl:
   275  000064                     EnviaDato@a:
   276                           	callstack 0
   277  000064                     ___awmod@counter:
   278                           	callstack 0
   279  000064                     ___fladd@a:
   280                           	callstack 0
   281                           
   282                           ; 4 bytes @ 0x4
   283  000064                     	ds	1
   284  000065                     ___awmod@sign:
   285                           	callstack 0
   286                           
   287                           ; 1 bytes @ 0x5
   288  000065                     	ds	1
   289  000066                     ?___awdiv:
   290                           	callstack 0
   291  000066                     ___awdiv@dividend:
   292                           	callstack 0
   293                           
   294                           ; 2 bytes @ 0x6
   295  000066                     	ds	2
   296  000068                     ??___fladd:
   297  000068                     ___fltol@sign1:
   298                           	callstack 0
   299  000068                     ___xxtofl@sign:
   300                           	callstack 0
   301  000068                     ___awdiv@divisor:
   302                           	callstack 0
   303                           
   304                           ; 2 bytes @ 0x8
   305  000068                     	ds	1
   306  000069                     ___fltol@exp1:
   307                           	callstack 0
   308  000069                     ___xxtofl@exp:
   309                           	callstack 0
   310                           
   311                           ; 1 bytes @ 0x9
   312  000069                     	ds	1
   313  00006A                     ___awdiv@counter:
   314                           	callstack 0
   315  00006A                     ___xxtofl@arg:
   316                           	callstack 0
   317                           
   318                           ; 4 bytes @ 0xA
   319  00006A                     	ds	1
   320  00006B                     ___awdiv@sign:
   321                           	callstack 0
   322                           
   323                           ; 1 bytes @ 0xB
   324  00006B                     	ds	1
   325  00006C                     ___fladd@signs:
   326                           	callstack 0
   327  00006C                     ___awdiv@quotient:
   328                           	callstack 0
   329                           
   330                           ; 2 bytes @ 0xC
   331  00006C                     	ds	1
   332  00006D                     ___fladd@aexp:
   333                           	callstack 0
   334                           
   335                           ; 1 bytes @ 0xD
   336  00006D                     	ds	1
   337  00006E                     ?___flmul:
   338                           	callstack 0
   339  00006E                     EscribeLCD_n8@b:
   340                           	callstack 0
   341  00006E                     ___fladd@bexp:
   342                           	callstack 0
   343  00006E                     ___flge@ff1:
   344                           	callstack 0
   345  00006E                     ___flmul@b:
   346                           	callstack 0
   347                           
   348                           ; 4 bytes @ 0xE
   349  00006E                     	ds	1
   350  00006F                     ??_EscribeLCD_n8:
   351  00006F                     ___fladd@grs:
   352                           	callstack 0
   353                           
   354                           ; 1 bytes @ 0xF
   355  00006F                     	ds	1
   356  000070                     ?___flsub:
   357                           	callstack 0
   358  000070                     ___flsub@b:
   359                           	callstack 0
   360                           
   361                           ; 4 bytes @ 0x10
   362  000070                     	ds	1
   363  000071                     EscribeLCD_n8@centena:
   364                           	callstack 0
   365                           
   366                           ; 1 bytes @ 0x11
   367  000071                     	ds	1
   368  000072                     EscribeLCD_n8@decena:
   369                           	callstack 0
   370  000072                     ___flge@ff2:
   371                           	callstack 0
   372  000072                     ___flmul@a:
   373                           	callstack 0
   374                           
   375                           ; 4 bytes @ 0x12
   376  000072                     	ds	1
   377  000073                     EscribeLCD_n8@unidad:
   378                           	callstack 0
   379                           
   380                           ; 1 bytes @ 0x13
   381  000073                     	ds	1
   382  000074                     EscribeLCD_n8@a:
   383                           	callstack 0
   384  000074                     ___flsub@a:
   385                           	callstack 0
   386                           
   387                           ; 4 bytes @ 0x14
   388  000074                     	ds	2
   389  000076                     ??___flmul:
   390  000076                     ??___flge:
   391                           
   392                           ; 1 bytes @ 0x16
   393  000076                     	ds	2
   394  000078                     
   395                           ; 1 bytes @ 0x18
   396  000078                     	ds	2
   397  00007A                     ___flmul@sign:
   398                           	callstack 0
   399                           
   400                           ; 1 bytes @ 0x1A
   401  00007A                     	ds	1
   402  00007B                     ___flmul@grs:
   403                           	callstack 0
   404                           
   405                           ; 4 bytes @ 0x1B
   406  00007B                     	ds	4
   407  00007F                     ___flmul@aexp:
   408                           	callstack 0
   409                           
   410                           ; 1 bytes @ 0x1F
   411  00007F                     	ds	1
   412  000080                     ___flmul@bexp:
   413                           	callstack 0
   414                           
   415                           ; 1 bytes @ 0x20
   416  000080                     	ds	1
   417  000081                     ___flmul@prod:
   418                           	callstack 0
   419                           
   420                           ; 4 bytes @ 0x21
   421  000081                     	ds	4
   422  000085                     ___flmul@temp:
   423                           	callstack 0
   424                           
   425                           ; 2 bytes @ 0x25
   426  000085                     	ds	2
   427  000087                     ?___fldiv:
   428                           	callstack 0
   429  000087                     ___fldiv@b:
   430                           	callstack 0
   431                           
   432                           ; 4 bytes @ 0x27
   433  000087                     	ds	4
   434  00008B                     ___fldiv@a:
   435                           	callstack 0
   436                           
   437                           ; 4 bytes @ 0x2B
   438  00008B                     	ds	4
   439  00008F                     ??___fldiv:
   440                           
   441                           ; 1 bytes @ 0x2F
   442  00008F                     	ds	4
   443  000093                     ___fldiv@rem:
   444                           	callstack 0
   445                           
   446                           ; 4 bytes @ 0x33
   447  000093                     	ds	4
   448  000097                     ___fldiv@sign:
   449                           	callstack 0
   450                           
   451                           ; 1 bytes @ 0x37
   452  000097                     	ds	1
   453  000098                     ___fldiv@new_exp:
   454                           	callstack 0
   455                           
   456                           ; 2 bytes @ 0x38
   457  000098                     	ds	2
   458  00009A                     ___fldiv@grs:
   459                           	callstack 0
   460                           
   461                           ; 4 bytes @ 0x3A
   462  00009A                     	ds	4
   463  00009E                     ___fldiv@bexp:
   464                           	callstack 0
   465                           
   466                           ; 1 bytes @ 0x3E
   467  00009E                     	ds	1
   468  00009F                     ___fldiv@aexp:
   469                           	callstack 0
   470                           
   471                           ; 1 bytes @ 0x3F
   472  00009F                     	ds	1
   473  0000A0                     aceleracion@objetivo:
   474                           	callstack 0
   475  0000A0                     desaceleracion@objetivo:
   476                           	callstack 0
   477                           
   478                           ; 2 bytes @ 0x40
   479  0000A0                     	ds	2
   480  0000A2                     aceleracion@t:
   481                           	callstack 0
   482  0000A2                     desaceleracion@t:
   483                           	callstack 0
   484                           
   485                           ; 2 bytes @ 0x42
   486  0000A2                     	ds	2
   487  0000A4                     ??_desaceleracion:
   488  0000A4                     ??_aceleracion:
   489                           
   490                           ; 1 bytes @ 0x44
   491  0000A4                     	ds	2
   492  0000A6                     cambios@s:
   493                           	callstack 0
   494                           
   495                           ; 2 bytes @ 0x46
   496  0000A6                     	ds	2
   497  0000A8                     ??_main:
   498                           
   499                           ; 1 bytes @ 0x48
   500  0000A8                     	ds	2
   501                           
   502                           	psect	cstackCOMRAM
   503  000001                     __pcstackCOMRAM:
   504                           	callstack 0
   505  000001                     ?i2___fltol:
   506                           	callstack 0
   507  000001                     ?i2___fladd:
   508                           	callstack 0
   509  000001                     ?i2___xxtofl:
   510                           	callstack 0
   511  000001                     i2Transmitir@dato:
   512                           	callstack 0
   513  000001                     i2___fltol@f1:
   514                           	callstack 0
   515  000001                     i2___fladd@b:
   516                           	callstack 0
   517  000001                     i2___xxtofl@val:
   518                           	callstack 0
   519                           
   520                           ; 4 bytes @ 0x0
   521  000001                     	ds	4
   522  000005                     ??i2___fltol:
   523  000005                     ??i2___xxtofl:
   524  000005                     i2___fladd@a:
   525                           	callstack 0
   526                           
   527                           ; 4 bytes @ 0x4
   528  000005                     	ds	4
   529  000009                     ??i2___fladd:
   530  000009                     i2___fltol@sign1:
   531                           	callstack 0
   532  000009                     i2___xxtofl@sign:
   533                           	callstack 0
   534                           
   535                           ; 1 bytes @ 0x8
   536  000009                     	ds	1
   537  00000A                     i2___fltol@exp1:
   538                           	callstack 0
   539  00000A                     i2___xxtofl@exp:
   540                           	callstack 0
   541                           
   542                           ; 1 bytes @ 0x9
   543  00000A                     	ds	1
   544  00000B                     i2___xxtofl@arg:
   545                           	callstack 0
   546                           
   547                           ; 4 bytes @ 0xA
   548  00000B                     	ds	2
   549  00000D                     i2___fladd@signs:
   550                           	callstack 0
   551                           
   552                           ; 1 bytes @ 0xC
   553  00000D                     	ds	1
   554  00000E                     i2___fladd@aexp:
   555                           	callstack 0
   556                           
   557                           ; 1 bytes @ 0xD
   558  00000E                     	ds	1
   559  00000F                     ?i2___flmul:
   560                           	callstack 0
   561  00000F                     i2___fladd@bexp:
   562                           	callstack 0
   563  00000F                     i2___flge@ff1:
   564                           	callstack 0
   565  00000F                     i2___flmul@b:
   566                           	callstack 0
   567                           
   568                           ; 4 bytes @ 0xE
   569  00000F                     	ds	1
   570  000010                     i2___fladd@grs:
   571                           	callstack 0
   572                           
   573                           ; 1 bytes @ 0xF
   574  000010                     	ds	1
   575  000011                     ?i2___flsub:
   576                           	callstack 0
   577  000011                     i2___flsub@b:
   578                           	callstack 0
   579                           
   580                           ; 4 bytes @ 0x10
   581  000011                     	ds	2
   582  000013                     i2___flge@ff2:
   583                           	callstack 0
   584  000013                     i2___flmul@a:
   585                           	callstack 0
   586                           
   587                           ; 4 bytes @ 0x12
   588  000013                     	ds	2
   589  000015                     i2___flsub@a:
   590                           	callstack 0
   591                           
   592                           ; 4 bytes @ 0x14
   593  000015                     	ds	2
   594  000017                     ??i2___flge:
   595  000017                     ??i2___flmul:
   596                           
   597                           ; 1 bytes @ 0x16
   598  000017                     	ds	2
   599  000019                     
   600                           ; 1 bytes @ 0x18
   601  000019                     	ds	2
   602  00001B                     i2___flmul@sign:
   603                           	callstack 0
   604                           
   605                           ; 1 bytes @ 0x1A
   606  00001B                     	ds	1
   607  00001C                     i2___flmul@grs:
   608                           	callstack 0
   609                           
   610                           ; 4 bytes @ 0x1B
   611  00001C                     	ds	4
   612  000020                     i2___flmul@aexp:
   613                           	callstack 0
   614                           
   615                           ; 1 bytes @ 0x1F
   616  000020                     	ds	1
   617  000021                     i2___flmul@bexp:
   618                           	callstack 0
   619                           
   620                           ; 1 bytes @ 0x20
   621  000021                     	ds	1
   622  000022                     i2___flmul@prod:
   623                           	callstack 0
   624                           
   625                           ; 4 bytes @ 0x21
   626  000022                     	ds	4
   627  000026                     i2___flmul@temp:
   628                           	callstack 0
   629                           
   630                           ; 2 bytes @ 0x25
   631  000026                     	ds	2
   632  000028                     ?i2___fldiv:
   633                           	callstack 0
   634  000028                     i2___fldiv@b:
   635                           	callstack 0
   636                           
   637                           ; 4 bytes @ 0x27
   638  000028                     	ds	4
   639  00002C                     i2___fldiv@a:
   640                           	callstack 0
   641                           
   642                           ; 4 bytes @ 0x2B
   643  00002C                     	ds	4
   644  000030                     ??i2___fldiv:
   645                           
   646                           ; 1 bytes @ 0x2F
   647  000030                     	ds	4
   648  000034                     i2___fldiv@rem:
   649                           	callstack 0
   650                           
   651                           ; 4 bytes @ 0x33
   652  000034                     	ds	4
   653  000038                     i2___fldiv@sign:
   654                           	callstack 0
   655                           
   656                           ; 1 bytes @ 0x37
   657  000038                     	ds	1
   658  000039                     i2___fldiv@new_exp:
   659                           	callstack 0
   660                           
   661                           ; 2 bytes @ 0x38
   662  000039                     	ds	2
   663  00003B                     i2___fldiv@grs:
   664                           	callstack 0
   665                           
   666                           ; 4 bytes @ 0x3A
   667  00003B                     	ds	4
   668  00003F                     i2___fldiv@bexp:
   669                           	callstack 0
   670                           
   671                           ; 1 bytes @ 0x3E
   672  00003F                     	ds	1
   673  000040                     i2___fldiv@aexp:
   674                           	callstack 0
   675                           
   676                           ; 1 bytes @ 0x3F
   677  000040                     	ds	1
   678  000041                     i2desaceleracion@objetivo:
   679                           	callstack 0
   680                           
   681                           ; 2 bytes @ 0x40
   682  000041                     	ds	2
   683  000043                     i2desaceleracion@t:
   684                           	callstack 0
   685                           
   686                           ; 2 bytes @ 0x42
   687  000043                     	ds	2
   688  000045                     ??i2_desaceleracion:
   689                           
   690                           ; 1 bytes @ 0x44
   691  000045                     	ds	2
   692  000047                     ??_ISR:
   693                           
   694                           ; 1 bytes @ 0x46
   695  000047                     	ds	4
   696                           
   697 ;;
   698 ;;Main: autosize = 0, tempsize = 2, incstack = 0, save=0
   699 ;;
   700 ;; *************** function _main *****************
   701 ;; Defined at:
   702 ;;		line 24 in file "Lab6.c"
   703 ;; Parameters:    Size  Location     Type
   704 ;;		None
   705 ;; Auto vars:     Size  Location     Type
   706 ;;  i               1    0        unsigned char 
   707 ;; Return value:  Size  Location     Type
   708 ;;                  1    wreg      void 
   709 ;; Registers used:
   710 ;;		wreg, status,2, status,0, prodl, prodh, cstack
   711 ;; Tracked objects:
   712 ;;		On entry : 0/0
   713 ;;		On exit  : 0/0
   714 ;;		Unchanged: 0/0
   715 ;; Data sizes:     COMRAM   BANK0   BANK1   BANK2   BANK3   BANK4   BANK5   BANK6   BANK7
   716 ;;      Params:         0       0       0       0       0       0       0       0       0
   717 ;;      Locals:         0       0       0       0       0       0       0       0       0
   718 ;;      Temps:          0       2       0       0       0       0       0       0       0
   719 ;;      Totals:         0       2       0       0       0       0       0       0       0
   720 ;;Total ram usage:        2 bytes
   721 ;; Hardware stack levels required when called: 8
   722 ;; This function calls:
   723 ;;		_BorraLCD
   724 ;;		_ConfiguraLCD
   725 ;;		_EscribeLCD_n8
   726 ;;		_InicializaLCD
   727 ;;		_Transmitir
   728 ;;		_aceleracion
   729 ;;		_cambios
   730 ;;		_desaceleracion
   731 ;; This function is called by:
   732 ;;		Startup code after reset
   733 ;; This function uses a non-reentrant model
   734 ;;
   735                           
   736                           	psect	text0
   737  001D42                     __ptext0:
   738                           	callstack 0
   739  001D42                     _main:
   740                           	callstack 23
   741  001D42                     
   742                           ;Lab6.c: 25:     LATE1=0;;Lab6.c: 26:     TMR2ON=1;
   743  001D42  9294               	bcf	3988,1,c	;volatile
   744                           
   745                           ;Lab6.c: 27: 
   746  001D44  9494               	bcf	3988,2,c	;volatile
   747  001D46                     
   748                           ;Lab6.c: 28:     TXSTA=0b00100100;
   749  001D46  0E00               	movlw	0
   750  001D48  6E95               	movwf	149,c	;volatile
   751                           
   752                           ;Lab6.c: 29:     RCSTA=0b10010000;
   753  001D4A  0E00               	movlw	0
   754  001D4C  6E8C               	movwf	140,c	;volatile
   755                           
   756                           ;Lab6.c: 30:     BAUDCON=0b00001000;
   757  001D4E  0E00               	movlw	0
   758  001D50  6E8D               	movwf	141,c	;volatile
   759                           
   760                           ;Lab6.c: 31: 
   761  001D52  0E00               	movlw	0
   762  001D54  6E96               	movwf	150,c	;volatile
   763                           
   764                           ;Lab6.c: 32:     SPBRG=25;
   765  001D56  0E0F               	movlw	15
   766  001D58  6EC1               	movwf	193,c	;volatile
   767                           
   768                           ;Lab6.c: 33: 
   769  001D5A  0E00               	movlw	0
   770  001D5C  6ECC               	movwf	204,c	;volatile
   771                           
   772                           ;Lab6.c: 34:     INTEDG0=1;
   773  001D5E  0EF9               	movlw	249
   774  001D60  6ECB               	movwf	203,c	;volatile
   775                           
   776                           ;Lab6.c: 35:     INT0IF=0;
   777  001D62  0E00               	movlw	0
   778  001D64  6ECA               	movwf	202,c	;volatile
   779                           
   780                           ;Lab6.c: 36:     INT0IE=1;
   781  001D66  0E00               	movlw	0
   782  001D68  6EBE               	movwf	190,c	;volatile
   783                           
   784                           ;Lab6.c: 37: 
   785  001D6A  0E0C               	movlw	12
   786  001D6C  6EBD               	movwf	189,c	;volatile
   787  001D6E                     
   788                           ;Lab6.c: 39:     RCIF=0;
   789  001D6E  808D               	bsf	3981,0,c	;volatile
   790  001D70                     
   791                           ;Lab6.c: 40:     RCIE=1;
   792  001D70  928D               	bcf	3981,1,c	;volatile
   793  001D72                     
   794                           ;Lab6.c: 41: 
   795  001D72  84CA               	bsf	4042,2,c	;volatile
   796                           
   797                           ;Lab6.c: 43:     TMR0=3036;
   798  001D74  0E24               	movlw	36
   799  001D76  6EAC               	movwf	172,c	;volatile
   800                           
   801                           ;Lab6.c: 44:     TMR0IF=0;
   802  001D78  0E90               	movlw	144
   803  001D7A  6EAB               	movwf	171,c	;volatile
   804                           
   805                           ;Lab6.c: 45:     TMR0IE=1;
   806  001D7C  0E08               	movlw	8
   807  001D7E  6EB8               	movwf	184,c	;volatile
   808                           
   809                           ;Lab6.c: 47: 
   810  001D80  0E19               	movlw	25
   811  001D82  6EAF               	movwf	175,c	;volatile
   812  001D84                     
   813                           ;Lab6.c: 49:     ConfiguraLCD(4);
   814  001D84  8CF1               	bsf	4081,6,c	;volatile
   815  001D86                     
   816                           ;Lab6.c: 50:     InicializaLCD();
   817  001D86  92F2               	bcf	4082,1,c	;volatile
   818  001D88                     
   819                           ;Lab6.c: 51:     Transmitir('o');
   820  001D88  88F2               	bsf	4082,4,c	;volatile
   821  001D8A                     
   822                           ;Lab6.c: 53:     while(1){
   823  001D8A  8A9F               	bsf	3999,5,c	;volatile
   824  001D8C                     
   825                           ;Lab6.c: 54:         if(estado==1){
   826  001D8C  9A9E               	bcf	3998,5,c	;volatile
   827  001D8E                     
   828                           ;Lab6.c: 55:             temporal=PWM;
   829  001D8E  8A9D               	bsf	3997,5,c	;volatile
   830                           
   831                           ;Lab6.c: 57:             aceleracion(temporal,tiempo);
   832  001D90  0E81               	movlw	129
   833  001D92  6ED5               	movwf	213,c	;volatile
   834                           
   835                           ;Lab6.c: 58:             estado=0;
   836  001D94  0E0B               	movlw	11
   837  001D96  6ED7               	movwf	215,c	;volatile
   838  001D98  0EDC               	movlw	220
   839  001D9A  6ED6               	movwf	214,c	;volatile
   840  001D9C                     
   841                           ;Lab6.c: 59:             BorraLCD();
   842  001D9C  94F2               	bcf	4082,2,c	;volatile
   843  001D9E                     
   844                           ;Lab6.c: 60:             EscribeLCD_n8(CCPR1L,3);
   845  001D9E  8AF2               	bsf	4082,5,c	;volatile
   846  001DA0                     
   847                           ;Lab6.c: 61:         }
   848  001DA0  8EF2               	bsf	4082,7,c	;volatile
   849  001DA2                     
   850                           ;Lab6.c: 63:             if(LATE0==1)cambios(0);
   851  001DA2  0E02               	movlw	2
   852  001DA4  0100               	movlb	0	; () banked
   853  001DA6  6FA9               	movwf	(??_main+1)& (0+255),b
   854  001DA8  0E45               	movlw	69
   855  001DAA  6FA8               	movwf	??_main& (0+255),b
   856  001DAC  0EA9               	movlw	169
   857  001DAE                     u5997:
   858  001DAE  2EE8               	decfsz	wreg,f,c
   859  001DB0  D7FE               	bra	u5997
   860  001DB2  2FA8               	decfsz	??_main& (0+255),f,b
   861  001DB4  D7FC               	bra	u5997
   862  001DB6  2FA9               	decfsz	(??_main+1)& (0+255),f,b
   863  001DB8  D7FA               	bra	u5997
   864  001DBA  D000               	nop2	
   865  001DBC                     
   866                           ;Lab6.c: 64:             estado=0;
   867  001DBC  0E04               	movlw	4
   868  001DBE  EC58  F019         	call	_ConfiguraLCD
   869  001DC2                     
   870                           ;Lab6.c: 65:             BorraLCD();
   871  001DC2  EC28  F017         	call	_InicializaLCD	;wreg free
   872  001DC6                     
   873                           ;Lab6.c: 66:             EscribeLCD_n8(CCPR1L,3);
   874  001DC6  0E6F               	movlw	111
   875  001DC8  EC70  F019         	call	_Transmitir
   876  001DCC                     
   877                           ;Lab6.c: 67:         }
   878  001DCC  0E6B               	movlw	107
   879  001DCE  EC70  F019         	call	_Transmitir
   880  001DD2                     l4821:
   881                           
   882                           ;Lab6.c: 69:             if(LATE1==1)cambios(1);
   883  001DD2  0100               	movlb	0	; () banked
   884  001DD4  05B4               	decf	_estado& (0+255),w,b
   885  001DD6  11B5               	iorwf	(_estado+1)& (0+255),w,b
   886  001DD8  A4D8               	btfss	status,2,c
   887  001DDA  EFF1  F00E         	goto	u5461
   888  001DDE  EFF3  F00E         	goto	u5460
   889  001DE2                     u5461:
   890  001DE2  EF18  F00F         	goto	l4833
   891  001DE6                     u5460:
   892  001DE6                     
   893                           ; BSR set to: 0
   894                           ;Lab6.c: 70:             estado=0;
   895  001DE6  C0B6  F0B2         	movff	_PWM,_temporal
   896  001DEA  C0B7  F0B3         	movff	_PWM+1,_temporal+1
   897  001DEE                     
   898                           ; BSR set to: 0
   899                           ;Lab6.c: 71:             BorraLCD();
   900  001DEE  0E00               	movlw	0
   901  001DF0  6FA1               	movwf	(desaceleracion@objetivo+1)& (0+255),b
   902  001DF2  0E00               	movlw	0
   903  001DF4  6FA0               	movwf	desaceleracion@objetivo& (0+255),b
   904  001DF6  C0B8  F0A2         	movff	_tiempo,desaceleracion@t
   905  001DFA  C0B9  F0A3         	movff	_tiempo+1,desaceleracion@t+1
   906  001DFE  ECB3  F00F         	call	_desaceleracion	;wreg free
   907                           
   908                           ;Lab6.c: 72:             EscribeLCD_n8(CCPR1L,3);
   909  001E02  C0B2  F0A0         	movff	_temporal,aceleracion@objetivo
   910  001E06  C0B3  F0A1         	movff	_temporal+1,aceleracion@objetivo+1
   911  001E0A  C0B8  F0A2         	movff	_tiempo,aceleracion@t
   912  001E0E  C0B9  F0A3         	movff	_tiempo+1,aceleracion@t+1
   913  001E12  ECB2  F010         	call	_aceleracion	;wreg free
   914  001E16                     
   915                           ;Lab6.c: 73:         }
   916  001E16  0E00               	movlw	0
   917  001E18  0100               	movlb	0	; () banked
   918  001E1A  6FB5               	movwf	(_estado+1)& (0+255),b
   919  001E1C  0E00               	movlw	0
   920  001E1E  6FB4               	movwf	_estado& (0+255),b
   921  001E20                     
   922                           ; BSR set to: 0
   923                           ;Lab6.c: 74:         if(estado==4){
   924  001E20  EC87  F019         	call	_BorraLCD	;wreg free
   925  001E24                     
   926                           ;Lab6.c: 75:             if(PWM>CCPR1L){
   927  001E24  0E03               	movlw	3
   928  001E26  0100               	movlb	0	; () banked
   929  001E28  6F6E               	movwf	EscribeLCD_n8@b& (0+255),b
   930  001E2A  50BE               	movf	190,w,c	;volatile
   931  001E2C  EC5F  F014         	call	_EscribeLCD_n8
   932  001E30                     l4833:
   933                           
   934                           ;Lab6.c: 77:             }
   935  001E30  0E02               	movlw	2
   936  001E32  0100               	movlb	0	; () banked
   937  001E34  19B4               	xorwf	_estado& (0+255),w,b
   938  001E36  11B5               	iorwf	(_estado+1)& (0+255),w,b
   939  001E38  A4D8               	btfss	status,2,c
   940  001E3A  EF21  F00F         	goto	u5471
   941  001E3E  EF23  F00F         	goto	u5470
   942  001E42                     u5471:
   943  001E42  EF3D  F00F         	goto	l4845
   944  001E46                     u5470:
   945  001E46                     
   946                           ; BSR set to: 0
   947                           ;Lab6.c: 78:             else if(PWM<CCPR1L){
   948  001E46  A08D               	btfss	3981,0,c	;volatile
   949  001E48  EF28  F00F         	goto	u5481
   950  001E4C  EF2A  F00F         	goto	u5480
   951  001E50                     u5481:
   952  001E50  EF30  F00F         	goto	l4839
   953  001E54                     u5480:
   954  001E54                     
   955                           ; BSR set to: 0
   956  001E54  0E00               	movlw	0
   957  001E56  6FA7               	movwf	(cambios@s+1)& (0+255),b
   958  001E58  0E00               	movlw	0
   959  001E5A  6FA6               	movwf	cambios@s& (0+255),b
   960  001E5C  ECC1  F018         	call	_cambios	;wreg free
   961  001E60                     l4839:
   962                           
   963                           ;Lab6.c: 79:             desaceleracion(PWM,tiempo);
   964  001E60  0E00               	movlw	0
   965  001E62  0100               	movlb	0	; () banked
   966  001E64  6FB5               	movwf	(_estado+1)& (0+255),b
   967  001E66  0E00               	movlw	0
   968  001E68  6FB4               	movwf	_estado& (0+255),b
   969  001E6A                     
   970                           ; BSR set to: 0
   971                           ;Lab6.c: 80:             }
   972  001E6A  EC87  F019         	call	_BorraLCD	;wreg free
   973  001E6E                     
   974                           ;Lab6.c: 81:             Transmitir('o');
   975  001E6E  0E03               	movlw	3
   976  001E70  0100               	movlb	0	; () banked
   977  001E72  6F6E               	movwf	EscribeLCD_n8@b& (0+255),b
   978  001E74  50BE               	movf	190,w,c	;volatile
   979  001E76  EC5F  F014         	call	_EscribeLCD_n8
   980  001E7A                     l4845:
   981                           
   982                           ;Lab6.c: 83:             estado=0;
   983  001E7A  0E03               	movlw	3
   984  001E7C  0100               	movlb	0	; () banked
   985  001E7E  19B4               	xorwf	_estado& (0+255),w,b
   986  001E80  11B5               	iorwf	(_estado+1)& (0+255),w,b
   987  001E82  A4D8               	btfss	status,2,c
   988  001E84  EF46  F00F         	goto	u5491
   989  001E88  EF48  F00F         	goto	u5490
   990  001E8C                     u5491:
   991  001E8C  EF62  F00F         	goto	l4857
   992  001E90                     u5490:
   993  001E90                     
   994                           ; BSR set to: 0
   995                           ;Lab6.c: 84:             BorraLCD();
   996  001E90  A28D               	btfss	3981,1,c	;volatile
   997  001E92  EF4D  F00F         	goto	u5501
   998  001E96  EF4F  F00F         	goto	u5500
   999  001E9A                     u5501:
  1000  001E9A  EF55  F00F         	goto	l4851
  1001  001E9E                     u5500:
  1002  001E9E                     
  1003                           ; BSR set to: 0
  1004  001E9E  0E00               	movlw	0
  1005  001EA0  6FA7               	movwf	(cambios@s+1)& (0+255),b
  1006  001EA2  0E01               	movlw	1
  1007  001EA4  6FA6               	movwf	cambios@s& (0+255),b
  1008  001EA6  ECC1  F018         	call	_cambios	;wreg free
  1009  001EAA                     l4851:
  1010                           
  1011                           ;Lab6.c: 85:             EscribeLCD_n8(CCPR1L,3);
  1012  001EAA  0E00               	movlw	0
  1013  001EAC  0100               	movlb	0	; () banked
  1014  001EAE  6FB5               	movwf	(_estado+1)& (0+255),b
  1015  001EB0  0E00               	movlw	0
  1016  001EB2  6FB4               	movwf	_estado& (0+255),b
  1017  001EB4                     
  1018                           ; BSR set to: 0
  1019                           ;Lab6.c: 86:         }
  1020  001EB4  EC87  F019         	call	_BorraLCD	;wreg free
  1021  001EB8                     
  1022                           ;Lab6.c: 87:     }
  1023  001EB8  0E03               	movlw	3
  1024  001EBA  0100               	movlb	0	; () banked
  1025  001EBC  6F6E               	movwf	EscribeLCD_n8@b& (0+255),b
  1026  001EBE  50BE               	movf	190,w,c	;volatile
  1027  001EC0  EC5F  F014         	call	_EscribeLCD_n8
  1028  001EC4                     l4857:
  1029                           
  1030                           ;Lab6.c: 89: }
  1031  001EC4  0E04               	movlw	4
  1032  001EC6  0100               	movlb	0	; () banked
  1033  001EC8  19B4               	xorwf	_estado& (0+255),w,b
  1034  001ECA  11B5               	iorwf	(_estado+1)& (0+255),w,b
  1035  001ECC  A4D8               	btfss	status,2,c
  1036  001ECE  EF6B  F00F         	goto	u5511
  1037  001ED2  EF6D  F00F         	goto	u5510
  1038  001ED6                     u5511:
  1039  001ED6  EFE9  F00E         	goto	l4821
  1040  001EDA                     u5510:
  1041  001EDA                     
  1042                           ; BSR set to: 0
  1043                           ;Lab6.c: 90: void cambios(int s){
  1044  001EDA  50BE               	movf	190,w,c	;volatile
  1045  001EDC  6FA8               	movwf	??_main& (0+255),b
  1046  001EDE  6BA9               	clrf	(??_main+1)& (0+255),b
  1047  001EE0  51B6               	movf	_PWM& (0+255),w,b
  1048  001EE2  5DA8               	subwf	??_main& (0+255),w,b
  1049  001EE4  51B7               	movf	(_PWM+1)& (0+255),w,b
  1050  001EE6  59A9               	subwfb	(??_main+1)& (0+255),w,b
  1051  001EE8  B0D8               	btfsc	status,0,c
  1052  001EEA  EF79  F00F         	goto	u5521
  1053  001EEE  EF7B  F00F         	goto	u5520
  1054  001EF2                     u5521:
  1055  001EF2  EF87  F00F         	goto	l4863
  1056  001EF6                     u5520:
  1057  001EF6                     
  1058                           ; BSR set to: 0
  1059                           ;Lab6.c: 91:     Transmitir('C');
  1060  001EF6  C0B6  F0A0         	movff	_PWM,aceleracion@objetivo
  1061  001EFA  C0B7  F0A1         	movff	_PWM+1,aceleracion@objetivo+1
  1062  001EFE  C0B8  F0A2         	movff	_tiempo,aceleracion@t
  1063  001F02  C0B9  F0A3         	movff	_tiempo+1,aceleracion@t+1
  1064  001F06  ECB2  F010         	call	_aceleracion	;wreg free
  1065                           
  1066                           ;Lab6.c: 92:     temporal=PWM;
  1067  001F0A  EF9C  F00F         	goto	l4867
  1068  001F0E                     l4863:
  1069                           
  1070                           ; BSR set to: 0
  1071  001F0E  50BE               	movf	190,w,c	;volatile
  1072  001F10  5DB6               	subwf	_PWM& (0+255),w,b
  1073  001F12  0E00               	movlw	0
  1074  001F14  59B7               	subwfb	(_PWM+1)& (0+255),w,b
  1075  001F16  B0D8               	btfsc	status,0,c
  1076  001F18  EF90  F00F         	goto	u5531
  1077  001F1C  EF92  F00F         	goto	u5530
  1078  001F20                     u5531:
  1079  001F20  EF9C  F00F         	goto	l4867
  1080  001F24                     u5530:
  1081  001F24                     
  1082                           ; BSR set to: 0
  1083                           ;Lab6.c: 94:     LATE0=0;
  1084  001F24  C0B6  F0A0         	movff	_PWM,desaceleracion@objetivo
  1085  001F28  C0B7  F0A1         	movff	_PWM+1,desaceleracion@objetivo+1
  1086  001F2C  C0B8  F0A2         	movff	_tiempo,desaceleracion@t
  1087  001F30  C0B9  F0A3         	movff	_tiempo+1,desaceleracion@t+1
  1088  001F34  ECB3  F00F         	call	_desaceleracion	;wreg free
  1089  001F38                     l4867:
  1090                           
  1091                           ;Lab6.c: 96: 
  1092  001F38  0E6F               	movlw	111
  1093  001F3A  EC70  F019         	call	_Transmitir
  1094  001F3E                     
  1095                           ;Lab6.c: 97:     if(s==1){
  1096  001F3E  0E6B               	movlw	107
  1097  001F40  EC70  F019         	call	_Transmitir
  1098  001F44                     
  1099                           ;Lab6.c: 98:     LATE0=1;
  1100  001F44  0E00               	movlw	0
  1101  001F46  0100               	movlb	0	; () banked
  1102  001F48  6FB5               	movwf	(_estado+1)& (0+255),b
  1103  001F4A  0E00               	movlw	0
  1104  001F4C  6FB4               	movwf	_estado& (0+255),b
  1105  001F4E                     
  1106                           ; BSR set to: 0
  1107                           ;Lab6.c: 99:     }
  1108  001F4E  EC87  F019         	call	_BorraLCD	;wreg free
  1109  001F52                     
  1110                           ;Lab6.c: 100: 
  1111  001F52  0E03               	movlw	3
  1112  001F54  0100               	movlb	0	; () banked
  1113  001F56  6F6E               	movwf	EscribeLCD_n8@b& (0+255),b
  1114  001F58  50BE               	movf	190,w,c	;volatile
  1115  001F5A  EC5F  F014         	call	_EscribeLCD_n8
  1116  001F5E  EFE9  F00E         	goto	l4821
  1117  001F62  EF07  F000         	goto	start
  1118  001F66                     __end_of_main:
  1119                           	callstack 0
  1120                           
  1121 ;; *************** function _cambios *****************
  1122 ;; Defined at:
  1123 ;;		line 105 in file "Lab6.c"
  1124 ;; Parameters:    Size  Location     Type
  1125 ;;  s               2   70[BANK0 ] int 
  1126 ;; Auto vars:     Size  Location     Type
  1127 ;;		None
  1128 ;; Return value:  Size  Location     Type
  1129 ;;                  1    wreg      void 
  1130 ;; Registers used:
  1131 ;;		wreg, status,2, status,0, prodl, prodh, cstack
  1132 ;; Tracked objects:
  1133 ;;		On entry : 0/0
  1134 ;;		On exit  : 0/0
  1135 ;;		Unchanged: 0/0
  1136 ;; Data sizes:     COMRAM   BANK0   BANK1   BANK2   BANK3   BANK4   BANK5   BANK6   BANK7
  1137 ;;      Params:         0       2       0       0       0       0       0       0       0
  1138 ;;      Locals:         0       0       0       0       0       0       0       0       0
  1139 ;;      Temps:          0       0       0       0       0       0       0       0       0
  1140 ;;      Totals:         0       2       0       0       0       0       0       0       0
  1141 ;;Total ram usage:        2 bytes
  1142 ;; Hardware stack levels used: 1
  1143 ;; Hardware stack levels required when called: 7
  1144 ;; This function calls:
  1145 ;;		_Transmitir
  1146 ;;		_aceleracion
  1147 ;;		_desaceleracion
  1148 ;; This function is called by:
  1149 ;;		_main
  1150 ;; This function uses a non-reentrant model
  1151 ;;
  1152                           
  1153                           	psect	text1
  1154  003182                     __ptext1:
  1155                           	callstack 0
  1156  003182                     _cambios:
  1157                           	callstack 23
  1158  003182                     
  1159                           ;Lab6.c: 106: }
  1160  003182  0E43               	movlw	67
  1161  003184  EC70  F019         	call	_Transmitir
  1162  003188                     
  1163                           ;Lab6.c: 107: void aceleracion(int objetivo, int t){
  1164  003188  C0B6  F0B2         	movff	_PWM,_temporal
  1165  00318C  C0B7  F0B3         	movff	_PWM+1,_temporal+1
  1166  003190                     
  1167                           ;Lab6.c: 108:     Transmitir('a');
  1168  003190  0E00               	movlw	0
  1169  003192  0100               	movlb	0	; () banked
  1170  003194  6FA1               	movwf	(desaceleracion@objetivo+1)& (0+255),b
  1171  003196  0E00               	movlw	0
  1172  003198  6FA0               	movwf	desaceleracion@objetivo& (0+255),b
  1173  00319A  C0B8  F0A2         	movff	_tiempo,desaceleracion@t
  1174  00319E  C0B9  F0A3         	movff	_tiempo+1,desaceleracion@t+1
  1175  0031A2  ECB3  F00F         	call	_desaceleracion	;wreg free
  1176  0031A6                     
  1177                           ;Lab6.c: 109:     if(CCP1CON==0b00000000){
  1178  0031A6  908D               	bcf	3981,0,c	;volatile
  1179  0031A8                     
  1180                           ;Lab6.c: 110:        CCP1CON=0b00001100;
  1181  0031A8  928D               	bcf	3981,1,c	;volatile
  1182  0031AA                     
  1183                           ;Lab6.c: 112:     if(objetivo>249)objetivo=249;
  1184  0031AA  0100               	movlb	0	; () banked
  1185  0031AC  05A6               	decf	cambios@s& (0+255),w,b
  1186  0031AE  11A7               	iorwf	(cambios@s+1)& (0+255),w,b
  1187  0031B0  A4D8               	btfss	status,2,c
  1188  0031B2  EFDD  F018         	goto	u5361
  1189  0031B6  EFDF  F018         	goto	u5360
  1190  0031BA                     u5361:
  1191  0031BA  EFE2  F018         	goto	l247
  1192  0031BE                     u5360:
  1193  0031BE                     
  1194                           ; BSR set to: 0
  1195                           ;Lab6.c: 113:     calc=(objetivo-CCPR1L)*50.0/(t*1000.0);
  1196  0031BE  808D               	bsf	3981,0,c	;volatile
  1197                           
  1198                           ;Lab6.c: 114:     var1=CCPR1L;
  1199  0031C0  EFE3  F018         	goto	l4529
  1200  0031C4                     l247:
  1201                           
  1202                           ; BSR set to: 0
  1203                           ;Lab6.c: 117:         CCPR1L=var1;
  1204  0031C4  828D               	bsf	3981,1,c	;volatile
  1205  0031C6                     l4529:
  1206                           
  1207                           ; BSR set to: 0
  1208                           ;Lab6.c: 119:     }
  1209  0031C6  C0B2  F0A0         	movff	_temporal,aceleracion@objetivo
  1210  0031CA  C0B3  F0A1         	movff	_temporal+1,aceleracion@objetivo+1
  1211  0031CE  C0B8  F0A2         	movff	_tiempo,aceleracion@t
  1212  0031D2  C0B9  F0A3         	movff	_tiempo+1,aceleracion@t+1
  1213  0031D6  ECB2  F010         	call	_aceleracion	;wreg free
  1214  0031DA  0012               	return		;funcret
  1215  0031DC                     __end_of_cambios:
  1216                           	callstack 0
  1217                           
  1218 ;; *************** function _desaceleracion *****************
  1219 ;; Defined at:
  1220 ;;		line 142 in file "Lab6.c"
  1221 ;; Parameters:    Size  Location     Type
  1222 ;;  objetivo        2   64[BANK0 ] int 
  1223 ;;  t               2   66[BANK0 ] int 
  1224 ;; Auto vars:     Size  Location     Type
  1225 ;;		None
  1226 ;; Return value:  Size  Location     Type
  1227 ;;                  1    wreg      void 
  1228 ;; Registers used:
  1229 ;;		wreg, status,2, status,0, prodl, prodh, cstack
  1230 ;; Tracked objects:
  1231 ;;		On entry : 0/0
  1232 ;;		On exit  : 0/0
  1233 ;;		Unchanged: 0/0
  1234 ;; Data sizes:     COMRAM   BANK0   BANK1   BANK2   BANK3   BANK4   BANK5   BANK6   BANK7
  1235 ;;      Params:         0       4       0       0       0       0       0       0       0
  1236 ;;      Locals:         0       0       0       0       0       0       0       0       0
  1237 ;;      Temps:          0       2       0       0       0       0       0       0       0
  1238 ;;      Totals:         0       6       0       0       0       0       0       0       0
  1239 ;;Total ram usage:        6 bytes
  1240 ;; Hardware stack levels used: 1
  1241 ;; Hardware stack levels required when called: 6
  1242 ;; This function calls:
  1243 ;;		_Transmitir
  1244 ;;		___fldiv
  1245 ;;		___flge
  1246 ;;		___flmul
  1247 ;;		___flsub
  1248 ;;		___fltol
  1249 ;;		___xxtofl
  1250 ;; This function is called by:
  1251 ;;		_main
  1252 ;;		_cambios
  1253 ;; This function uses a non-reentrant model
  1254 ;;
  1255                           
  1256                           	psect	text2
  1257  001F66                     __ptext2:
  1258                           	callstack 0
  1259  001F66                     _desaceleracion:
  1260                           	callstack 24
  1261  001F66                     
  1262                           ;Lab6.c: 143:        LATC2=0;
  1263  001F66  0E64               	movlw	100
  1264  001F68  EC70  F019         	call	_Transmitir
  1265  001F6C                     
  1266                           ;Lab6.c: 144:     }
  1267  001F6C  50BD               	movf	189,w,c	;volatile
  1268  001F6E  A4D8               	btfss	status,2,c
  1269  001F70  EFBC  F00F         	goto	u4451
  1270  001F74  EFBE  F00F         	goto	u4450
  1271  001F78                     u4451:
  1272  001F78  EFC0  F00F         	goto	l3881
  1273  001F7C                     u4450:
  1274  001F7C                     
  1275                           ;Lab6.c: 145:      PWM=CCPR1L;
  1276  001F7C  0E0C               	movlw	12
  1277  001F7E  6EBD               	movwf	189,c	;volatile
  1278  001F80                     l3881:
  1279                           
  1280                           ;Lab6.c: 147: void Transmitir(unsigned char dato){
  1281  001F80  0100               	movlb	0	; () banked
  1282  001F82  BFA1               	btfsc	(desaceleracion@objetivo+1)& (0+255),7,b
  1283  001F84  EFCF  F00F         	goto	u4460
  1284  001F88  51A1               	movf	(desaceleracion@objetivo+1)& (0+255),w,b
  1285  001F8A  E107               	bnz	u4461
  1286  001F8C  0E0B               	movlw	11
  1287  001F8E  5DA0               	subwf	desaceleracion@objetivo& (0+255),w,b
  1288  001F90  B0D8               	btfsc	status,0,c
  1289  001F92  EFCD  F00F         	goto	u4461
  1290  001F96  EFCF  F00F         	goto	u4460
  1291  001F9A                     u4461:
  1292  001F9A  EFD3  F00F         	goto	l3885
  1293  001F9E                     u4460:
  1294  001F9E                     
  1295                           ; BSR set to: 0
  1296  001F9E  0E00               	movlw	0
  1297  001FA0  6FA1               	movwf	(desaceleracion@objetivo+1)& (0+255),b
  1298  001FA2  0E0A               	movlw	10
  1299  001FA4  6FA0               	movwf	desaceleracion@objetivo& (0+255),b
  1300  001FA6                     l3885:
  1301                           
  1302                           ; BSR set to: 0
  1303                           ;Lab6.c: 148: 
  1304  001FA6  0E00               	movlw	0
  1305  001FA8  6F72               	movwf	___flmul@a& (0+255),b
  1306  001FAA  0E00               	movlw	0
  1307  001FAC  6F73               	movwf	(___flmul@a+1)& (0+255),b
  1308  001FAE  0E48               	movlw	72
  1309  001FB0  6F74               	movwf	(___flmul@a+2)& (0+255),b
  1310  001FB2  0E42               	movlw	66
  1311  001FB4  6F75               	movwf	(___flmul@a+3)& (0+255),b
  1312  001FB6  50BE               	movf	190,w,c	;volatile
  1313  001FB8  6FA4               	movwf	??_desaceleracion& (0+255),b
  1314  001FBA  6BA5               	clrf	(??_desaceleracion+1)& (0+255),b
  1315  001FBC  51A0               	movf	desaceleracion@objetivo& (0+255),w,b
  1316  001FBE  5FA4               	subwf	??_desaceleracion& (0+255),f,b
  1317  001FC0  51A1               	movf	(desaceleracion@objetivo+1)& (0+255),w,b
  1318  001FC2  5BA5               	subwfb	(??_desaceleracion+1)& (0+255),f,b
  1319  001FC4  C0A4  F060         	movff	??_desaceleracion,___xxtofl@val
  1320  001FC8  C0A5  F061         	movff	??_desaceleracion+1,___xxtofl@val+1
  1321  001FCC  0E00               	movlw	0
  1322  001FCE  BF61               	btfsc	(___xxtofl@val+1)& (0+255),7,b
  1323  001FD0  0EFF               	movlw	-1
  1324  001FD2  6F62               	movwf	(___xxtofl@val+2)& (0+255),b
  1325  001FD4  6F63               	movwf	(___xxtofl@val+3)& (0+255),b
  1326  001FD6  0E01               	movlw	1
  1327  001FD8  ECA9  F012         	call	___xxtofl
  1328  001FDC  C060  F06E         	movff	?___xxtofl,___flmul@b
  1329  001FE0  C061  F06F         	movff	?___xxtofl+1,___flmul@b+1
  1330  001FE4  C062  F070         	movff	?___xxtofl+2,___flmul@b+2
  1331  001FE8  C063  F071         	movff	?___xxtofl+3,___flmul@b+3
  1332  001FEC  ECCA  F004         	call	___flmul	;wreg free
  1333  001FF0  C06E  F087         	movff	?___flmul,___fldiv@b
  1334  001FF4  C06F  F088         	movff	?___flmul+1,___fldiv@b+1
  1335  001FF8  C070  F089         	movff	?___flmul+2,___fldiv@b+2
  1336  001FFC  C071  F08A         	movff	?___flmul+3,___fldiv@b+3
  1337  002000  0E00               	movlw	0
  1338  002002  0100               	movlb	0	; () banked
  1339  002004  6F72               	movwf	___flmul@a& (0+255),b
  1340  002006  0E00               	movlw	0
  1341  002008  6F73               	movwf	(___flmul@a+1)& (0+255),b
  1342  00200A  0E7A               	movlw	122
  1343  00200C  6F74               	movwf	(___flmul@a+2)& (0+255),b
  1344  00200E  0E44               	movlw	68
  1345  002010  6F75               	movwf	(___flmul@a+3)& (0+255),b
  1346  002012  C0A2  F060         	movff	desaceleracion@t,___xxtofl@val
  1347  002016  C0A3  F061         	movff	desaceleracion@t+1,___xxtofl@val+1
  1348  00201A  0E00               	movlw	0
  1349  00201C  BF61               	btfsc	(___xxtofl@val+1)& (0+255),7,b
  1350  00201E  0EFF               	movlw	-1
  1351  002020  6F62               	movwf	(___xxtofl@val+2)& (0+255),b
  1352  002022  6F63               	movwf	(___xxtofl@val+3)& (0+255),b
  1353  002024  0E01               	movlw	1
  1354  002026  ECA9  F012         	call	___xxtofl
  1355  00202A  C060  F06E         	movff	?___xxtofl,___flmul@b
  1356  00202E  C061  F06F         	movff	?___xxtofl+1,___flmul@b+1
  1357  002032  C062  F070         	movff	?___xxtofl+2,___flmul@b+2
  1358  002036  C063  F071         	movff	?___xxtofl+3,___flmul@b+3
  1359  00203A  ECCA  F004         	call	___flmul	;wreg free
  1360  00203E  C06E  F08B         	movff	?___flmul,___fldiv@a
  1361  002042  C06F  F08C         	movff	?___flmul+1,___fldiv@a+1
  1362  002046  C070  F08D         	movff	?___flmul+2,___fldiv@a+2
  1363  00204A  C071  F08E         	movff	?___flmul+3,___fldiv@a+3
  1364  00204E  EC06  F00B         	call	___fldiv	;wreg free
  1365  002052  C087  F0AA         	movff	?___fldiv,_calc
  1366  002056  C088  F0AB         	movff	?___fldiv+1,_calc+1
  1367  00205A  C089  F0AC         	movff	?___fldiv+2,_calc+2
  1368  00205E  C08A  F0AD         	movff	?___fldiv+3,_calc+3
  1369  002062                     
  1370                           ;Lab6.c: 149:     while(TRMT==0);
  1371  002062  50BE               	movf	190,w,c	;volatile
  1372  002064  0100               	movlb	0	; () banked
  1373  002066  6F60               	movwf	___xxtofl@val& (0+255),b
  1374  002068  6B61               	clrf	(___xxtofl@val+1)& (0+255),b
  1375  00206A  6B62               	clrf	(___xxtofl@val+2)& (0+255),b
  1376  00206C  6B63               	clrf	(___xxtofl@val+3)& (0+255),b
  1377  00206E  0E00               	movlw	0
  1378  002070  ECA9  F012         	call	___xxtofl
  1379  002074  C060  F0AE         	movff	?___xxtofl,_var1
  1380  002078  C061  F0AF         	movff	?___xxtofl+1,_var1+1
  1381  00207C  C062  F0B0         	movff	?___xxtofl+2,_var1+2
  1382  002080  C063  F0B1         	movff	?___xxtofl+3,_var1+3
  1383                           
  1384                           ;Lab6.c: 150:     TXREG=dato;
  1385  002084  EF74  F010         	goto	l3893
  1386  002088                     l3889:
  1387                           
  1388                           ; BSR set to: 0
  1389                           ;Lab6.c: 151: }
  1390  002088  C0AE  F070         	movff	_var1,___flsub@b
  1391  00208C  C0AF  F071         	movff	_var1+1,___flsub@b+1
  1392  002090  C0B0  F072         	movff	_var1+2,___flsub@b+2
  1393  002094  C0B1  F073         	movff	_var1+3,___flsub@b+3
  1394  002098  C0AA  F074         	movff	_calc,___flsub@a
  1395  00209C  C0AB  F075         	movff	_calc+1,___flsub@a+1
  1396  0020A0  C0AC  F076         	movff	_calc+2,___flsub@a+2
  1397  0020A4  C0AD  F077         	movff	_calc+3,___flsub@a+3
  1398  0020A8  ECEE  F018         	call	___flsub	;wreg free
  1399  0020AC  C070  F0AE         	movff	?___flsub,_var1
  1400  0020B0  C071  F0AF         	movff	?___flsub+1,_var1+1
  1401  0020B4  C072  F0B0         	movff	?___flsub+2,_var1+2
  1402  0020B8  C073  F0B1         	movff	?___flsub+3,_var1+3
  1403                           
  1404                           ;Lab6.c: 152: void __attribute__((picinterrupt(("")))) ISR(void){
  1405  0020BC  C0AE  F060         	movff	_var1,___fltol@f1
  1406  0020C0  C0AF  F061         	movff	_var1+1,___fltol@f1+1
  1407  0020C4  C0B0  F062         	movff	_var1+2,___fltol@f1+2
  1408  0020C8  C0B1  F063         	movff	_var1+3,___fltol@f1+3
  1409  0020CC  EC1C  F015         	call	___fltol	;wreg free
  1410  0020D0  0100               	movlb	0	; () banked
  1411  0020D2  5160               	movf	?___fltol& (0+255),w,b
  1412  0020D4  6EBE               	movwf	190,c	;volatile
  1413  0020D6                     
  1414                           ; BSR set to: 0
  1415                           ;Lab6.c: 153:     if(RCIF==1){
  1416  0020D6  0E11               	movlw	17
  1417  0020D8  0100               	movlb	0	; () banked
  1418  0020DA  6FA4               	movwf	??_desaceleracion& (0+255),b
  1419  0020DC  0E3A               	movlw	58
  1420  0020DE                     u6007:
  1421  0020DE  2EE8               	decfsz	wreg,f,c
  1422  0020E0  D7FE               	bra	u6007
  1423  0020E2  2FA4               	decfsz	??_desaceleracion& (0+255),f,b
  1424  0020E4  D7FC               	bra	u6007
  1425  0020E6  F000               	nop	
  1426  0020E8                     l3893:
  1427                           
  1428                           ;Lab6.c: 150:     TXREG=dato;
  1429  0020E8  C0A0  F060         	movff	desaceleracion@objetivo,___xxtofl@val
  1430  0020EC  C0A1  F061         	movff	desaceleracion@objetivo+1,___xxtofl@val+1
  1431  0020F0  0100               	movlb	0	; () banked
  1432  0020F2  0E00               	movlw	0
  1433  0020F4  BF61               	btfsc	(___xxtofl@val+1)& (0+255),7,b
  1434  0020F6  0EFF               	movlw	-1
  1435  0020F8  6F62               	movwf	(___xxtofl@val+2)& (0+255),b
  1436  0020FA  6F63               	movwf	(___xxtofl@val+3)& (0+255),b
  1437  0020FC  0E01               	movlw	1
  1438  0020FE  ECA9  F012         	call	___xxtofl
  1439  002102  C060  F06E         	movff	?___xxtofl,___flge@ff1
  1440  002106  C061  F06F         	movff	?___xxtofl+1,___flge@ff1+1
  1441  00210A  C062  F070         	movff	?___xxtofl+2,___flge@ff1+2
  1442  00210E  C063  F071         	movff	?___xxtofl+3,___flge@ff1+3
  1443  002112  C0AE  F072         	movff	_var1,___flge@ff2
  1444  002116  C0AF  F073         	movff	_var1+1,___flge@ff2+1
  1445  00211A  C0B0  F074         	movff	_var1+2,___flge@ff2+2
  1446  00211E  C0B1  F075         	movff	_var1+3,___flge@ff2+3
  1447  002122  ECA0  F015         	call	___flge	;wreg free
  1448  002126  0100               	movlb	0	; () banked
  1449  002128  A0D8               	btfss	status,0,c
  1450  00212A  EF99  F010         	goto	u4471
  1451  00212E  EF9B  F010         	goto	u4470
  1452  002132                     u4471:
  1453  002132  EF44  F010         	goto	l3889
  1454  002136                     u4470:
  1455  002136                     
  1456                           ; BSR set to: 0
  1457                           ;Lab6.c: 155:       if(LATD3==0){
  1458  002136  C0A0  FFBE         	movff	desaceleracion@objetivo,4030	;volatile
  1459  00213A                     
  1460                           ; BSR set to: 0
  1461                           ;Lab6.c: 156:       if(lectura=='A' || lectura=='a')PWM=0;
  1462  00213A  BFA1               	btfsc	(desaceleracion@objetivo+1)& (0+255),7,b
  1463  00213C  EFAB  F010         	goto	u4480
  1464  002140  51A1               	movf	(desaceleracion@objetivo+1)& (0+255),w,b
  1465  002142  E107               	bnz	u4481
  1466  002144  0E0B               	movlw	11
  1467  002146  5DA0               	subwf	desaceleracion@objetivo& (0+255),w,b
  1468  002148  B0D8               	btfsc	status,0,c
  1469  00214A  EFA9  F010         	goto	u4481
  1470  00214E  EFAB  F010         	goto	u4480
  1471  002152                     u4481:
  1472  002152  EFAE  F010         	goto	l3901
  1473  002156                     u4480:
  1474  002156                     
  1475                           ; BSR set to: 0
  1476                           ;Lab6.c: 157:       if(lectura=='B' || lectura=='b')PWM=25;
  1477  002156  0E00               	movlw	0
  1478  002158  6EBD               	movwf	189,c	;volatile
  1479  00215A                     
  1480                           ; BSR set to: 0
  1481                           ;Lab6.c: 158:       if(lectura=='C' || lectura=='c')PWM=50;
  1482  00215A  948B               	bcf	3979,2,c	;volatile
  1483  00215C                     l3901:
  1484                           
  1485                           ; BSR set to: 0
  1486                           ;Lab6.c: 160:       if(lectura=='E' || lectura=='e')PWM=100;
  1487  00215C  CFBE F0B6          	movff	4030,_PWM	;volatile
  1488  002160  6BB7               	clrf	(_PWM+1)& (0+255),b
  1489  002162                     
  1490                           ; BSR set to: 0
  1491  002162  0012               	return		;funcret
  1492  002164                     __end_of_desaceleracion:
  1493                           	callstack 0
  1494                           
  1495 ;; *************** function ___flsub *****************
  1496 ;; Defined at:
  1497 ;;		line 245 in file "C:\Program Files\Microchip\xc8\v2.36\pic\sources\c99\common\sprcadd.c"
  1498 ;; Parameters:    Size  Location     Type
  1499 ;;  b               4   16[BANK0 ] void 
  1500 ;;  a               4   20[BANK0 ] void 
  1501 ;; Auto vars:     Size  Location     Type
  1502 ;;		None
  1503 ;; Return value:  Size  Location     Type
  1504 ;;                  4   16[BANK0 ] void 
  1505 ;; Registers used:
  1506 ;;		wreg, status,2, status,0, cstack
  1507 ;; Tracked objects:
  1508 ;;		On entry : 0/0
  1509 ;;		On exit  : 0/0
  1510 ;;		Unchanged: 0/0
  1511 ;; Data sizes:     COMRAM   BANK0   BANK1   BANK2   BANK3   BANK4   BANK5   BANK6   BANK7
  1512 ;;      Params:         0       8       0       0       0       0       0       0       0
  1513 ;;      Locals:         0       0       0       0       0       0       0       0       0
  1514 ;;      Temps:          0       0       0       0       0       0       0       0       0
  1515 ;;      Totals:         0       8       0       0       0       0       0       0       0
  1516 ;;Total ram usage:        8 bytes
  1517 ;; Hardware stack levels used: 1
  1518 ;; Hardware stack levels required when called: 5
  1519 ;; This function calls:
  1520 ;;		___fladd
  1521 ;; This function is called by:
  1522 ;;		_desaceleracion
  1523 ;; This function uses a non-reentrant model
  1524 ;;
  1525                           
  1526                           	psect	text3
  1527  0031DC                     __ptext3:
  1528                           	callstack 0
  1529  0031DC                     ___flsub:
  1530                           	callstack 24
  1531  0031DC  0E00               	movlw	0
  1532  0031DE  0100               	movlb	0	; () banked
  1533  0031E0  1B74               	xorwf	___flsub@a& (0+255),f,b
  1534  0031E2  0E00               	movlw	0
  1535  0031E4  1B75               	xorwf	(___flsub@a+1)& (0+255),f,b
  1536  0031E6  0E00               	movlw	0
  1537  0031E8  1B76               	xorwf	(___flsub@a+2)& (0+255),f,b
  1538  0031EA  0E80               	movlw	128
  1539  0031EC  1B77               	xorwf	(___flsub@a+3)& (0+255),f,b
  1540  0031EE                     
  1541                           ; BSR set to: 0
  1542  0031EE  C070  F060         	movff	___flsub@b,___fladd@b
  1543  0031F2  C071  F061         	movff	___flsub@b+1,___fladd@b+1
  1544  0031F6  C072  F062         	movff	___flsub@b+2,___fladd@b+2
  1545  0031FA  C073  F063         	movff	___flsub@b+3,___fladd@b+3
  1546  0031FE  C074  F064         	movff	___flsub@a,___fladd@a
  1547  003202  C075  F065         	movff	___flsub@a+1,___fladd@a+1
  1548  003206  C076  F066         	movff	___flsub@a+2,___fladd@a+2
  1549  00320A  C077  F067         	movff	___flsub@a+3,___fladd@a+3
  1550  00320E  EC09  F000         	call	___fladd	;wreg free
  1551  003212  C060  F070         	movff	?___fladd,?___flsub
  1552  003216  C061  F071         	movff	?___fladd+1,?___flsub+1
  1553  00321A  C062  F072         	movff	?___fladd+2,?___flsub+2
  1554  00321E  C063  F073         	movff	?___fladd+3,?___flsub+3
  1555  003222  0012               	return		;funcret
  1556  003224                     __end_of___flsub:
  1557                           	callstack 0
  1558                           
  1559 ;; *************** function _aceleracion *****************
  1560 ;; Defined at:
  1561 ;;		line 122 in file "Lab6.c"
  1562 ;; Parameters:    Size  Location     Type
  1563 ;;  objetivo        2   64[BANK0 ] int 
  1564 ;;  t               2   66[BANK0 ] int 
  1565 ;; Auto vars:     Size  Location     Type
  1566 ;;		None
  1567 ;; Return value:  Size  Location     Type
  1568 ;;                  1    wreg      void 
  1569 ;; Registers used:
  1570 ;;		wreg, status,2, status,0, prodl, prodh, cstack
  1571 ;; Tracked objects:
  1572 ;;		On entry : 0/0
  1573 ;;		On exit  : 0/0
  1574 ;;		Unchanged: 0/0
  1575 ;; Data sizes:     COMRAM   BANK0   BANK1   BANK2   BANK3   BANK4   BANK5   BANK6   BANK7
  1576 ;;      Params:         0       4       0       0       0       0       0       0       0
  1577 ;;      Locals:         0       0       0       0       0       0       0       0       0
  1578 ;;      Temps:          0       2       0       0       0       0       0       0       0
  1579 ;;      Totals:         0       6       0       0       0       0       0       0       0
  1580 ;;Total ram usage:        6 bytes
  1581 ;; Hardware stack levels used: 1
  1582 ;; Hardware stack levels required when called: 5
  1583 ;; This function calls:
  1584 ;;		_Transmitir
  1585 ;;		___fladd
  1586 ;;		___fldiv
  1587 ;;		___flge
  1588 ;;		___flmul
  1589 ;;		___fltol
  1590 ;;		___xxtofl
  1591 ;; This function is called by:
  1592 ;;		_main
  1593 ;;		_cambios
  1594 ;; This function uses a non-reentrant model
  1595 ;;
  1596                           
  1597                           	psect	text4
  1598  002164                     __ptext4:
  1599                           	callstack 0
  1600  002164                     _aceleracion:
  1601                           	callstack 24
  1602  002164                     
  1603                           ;Lab6.c: 123:        LATC2=1;
  1604  002164  0E61               	movlw	97
  1605  002166  EC70  F019         	call	_Transmitir
  1606  00216A                     
  1607                           ;Lab6.c: 124:     }
  1608  00216A  50BD               	movf	189,w,c	;volatile
  1609  00216C  A4D8               	btfss	status,2,c
  1610  00216E  EFBB  F010         	goto	u4491
  1611  002172  EFBD  F010         	goto	u4490
  1612  002176                     u4491:
  1613  002176  EFBF  F010         	goto	l3909
  1614  00217A                     u4490:
  1615  00217A                     
  1616                           ;Lab6.c: 125:     PWM=CCPR1L;
  1617  00217A  0E0C               	movlw	12
  1618  00217C  6EBD               	movwf	189,c	;volatile
  1619  00217E                     l3909:
  1620                           
  1621                           ;Lab6.c: 127: void desaceleracion(int objetivo, int t){
  1622  00217E  0100               	movlb	0	; () banked
  1623  002180  BFA1               	btfsc	(aceleracion@objetivo+1)& (0+255),7,b
  1624  002182  EFCC  F010         	goto	u4501
  1625  002186  51A1               	movf	(aceleracion@objetivo+1)& (0+255),w,b
  1626  002188  E109               	bnz	u4500
  1627  00218A  0EFA               	movlw	250
  1628  00218C  5DA0               	subwf	aceleracion@objetivo& (0+255),w,b
  1629  00218E  A0D8               	btfss	status,0,c
  1630  002190  EFCC  F010         	goto	u4501
  1631  002194  EFCE  F010         	goto	u4500
  1632  002198                     u4501:
  1633  002198  EFD2  F010         	goto	l3913
  1634  00219C                     u4500:
  1635  00219C                     
  1636                           ; BSR set to: 0
  1637  00219C  0E00               	movlw	0
  1638  00219E  6FA1               	movwf	(aceleracion@objetivo+1)& (0+255),b
  1639  0021A0  0EF9               	movlw	249
  1640  0021A2  6FA0               	movwf	aceleracion@objetivo& (0+255),b
  1641  0021A4                     l3913:
  1642                           
  1643                           ; BSR set to: 0
  1644                           ;Lab6.c: 128:     Transmitir('d');
  1645  0021A4  0E00               	movlw	0
  1646  0021A6  6F72               	movwf	___flmul@a& (0+255),b
  1647  0021A8  0E00               	movlw	0
  1648  0021AA  6F73               	movwf	(___flmul@a+1)& (0+255),b
  1649  0021AC  0E48               	movlw	72
  1650  0021AE  6F74               	movwf	(___flmul@a+2)& (0+255),b
  1651  0021B0  0E42               	movlw	66
  1652  0021B2  6F75               	movwf	(___flmul@a+3)& (0+255),b
  1653  0021B4  50BE               	movf	190,w,c	;volatile
  1654  0021B6  5DA0               	subwf	aceleracion@objetivo& (0+255),w,b
  1655  0021B8  6FA4               	movwf	??_aceleracion& (0+255),b
  1656  0021BA  0E00               	movlw	0
  1657  0021BC  59A1               	subwfb	(aceleracion@objetivo+1)& (0+255),w,b
  1658  0021BE  6FA5               	movwf	(??_aceleracion+1)& (0+255),b
  1659  0021C0  C0A4  F060         	movff	??_aceleracion,___xxtofl@val
  1660  0021C4  C0A5  F061         	movff	??_aceleracion+1,___xxtofl@val+1
  1661  0021C8  0E00               	movlw	0
  1662  0021CA  BF61               	btfsc	(___xxtofl@val+1)& (0+255),7,b
  1663  0021CC  0EFF               	movlw	-1
  1664  0021CE  6F62               	movwf	(___xxtofl@val+2)& (0+255),b
  1665  0021D0  6F63               	movwf	(___xxtofl@val+3)& (0+255),b
  1666  0021D2  0E01               	movlw	1
  1667  0021D4  ECA9  F012         	call	___xxtofl
  1668  0021D8  C060  F06E         	movff	?___xxtofl,___flmul@b
  1669  0021DC  C061  F06F         	movff	?___xxtofl+1,___flmul@b+1
  1670  0021E0  C062  F070         	movff	?___xxtofl+2,___flmul@b+2
  1671  0021E4  C063  F071         	movff	?___xxtofl+3,___flmul@b+3
  1672  0021E8  ECCA  F004         	call	___flmul	;wreg free
  1673  0021EC  C06E  F087         	movff	?___flmul,___fldiv@b
  1674  0021F0  C06F  F088         	movff	?___flmul+1,___fldiv@b+1
  1675  0021F4  C070  F089         	movff	?___flmul+2,___fldiv@b+2
  1676  0021F8  C071  F08A         	movff	?___flmul+3,___fldiv@b+3
  1677  0021FC  0E00               	movlw	0
  1678  0021FE  0100               	movlb	0	; () banked
  1679  002200  6F72               	movwf	___flmul@a& (0+255),b
  1680  002202  0E00               	movlw	0
  1681  002204  6F73               	movwf	(___flmul@a+1)& (0+255),b
  1682  002206  0E7A               	movlw	122
  1683  002208  6F74               	movwf	(___flmul@a+2)& (0+255),b
  1684  00220A  0E44               	movlw	68
  1685  00220C  6F75               	movwf	(___flmul@a+3)& (0+255),b
  1686  00220E  C0A2  F060         	movff	aceleracion@t,___xxtofl@val
  1687  002212  C0A3  F061         	movff	aceleracion@t+1,___xxtofl@val+1
  1688  002216  0E00               	movlw	0
  1689  002218  BF61               	btfsc	(___xxtofl@val+1)& (0+255),7,b
  1690  00221A  0EFF               	movlw	-1
  1691  00221C  6F62               	movwf	(___xxtofl@val+2)& (0+255),b
  1692  00221E  6F63               	movwf	(___xxtofl@val+3)& (0+255),b
  1693  002220  0E01               	movlw	1
  1694  002222  ECA9  F012         	call	___xxtofl
  1695  002226  C060  F06E         	movff	?___xxtofl,___flmul@b
  1696  00222A  C061  F06F         	movff	?___xxtofl+1,___flmul@b+1
  1697  00222E  C062  F070         	movff	?___xxtofl+2,___flmul@b+2
  1698  002232  C063  F071         	movff	?___xxtofl+3,___flmul@b+3
  1699  002236  ECCA  F004         	call	___flmul	;wreg free
  1700  00223A  C06E  F08B         	movff	?___flmul,___fldiv@a
  1701  00223E  C06F  F08C         	movff	?___flmul+1,___fldiv@a+1
  1702  002242  C070  F08D         	movff	?___flmul+2,___fldiv@a+2
  1703  002246  C071  F08E         	movff	?___flmul+3,___fldiv@a+3
  1704  00224A  EC06  F00B         	call	___fldiv	;wreg free
  1705  00224E  C087  F0AA         	movff	?___fldiv,_calc
  1706  002252  C088  F0AB         	movff	?___fldiv+1,_calc+1
  1707  002256  C089  F0AC         	movff	?___fldiv+2,_calc+2
  1708  00225A  C08A  F0AD         	movff	?___fldiv+3,_calc+3
  1709  00225E                     
  1710                           ;Lab6.c: 129:     if(CCP1CON==0b00000000){
  1711  00225E  50BE               	movf	190,w,c	;volatile
  1712  002260  0100               	movlb	0	; () banked
  1713  002262  6F60               	movwf	___xxtofl@val& (0+255),b
  1714  002264  6B61               	clrf	(___xxtofl@val+1)& (0+255),b
  1715  002266  6B62               	clrf	(___xxtofl@val+2)& (0+255),b
  1716  002268  6B63               	clrf	(___xxtofl@val+3)& (0+255),b
  1717  00226A  0E00               	movlw	0
  1718  00226C  ECA9  F012         	call	___xxtofl
  1719  002270  C060  F0AE         	movff	?___xxtofl,_var1
  1720  002274  C061  F0AF         	movff	?___xxtofl+1,_var1+1
  1721  002278  C062  F0B0         	movff	?___xxtofl+2,_var1+2
  1722  00227C  C063  F0B1         	movff	?___xxtofl+3,_var1+3
  1723                           
  1724                           ;Lab6.c: 130:       CCP1CON=0b00001100;
  1725  002280  EF72  F011         	goto	l3921
  1726  002284                     l3917:
  1727                           
  1728                           ; BSR set to: 0
  1729                           ;Lab6.c: 131:     }
  1730  002284  C0AE  F060         	movff	_var1,___fladd@b
  1731  002288  C0AF  F061         	movff	_var1+1,___fladd@b+1
  1732  00228C  C0B0  F062         	movff	_var1+2,___fladd@b+2
  1733  002290  C0B1  F063         	movff	_var1+3,___fladd@b+3
  1734  002294  C0AA  F064         	movff	_calc,___fladd@a
  1735  002298  C0AB  F065         	movff	_calc+1,___fladd@a+1
  1736  00229C  C0AC  F066         	movff	_calc+2,___fladd@a+2
  1737  0022A0  C0AD  F067         	movff	_calc+3,___fladd@a+3
  1738  0022A4  EC09  F000         	call	___fladd	;wreg free
  1739  0022A8  C060  F0AE         	movff	?___fladd,_var1
  1740  0022AC  C061  F0AF         	movff	?___fladd+1,_var1+1
  1741  0022B0  C062  F0B0         	movff	?___fladd+2,_var1+2
  1742  0022B4  C063  F0B1         	movff	?___fladd+3,_var1+3
  1743                           
  1744                           ;Lab6.c: 132:     if(objetivo<11)objetivo=10;
  1745  0022B8  C0AE  F060         	movff	_var1,___fltol@f1
  1746  0022BC  C0AF  F061         	movff	_var1+1,___fltol@f1+1
  1747  0022C0  C0B0  F062         	movff	_var1+2,___fltol@f1+2
  1748  0022C4  C0B1  F063         	movff	_var1+3,___fltol@f1+3
  1749  0022C8  EC1C  F015         	call	___fltol	;wreg free
  1750  0022CC  0100               	movlb	0	; () banked
  1751  0022CE  5160               	movf	?___fltol& (0+255),w,b
  1752  0022D0  6EBE               	movwf	190,c	;volatile
  1753  0022D2                     
  1754                           ; BSR set to: 0
  1755                           ;Lab6.c: 133:     calc=(CCPR1L-objetivo)*50.0/(t*1000.0);
  1756  0022D2  0E11               	movlw	17
  1757  0022D4  0100               	movlb	0	; () banked
  1758  0022D6  6FA4               	movwf	??_aceleracion& (0+255),b
  1759  0022D8  0E3A               	movlw	58
  1760  0022DA                     u6017:
  1761  0022DA  2EE8               	decfsz	wreg,f,c
  1762  0022DC  D7FE               	bra	u6017
  1763  0022DE  2FA4               	decfsz	??_aceleracion& (0+255),f,b
  1764  0022E0  D7FC               	bra	u6017
  1765  0022E2  F000               	nop	
  1766  0022E4                     l3921:
  1767                           
  1768                           ;Lab6.c: 130:       CCP1CON=0b00001100;
  1769  0022E4  C0AE  F06E         	movff	_var1,___flge@ff1
  1770  0022E8  C0AF  F06F         	movff	_var1+1,___flge@ff1+1
  1771  0022EC  C0B0  F070         	movff	_var1+2,___flge@ff1+2
  1772  0022F0  C0B1  F071         	movff	_var1+3,___flge@ff1+3
  1773  0022F4  C0A0  F060         	movff	aceleracion@objetivo,___xxtofl@val
  1774  0022F8  C0A1  F061         	movff	aceleracion@objetivo+1,___xxtofl@val+1
  1775  0022FC  0100               	movlb	0	; () banked
  1776  0022FE  0E00               	movlw	0
  1777  002300  BF61               	btfsc	(___xxtofl@val+1)& (0+255),7,b
  1778  002302  0EFF               	movlw	-1
  1779  002304  6F62               	movwf	(___xxtofl@val+2)& (0+255),b
  1780  002306  6F63               	movwf	(___xxtofl@val+3)& (0+255),b
  1781  002308  0E01               	movlw	1
  1782  00230A  ECA9  F012         	call	___xxtofl
  1783  00230E  C060  F072         	movff	?___xxtofl,___flge@ff2
  1784  002312  C061  F073         	movff	?___xxtofl+1,___flge@ff2+1
  1785  002316  C062  F074         	movff	?___xxtofl+2,___flge@ff2+2
  1786  00231A  C063  F075         	movff	?___xxtofl+3,___flge@ff2+3
  1787  00231E  ECA0  F015         	call	___flge	;wreg free
  1788  002322  0100               	movlb	0	; () banked
  1789  002324  A0D8               	btfss	status,0,c
  1790  002326  EF97  F011         	goto	u4511
  1791  00232A  EF99  F011         	goto	u4510
  1792  00232E                     u4511:
  1793  00232E  EF42  F011         	goto	l3917
  1794  002332                     u4510:
  1795  002332                     
  1796                           ; BSR set to: 0
  1797                           ;Lab6.c: 135:     while(objetivo<var1){
  1798  002332  C0A0  FFBE         	movff	aceleracion@objetivo,4030	;volatile
  1799  002336                     
  1800                           ; BSR set to: 0
  1801                           ;Lab6.c: 136:         var1=var1-calc;
  1802  002336  BFA1               	btfsc	(aceleracion@objetivo+1)& (0+255),7,b
  1803  002338  EFA7  F011         	goto	u4521
  1804  00233C  51A1               	movf	(aceleracion@objetivo+1)& (0+255),w,b
  1805  00233E  E109               	bnz	u4520
  1806  002340  0EF9               	movlw	249
  1807  002342  5DA0               	subwf	aceleracion@objetivo& (0+255),w,b
  1808  002344  A0D8               	btfss	status,0,c
  1809  002346  EFA7  F011         	goto	u4521
  1810  00234A  EFA9  F011         	goto	u4520
  1811  00234E                     u4521:
  1812  00234E  EFAC  F011         	goto	l3929
  1813  002352                     u4520:
  1814  002352                     
  1815                           ; BSR set to: 0
  1816                           ;Lab6.c: 137:         CCPR1L=var1;
  1817  002352  0E00               	movlw	0
  1818  002354  6EBD               	movwf	189,c	;volatile
  1819  002356                     
  1820                           ; BSR set to: 0
  1821                           ;Lab6.c: 138:         _delay((unsigned long)((50)*(1000000/4000.0)));
  1822  002356  848B               	bsf	3979,2,c	;volatile
  1823  002358                     l3929:
  1824                           
  1825                           ; BSR set to: 0
  1826                           ;Lab6.c: 140:     CCPR1L=objetivo;
  1827  002358  CFBE F0B6          	movff	4030,_PWM	;volatile
  1828  00235C  6BB7               	clrf	(_PWM+1)& (0+255),b
  1829  00235E                     
  1830                           ; BSR set to: 0
  1831  00235E  0012               	return		;funcret
  1832  002360                     __end_of_aceleracion:
  1833                           	callstack 0
  1834                           
  1835 ;; *************** function ___xxtofl *****************
  1836 ;; Defined at:
  1837 ;;		line 10 in file "C:\Program Files\Microchip\xc8\v2.36\pic\sources\c99\common\xxtofl.c"
  1838 ;; Parameters:    Size  Location     Type
  1839 ;;  sign            1    wreg     unsigned char 
  1840 ;;  val             4    0[BANK0 ] long 
  1841 ;; Auto vars:     Size  Location     Type
  1842 ;;  sign            1    8[BANK0 ] unsigned char 
  1843 ;;  arg             4   10[BANK0 ] unsigned long 
  1844 ;;  exp             1    9[BANK0 ] unsigned char 
  1845 ;; Return value:  Size  Location     Type
  1846 ;;                  4    0[BANK0 ] unsigned char 
  1847 ;; Registers used:
  1848 ;;		wreg, status,2, status,0
  1849 ;; Tracked objects:
  1850 ;;		On entry : 0/0
  1851 ;;		On exit  : 0/0
  1852 ;;		Unchanged: 0/0
  1853 ;; Data sizes:     COMRAM   BANK0   BANK1   BANK2   BANK3   BANK4   BANK5   BANK6   BANK7
  1854 ;;      Params:         0       4       0       0       0       0       0       0       0
  1855 ;;      Locals:         0       6       0       0       0       0       0       0       0
  1856 ;;      Temps:          0       4       0       0       0       0       0       0       0
  1857 ;;      Totals:         0      14       0       0       0       0       0       0       0
  1858 ;;Total ram usage:       14 bytes
  1859 ;; Hardware stack levels used: 1
  1860 ;; Hardware stack levels required when called: 4
  1861 ;; This function calls:
  1862 ;;		Nothing
  1863 ;; This function is called by:
  1864 ;;		_aceleracion
  1865 ;;		_desaceleracion
  1866 ;; This function uses a non-reentrant model
  1867 ;;
  1868                           
  1869                           	psect	text5
  1870  002552                     __ptext5:
  1871                           	callstack 0
  1872  002552                     ___xxtofl:
  1873                           	callstack 25
  1874                           
  1875                           ; BSR set to: 0
  1876                           ;incstack = 0
  1877                           ;___xxtofl@sign stored from wreg
  1878  002552  0100               	movlb	0	; () banked
  1879  002554  6F68               	movwf	___xxtofl@sign& (0+255),b
  1880  002556  0100               	movlb	0	; () banked
  1881  002558  5168               	movf	___xxtofl@sign& (0+255),w,b
  1882  00255A  B4D8               	btfsc	status,2,c
  1883  00255C  EFB2  F012         	goto	u3961
  1884  002560  EFB4  F012         	goto	u3960
  1885  002564                     u3961:
  1886  002564  EFD6  F012         	goto	l995
  1887  002568                     u3960:
  1888  002568                     
  1889                           ; BSR set to: 0
  1890  002568  BF63               	btfsc	(___xxtofl@val+3)& (0+255),7,b
  1891  00256A  EFBB  F012         	goto	u3970
  1892  00256E  EFB9  F012         	goto	u3971
  1893  002572                     u3971:
  1894  002572  EFD6  F012         	goto	l995
  1895  002576                     u3970:
  1896  002576                     
  1897                           ; BSR set to: 0
  1898  002576  C060  F064         	movff	___xxtofl@val,??___xxtofl
  1899  00257A  C061  F065         	movff	___xxtofl@val+1,??___xxtofl+1
  1900  00257E  C062  F066         	movff	___xxtofl@val+2,??___xxtofl+2
  1901  002582  C063  F067         	movff	___xxtofl@val+3,??___xxtofl+3
  1902  002586  1F64               	comf	??___xxtofl& (0+255),f,b
  1903  002588  1F65               	comf	(??___xxtofl+1)& (0+255),f,b
  1904  00258A  1F66               	comf	(??___xxtofl+2)& (0+255),f,b
  1905  00258C  1F67               	comf	(??___xxtofl+3)& (0+255),f,b
  1906  00258E  2B64               	incf	??___xxtofl& (0+255),f,b
  1907  002590  0E00               	movlw	0
  1908  002592  2365               	addwfc	(??___xxtofl+1)& (0+255),f,b
  1909  002594  2366               	addwfc	(??___xxtofl+2)& (0+255),f,b
  1910  002596  2367               	addwfc	(??___xxtofl+3)& (0+255),f,b
  1911  002598  C064  F06A         	movff	??___xxtofl,___xxtofl@arg
  1912  00259C  C065  F06B         	movff	??___xxtofl+1,___xxtofl@arg+1
  1913  0025A0  C066  F06C         	movff	??___xxtofl+2,___xxtofl@arg+2
  1914  0025A4  C067  F06D         	movff	??___xxtofl+3,___xxtofl@arg+3
  1915  0025A8  EFDE  F012         	goto	l3625
  1916  0025AC                     l995:
  1917                           
  1918                           ; BSR set to: 0
  1919  0025AC  C060  F06A         	movff	___xxtofl@val,___xxtofl@arg
  1920  0025B0  C061  F06B         	movff	___xxtofl@val+1,___xxtofl@arg+1
  1921  0025B4  C062  F06C         	movff	___xxtofl@val+2,___xxtofl@arg+2
  1922  0025B8  C063  F06D         	movff	___xxtofl@val+3,___xxtofl@arg+3
  1923  0025BC                     l3625:
  1924                           
  1925                           ; BSR set to: 0
  1926  0025BC  5160               	movf	___xxtofl@val& (0+255),w,b
  1927  0025BE  1161               	iorwf	(___xxtofl@val+1)& (0+255),w,b
  1928  0025C0  1162               	iorwf	(___xxtofl@val+2)& (0+255),w,b
  1929  0025C2  1163               	iorwf	(___xxtofl@val+3)& (0+255),w,b
  1930  0025C4  A4D8               	btfss	status,2,c
  1931  0025C6  EFE7  F012         	goto	u3981
  1932  0025CA  EFE9  F012         	goto	u3980
  1933  0025CE                     u3981:
  1934  0025CE  EFF3  F012         	goto	l3631
  1935  0025D2                     u3980:
  1936  0025D2                     
  1937                           ; BSR set to: 0
  1938  0025D2  0E00               	movlw	0
  1939  0025D4  6F60               	movwf	?___xxtofl& (0+255),b
  1940  0025D6  0E00               	movlw	0
  1941  0025D8  6F61               	movwf	(?___xxtofl+1)& (0+255),b
  1942  0025DA  0E00               	movlw	0
  1943  0025DC  6F62               	movwf	(?___xxtofl+2)& (0+255),b
  1944  0025DE  0E00               	movlw	0
  1945  0025E0  6F63               	movwf	(?___xxtofl+3)& (0+255),b
  1946  0025E2  EF84  F013         	goto	l998
  1947  0025E6                     l3631:
  1948                           
  1949                           ; BSR set to: 0
  1950  0025E6  0E96               	movlw	150
  1951  0025E8  6F69               	movwf	___xxtofl@exp& (0+255),b
  1952  0025EA  EFFD  F012         	goto	l3635
  1953  0025EE                     l3633:
  1954                           
  1955                           ; BSR set to: 0
  1956  0025EE  2B69               	incf	___xxtofl@exp& (0+255),f,b
  1957  0025F0  90D8               	bcf	status,0,c
  1958  0025F2  336D               	rrcf	(___xxtofl@arg+3)& (0+255),f,b
  1959  0025F4  336C               	rrcf	(___xxtofl@arg+2)& (0+255),f,b
  1960  0025F6  336B               	rrcf	(___xxtofl@arg+1)& (0+255),f,b
  1961  0025F8  336A               	rrcf	___xxtofl@arg& (0+255),f,b
  1962  0025FA                     l3635:
  1963                           
  1964                           ; BSR set to: 0
  1965  0025FA  0E00               	movlw	0
  1966  0025FC  156A               	andwf	___xxtofl@arg& (0+255),w,b
  1967  0025FE  6F64               	movwf	??___xxtofl& (0+255),b
  1968  002600  0E00               	movlw	0
  1969  002602  156B               	andwf	(___xxtofl@arg+1)& (0+255),w,b
  1970  002604  6F65               	movwf	(??___xxtofl+1)& (0+255),b
  1971  002606  0E00               	movlw	0
  1972  002608  156C               	andwf	(___xxtofl@arg+2)& (0+255),w,b
  1973  00260A  6F66               	movwf	(??___xxtofl+2)& (0+255),b
  1974  00260C  0EFE               	movlw	254
  1975  00260E  156D               	andwf	(___xxtofl@arg+3)& (0+255),w,b
  1976  002610  6F67               	movwf	(??___xxtofl+3)& (0+255),b
  1977  002612  5164               	movf	??___xxtofl& (0+255),w,b
  1978  002614  1165               	iorwf	(??___xxtofl+1)& (0+255),w,b
  1979  002616  1166               	iorwf	(??___xxtofl+2)& (0+255),w,b
  1980  002618  1167               	iorwf	(??___xxtofl+3)& (0+255),w,b
  1981  00261A  A4D8               	btfss	status,2,c
  1982  00261C  EF12  F013         	goto	u3991
  1983  002620  EF14  F013         	goto	u3990
  1984  002624                     u3991:
  1985  002624  EFF7  F012         	goto	l3633
  1986  002628                     u3990:
  1987  002628  EF22  F013         	goto	l1002
  1988  00262C                     l3637:
  1989                           
  1990                           ; BSR set to: 0
  1991  00262C  2B69               	incf	___xxtofl@exp& (0+255),f,b
  1992  00262E                     
  1993                           ; BSR set to: 0
  1994  00262E  0E01               	movlw	1
  1995  002630  276A               	addwf	___xxtofl@arg& (0+255),f,b
  1996  002632  0E00               	movlw	0
  1997  002634  236B               	addwfc	(___xxtofl@arg+1)& (0+255),f,b
  1998  002636  236C               	addwfc	(___xxtofl@arg+2)& (0+255),f,b
  1999  002638  236D               	addwfc	(___xxtofl@arg+3)& (0+255),f,b
  2000  00263A                     
  2001                           ; BSR set to: 0
  2002  00263A  90D8               	bcf	status,0,c
  2003  00263C  336D               	rrcf	(___xxtofl@arg+3)& (0+255),f,b
  2004  00263E  336C               	rrcf	(___xxtofl@arg+2)& (0+255),f,b
  2005  002640  336B               	rrcf	(___xxtofl@arg+1)& (0+255),f,b
  2006  002642  336A               	rrcf	___xxtofl@arg& (0+255),f,b
  2007  002644                     l1002:
  2008                           
  2009                           ; BSR set to: 0
  2010  002644  0E00               	movlw	0
  2011  002646  156A               	andwf	___xxtofl@arg& (0+255),w,b
  2012  002648  6F64               	movwf	??___xxtofl& (0+255),b
  2013  00264A  0E00               	movlw	0
  2014  00264C  156B               	andwf	(___xxtofl@arg+1)& (0+255),w,b
  2015  00264E  6F65               	movwf	(??___xxtofl+1)& (0+255),b
  2016  002650  0E00               	movlw	0
  2017  002652  156C               	andwf	(___xxtofl@arg+2)& (0+255),w,b
  2018  002654  6F66               	movwf	(??___xxtofl+2)& (0+255),b
  2019  002656  0EFF               	movlw	255
  2020  002658  156D               	andwf	(___xxtofl@arg+3)& (0+255),w,b
  2021  00265A  6F67               	movwf	(??___xxtofl+3)& (0+255),b
  2022  00265C  5164               	movf	??___xxtofl& (0+255),w,b
  2023  00265E  1165               	iorwf	(??___xxtofl+1)& (0+255),w,b
  2024  002660  1166               	iorwf	(??___xxtofl+2)& (0+255),w,b
  2025  002662  1167               	iorwf	(??___xxtofl+3)& (0+255),w,b
  2026  002664  A4D8               	btfss	status,2,c
  2027  002666  EF37  F013         	goto	u4001
  2028  00266A  EF39  F013         	goto	u4000
  2029  00266E                     u4001:
  2030  00266E  EF16  F013         	goto	l3637
  2031  002672                     u4000:
  2032  002672  EF41  F013         	goto	l3645
  2033  002676                     l3643:
  2034                           
  2035                           ; BSR set to: 0
  2036  002676  0769               	decf	___xxtofl@exp& (0+255),f,b
  2037  002678  90D8               	bcf	status,0,c
  2038  00267A  376A               	rlcf	___xxtofl@arg& (0+255),f,b
  2039  00267C  376B               	rlcf	(___xxtofl@arg+1)& (0+255),f,b
  2040  00267E  376C               	rlcf	(___xxtofl@arg+2)& (0+255),f,b
  2041  002680  376D               	rlcf	(___xxtofl@arg+3)& (0+255),f,b
  2042  002682                     l3645:
  2043                           
  2044                           ; BSR set to: 0
  2045  002682  BF6C               	btfsc	(___xxtofl@arg+2)& (0+255),7,b
  2046  002684  EF46  F013         	goto	u4011
  2047  002688  EF48  F013         	goto	u4010
  2048  00268C                     u4011:
  2049  00268C  EF50  F013         	goto	l1009
  2050  002690                     u4010:
  2051  002690                     
  2052                           ; BSR set to: 0
  2053  002690  0E02               	movlw	2
  2054  002692  6169               	cpfslt	___xxtofl@exp& (0+255),b
  2055  002694  EF4E  F013         	goto	u4021
  2056  002698  EF50  F013         	goto	u4020
  2057  00269C                     u4021:
  2058  00269C  EF3B  F013         	goto	l3643
  2059  0026A0                     u4020:
  2060  0026A0                     l1009:
  2061                           
  2062                           ; BSR set to: 0
  2063  0026A0  B169               	btfsc	___xxtofl@exp& (0+255),0,b
  2064  0026A2  EF55  F013         	goto	u4031
  2065  0026A6  EF57  F013         	goto	u4030
  2066  0026AA                     u4031:
  2067  0026AA  EF58  F013         	goto	l3651
  2068  0026AE                     u4030:
  2069  0026AE                     
  2070                           ; BSR set to: 0
  2071  0026AE  9F6C               	bcf	(___xxtofl@arg+2)& (0+255),7,b
  2072  0026B0                     l3651:
  2073                           
  2074                           ; BSR set to: 0
  2075  0026B0  90D8               	bcf	status,0,c
  2076  0026B2  3369               	rrcf	___xxtofl@exp& (0+255),f,b
  2077  0026B4                     
  2078                           ; BSR set to: 0
  2079  0026B4  C069  F064         	movff	___xxtofl@exp,??___xxtofl
  2080  0026B8  6B65               	clrf	(??___xxtofl+1)& (0+255),b
  2081  0026BA  6B66               	clrf	(??___xxtofl+2)& (0+255),b
  2082  0026BC  6B67               	clrf	(??___xxtofl+3)& (0+255),b
  2083  0026BE  C064  F067         	movff	??___xxtofl,??___xxtofl+3
  2084  0026C2  6B66               	clrf	(??___xxtofl+2)& (0+255),b
  2085  0026C4  6B65               	clrf	(??___xxtofl+1)& (0+255),b
  2086  0026C6  6B64               	clrf	??___xxtofl& (0+255),b
  2087  0026C8  5164               	movf	??___xxtofl& (0+255),w,b
  2088  0026CA  136A               	iorwf	___xxtofl@arg& (0+255),f,b
  2089  0026CC  5165               	movf	(??___xxtofl+1)& (0+255),w,b
  2090  0026CE  136B               	iorwf	(___xxtofl@arg+1)& (0+255),f,b
  2091  0026D0  5166               	movf	(??___xxtofl+2)& (0+255),w,b
  2092  0026D2  136C               	iorwf	(___xxtofl@arg+2)& (0+255),f,b
  2093  0026D4  5167               	movf	(??___xxtofl+3)& (0+255),w,b
  2094  0026D6  136D               	iorwf	(___xxtofl@arg+3)& (0+255),f,b
  2095  0026D8                     
  2096                           ; BSR set to: 0
  2097  0026D8  5168               	movf	___xxtofl@sign& (0+255),w,b
  2098  0026DA  B4D8               	btfsc	status,2,c
  2099  0026DC  EF72  F013         	goto	u4041
  2100  0026E0  EF74  F013         	goto	u4040
  2101  0026E4                     u4041:
  2102  0026E4  EF7C  F013         	goto	l3661
  2103  0026E8                     u4040:
  2104  0026E8                     
  2105                           ; BSR set to: 0
  2106  0026E8  BF63               	btfsc	(___xxtofl@val+3)& (0+255),7,b
  2107  0026EA  EF7B  F013         	goto	u4050
  2108  0026EE  EF79  F013         	goto	u4051
  2109  0026F2                     u4051:
  2110  0026F2  EF7C  F013         	goto	l3661
  2111  0026F6                     u4050:
  2112  0026F6                     
  2113                           ; BSR set to: 0
  2114  0026F6  8F6D               	bsf	(___xxtofl@arg+3)& (0+255),7,b
  2115  0026F8                     l3661:
  2116                           
  2117                           ; BSR set to: 0
  2118  0026F8  C06A  F060         	movff	___xxtofl@arg,?___xxtofl
  2119  0026FC  C06B  F061         	movff	___xxtofl@arg+1,?___xxtofl+1
  2120  002700  C06C  F062         	movff	___xxtofl@arg+2,?___xxtofl+2
  2121  002704  C06D  F063         	movff	___xxtofl@arg+3,?___xxtofl+3
  2122  002708                     l998:
  2123                           
  2124                           ; BSR set to: 0
  2125  002708  0012               	return		;funcret
  2126  00270A                     __end_of___xxtofl:
  2127                           	callstack 0
  2128                           
  2129 ;; *************** function ___fltol *****************
  2130 ;; Defined at:
  2131 ;;		line 43 in file "C:\Program Files\Microchip\xc8\v2.36\pic\sources\c99\common\fltol.c"
  2132 ;; Parameters:    Size  Location     Type
  2133 ;;  f1              4    0[BANK0 ] unsigned char 
  2134 ;; Auto vars:     Size  Location     Type
  2135 ;;  exp1            1    9[BANK0 ] unsigned char 
  2136 ;;  sign1           1    8[BANK0 ] unsigned char 
  2137 ;; Return value:  Size  Location     Type
  2138 ;;                  4    0[BANK0 ] long 
  2139 ;; Registers used:
  2140 ;;		wreg, status,2, status,0
  2141 ;; Tracked objects:
  2142 ;;		On entry : 0/0
  2143 ;;		On exit  : 0/0
  2144 ;;		Unchanged: 0/0
  2145 ;; Data sizes:     COMRAM   BANK0   BANK1   BANK2   BANK3   BANK4   BANK5   BANK6   BANK7
  2146 ;;      Params:         0       4       0       0       0       0       0       0       0
  2147 ;;      Locals:         0       2       0       0       0       0       0       0       0
  2148 ;;      Temps:          0       4       0       0       0       0       0       0       0
  2149 ;;      Totals:         0      10       0       0       0       0       0       0       0
  2150 ;;Total ram usage:       10 bytes
  2151 ;; Hardware stack levels used: 1
  2152 ;; Hardware stack levels required when called: 4
  2153 ;; This function calls:
  2154 ;;		Nothing
  2155 ;; This function is called by:
  2156 ;;		_aceleracion
  2157 ;;		_desaceleracion
  2158 ;; This function uses a non-reentrant model
  2159 ;;
  2160                           
  2161                           	psect	text6
  2162  002A38                     __ptext6:
  2163                           	callstack 0
  2164  002A38                     ___fltol:
  2165                           	callstack 25
  2166  002A38  0100               	movlb	0	; () banked
  2167  002A3A  3562               	rlcf	(___fltol@f1+2)& (0+255),w,b
  2168  002A3C  3563               	rlcf	(___fltol@f1+3)& (0+255),w,b
  2169  002A3E  6F69               	movwf	___fltol@exp1& (0+255),b
  2170  002A40  5169               	movf	___fltol@exp1& (0+255),w,b
  2171  002A42  A4D8               	btfss	status,2,c
  2172  002A44  EF26  F015         	goto	u3891
  2173  002A48  EF28  F015         	goto	u3890
  2174  002A4C                     u3891:
  2175  002A4C  EF32  F015         	goto	l3581
  2176  002A50                     u3890:
  2177  002A50                     l3577:
  2178                           
  2179                           ; BSR set to: 0
  2180  002A50  0E00               	movlw	0
  2181  002A52  6F60               	movwf	?___fltol& (0+255),b
  2182  002A54  0E00               	movlw	0
  2183  002A56  6F61               	movwf	(?___fltol+1)& (0+255),b
  2184  002A58  0E00               	movlw	0
  2185  002A5A  6F62               	movwf	(?___fltol+2)& (0+255),b
  2186  002A5C  0E00               	movlw	0
  2187  002A5E  6F63               	movwf	(?___fltol+3)& (0+255),b
  2188  002A60  EF9F  F015         	goto	l637
  2189  002A64                     l3581:
  2190                           
  2191                           ; BSR set to: 0
  2192  002A64  C060  F064         	movff	___fltol@f1,??___fltol
  2193  002A68  C061  F065         	movff	___fltol@f1+1,??___fltol+1
  2194  002A6C  C062  F066         	movff	___fltol@f1+2,??___fltol+2
  2195  002A70  C063  F067         	movff	___fltol@f1+3,??___fltol+3
  2196  002A74  0E20               	movlw	32
  2197  002A76  EF42  F015         	goto	u3900
  2198  002A7A                     u3905:
  2199  002A7A  90D8               	bcf	status,0,c
  2200  002A7C  3367               	rrcf	(??___fltol+3)& (0+255),f,b
  2201  002A7E  3366               	rrcf	(??___fltol+2)& (0+255),f,b
  2202  002A80  3365               	rrcf	(??___fltol+1)& (0+255),f,b
  2203  002A82  3364               	rrcf	??___fltol& (0+255),f,b
  2204  002A84                     u3900:
  2205  002A84  2EE8               	decfsz	wreg,f,c
  2206  002A86  EF3D  F015         	goto	u3905
  2207  002A8A  5164               	movf	??___fltol& (0+255),w,b
  2208  002A8C  6F68               	movwf	___fltol@sign1& (0+255),b
  2209  002A8E                     
  2210                           ; BSR set to: 0
  2211  002A8E  8F62               	bsf	(___fltol@f1+2)& (0+255),7,b
  2212  002A90                     
  2213                           ; BSR set to: 0
  2214  002A90  0EFF               	movlw	255
  2215  002A92  1760               	andwf	___fltol@f1& (0+255),f,b
  2216  002A94  0EFF               	movlw	255
  2217  002A96  1761               	andwf	(___fltol@f1+1)& (0+255),f,b
  2218  002A98  0EFF               	movlw	255
  2219  002A9A  1762               	andwf	(___fltol@f1+2)& (0+255),f,b
  2220  002A9C  0E00               	movlw	0
  2221  002A9E  1763               	andwf	(___fltol@f1+3)& (0+255),f,b
  2222  002AA0                     
  2223                           ; BSR set to: 0
  2224  002AA0  0E96               	movlw	150
  2225  002AA2  5F69               	subwf	___fltol@exp1& (0+255),f,b
  2226  002AA4                     
  2227                           ; BSR set to: 0
  2228  002AA4  BF69               	btfsc	___fltol@exp1& (0+255),7,b
  2229  002AA6  EF59  F015         	goto	u3910
  2230  002AAA  EF57  F015         	goto	u3911
  2231  002AAE                     u3911:
  2232  002AAE  EF6F  F015         	goto	l3601
  2233  002AB2                     u3910:
  2234  002AB2                     
  2235                           ; BSR set to: 0
  2236  002AB2  5169               	movf	___fltol@exp1& (0+255),w,b
  2237  002AB4  0A80               	xorlw	128
  2238  002AB6  0F97               	addlw	151
  2239  002AB8  B0D8               	btfsc	status,0,c
  2240  002ABA  EF61  F015         	goto	u3921
  2241  002ABE  EF63  F015         	goto	u3920
  2242  002AC2                     u3921:
  2243  002AC2  EF65  F015         	goto	l3597
  2244  002AC6                     u3920:
  2245  002AC6  EF28  F015         	goto	l3577
  2246  002ACA                     l3597:
  2247                           
  2248                           ; BSR set to: 0
  2249  002ACA  90D8               	bcf	status,0,c
  2250  002ACC  3363               	rrcf	(___fltol@f1+3)& (0+255),f,b
  2251  002ACE  3362               	rrcf	(___fltol@f1+2)& (0+255),f,b
  2252  002AD0  3361               	rrcf	(___fltol@f1+1)& (0+255),f,b
  2253  002AD2  3360               	rrcf	___fltol@f1& (0+255),f,b
  2254  002AD4                     
  2255                           ; BSR set to: 0
  2256  002AD4  3F69               	incfsz	___fltol@exp1& (0+255),f,b
  2257  002AD6  EF65  F015         	goto	l3597
  2258  002ADA  EF87  F015         	goto	l3611
  2259  002ADE                     l3601:
  2260                           
  2261                           ; BSR set to: 0
  2262  002ADE  0E1F               	movlw	31
  2263  002AE0  6569               	cpfsgt	___fltol@exp1& (0+255),b
  2264  002AE2  EF75  F015         	goto	u3931
  2265  002AE6  EF77  F015         	goto	u3930
  2266  002AEA                     u3931:
  2267  002AEA  EF7F  F015         	goto	l3609
  2268  002AEE                     u3930:
  2269  002AEE  EF28  F015         	goto	l3577
  2270  002AF2                     l3607:
  2271                           
  2272                           ; BSR set to: 0
  2273  002AF2  90D8               	bcf	status,0,c
  2274  002AF4  3760               	rlcf	___fltol@f1& (0+255),f,b
  2275  002AF6  3761               	rlcf	(___fltol@f1+1)& (0+255),f,b
  2276  002AF8  3762               	rlcf	(___fltol@f1+2)& (0+255),f,b
  2277  002AFA  3763               	rlcf	(___fltol@f1+3)& (0+255),f,b
  2278  002AFC  0769               	decf	___fltol@exp1& (0+255),f,b
  2279  002AFE                     l3609:
  2280                           
  2281                           ; BSR set to: 0
  2282  002AFE  5169               	movf	___fltol@exp1& (0+255),w,b
  2283  002B00  A4D8               	btfss	status,2,c
  2284  002B02  EF85  F015         	goto	u3941
  2285  002B06  EF87  F015         	goto	u3940
  2286  002B0A                     u3941:
  2287  002B0A  EF79  F015         	goto	l3607
  2288  002B0E                     u3940:
  2289  002B0E                     l3611:
  2290                           
  2291                           ; BSR set to: 0
  2292  002B0E  5168               	movf	___fltol@sign1& (0+255),w,b
  2293  002B10  B4D8               	btfsc	status,2,c
  2294  002B12  EF8D  F015         	goto	u3951
  2295  002B16  EF8F  F015         	goto	u3950
  2296  002B1A                     u3951:
  2297  002B1A  EF97  F015         	goto	l3615
  2298  002B1E                     u3950:
  2299  002B1E                     
  2300                           ; BSR set to: 0
  2301  002B1E  1F63               	comf	(___fltol@f1+3)& (0+255),f,b
  2302  002B20  1F62               	comf	(___fltol@f1+2)& (0+255),f,b
  2303  002B22  1F61               	comf	(___fltol@f1+1)& (0+255),f,b
  2304  002B24  6D60               	negf	___fltol@f1& (0+255),b
  2305  002B26  0E00               	movlw	0
  2306  002B28  2361               	addwfc	(___fltol@f1+1)& (0+255),f,b
  2307  002B2A  2362               	addwfc	(___fltol@f1+2)& (0+255),f,b
  2308  002B2C  2363               	addwfc	(___fltol@f1+3)& (0+255),f,b
  2309  002B2E                     l3615:
  2310                           
  2311                           ; BSR set to: 0
  2312  002B2E  C060  F060         	movff	___fltol@f1,?___fltol
  2313  002B32  C061  F061         	movff	___fltol@f1+1,?___fltol+1
  2314  002B36  C062  F062         	movff	___fltol@f1+2,?___fltol+2
  2315  002B3A  C063  F063         	movff	___fltol@f1+3,?___fltol+3
  2316  002B3E                     l637:
  2317                           
  2318                           ; BSR set to: 0
  2319  002B3E  0012               	return		;funcret
  2320  002B40                     __end_of___fltol:
  2321                           	callstack 0
  2322                           
  2323 ;; *************** function ___flmul *****************
  2324 ;; Defined at:
  2325 ;;		line 8 in file "C:\Program Files\Microchip\xc8\v2.36\pic\sources\c99\common\sprcmul.c"
  2326 ;; Parameters:    Size  Location     Type
  2327 ;;  b               4   14[BANK0 ] long 
  2328 ;;  a               4   18[BANK0 ] long 
  2329 ;; Auto vars:     Size  Location     Type
  2330 ;;  prod            4   33[BANK0 ] struct .
  2331 ;;  grs             4   27[BANK0 ] unsigned long 
  2332 ;;  temp            2   37[BANK0 ] struct .
  2333 ;;  bexp            1   32[BANK0 ] unsigned char 
  2334 ;;  aexp            1   31[BANK0 ] unsigned char 
  2335 ;;  sign            1   26[BANK0 ] unsigned char 
  2336 ;; Return value:  Size  Location     Type
  2337 ;;                  4   14[BANK0 ] unsigned char 
  2338 ;; Registers used:
  2339 ;;		wreg, status,2, status,0, prodl, prodh
  2340 ;; Tracked objects:
  2341 ;;		On entry : 0/0
  2342 ;;		On exit  : 0/0
  2343 ;;		Unchanged: 0/0
  2344 ;; Data sizes:     COMRAM   BANK0   BANK1   BANK2   BANK3   BANK4   BANK5   BANK6   BANK7
  2345 ;;      Params:         0       8       0       0       0       0       0       0       0
  2346 ;;      Locals:         0      13       0       0       0       0       0       0       0
  2347 ;;      Temps:          0       4       0       0       0       0       0       0       0
  2348 ;;      Totals:         0      25       0       0       0       0       0       0       0
  2349 ;;Total ram usage:       25 bytes
  2350 ;; Hardware stack levels used: 1
  2351 ;; Hardware stack levels required when called: 4
  2352 ;; This function calls:
  2353 ;;		Nothing
  2354 ;; This function is called by:
  2355 ;;		_aceleracion
  2356 ;;		_desaceleracion
  2357 ;; This function uses a non-reentrant model
  2358 ;;
  2359                           
  2360                           	psect	text7
  2361  000994                     __ptext7:
  2362                           	callstack 0
  2363  000994                     ___flmul:
  2364                           	callstack 25
  2365  000994  0100               	movlb	0	; () banked
  2366  000996  5171               	movf	(___flmul@b+3)& (0+255),w,b
  2367  000998  0B80               	andlw	128
  2368  00099A  6F7A               	movwf	___flmul@sign& (0+255),b
  2369  00099C  5171               	movf	(___flmul@b+3)& (0+255),w,b
  2370  00099E  2571               	addwf	(___flmul@b+3)& (0+255),w,b
  2371  0009A0  6F80               	movwf	___flmul@bexp& (0+255),b
  2372  0009A2                     
  2373                           ; BSR set to: 0
  2374  0009A2  AF70               	btfss	(___flmul@b+2)& (0+255),7,b
  2375  0009A4  EFD6  F004         	goto	u3651
  2376  0009A8  EFD8  F004         	goto	u3650
  2377  0009AC                     u3651:
  2378  0009AC  EFD9  F004         	goto	l3423
  2379  0009B0                     u3650:
  2380  0009B0                     
  2381                           ; BSR set to: 0
  2382  0009B0  8180               	bsf	___flmul@bexp& (0+255),0,b
  2383  0009B2                     l3423:
  2384                           
  2385                           ; BSR set to: 0
  2386  0009B2  5180               	movf	___flmul@bexp& (0+255),w,b
  2387  0009B4  B4D8               	btfsc	status,2,c
  2388  0009B6  EFDF  F004         	goto	u3661
  2389  0009BA  EFE1  F004         	goto	u3660
  2390  0009BE                     u3661:
  2391  0009BE  EFF4  F004         	goto	l3431
  2392  0009C2                     u3660:
  2393  0009C2                     
  2394                           ; BSR set to: 0
  2395  0009C2  2980               	incf	___flmul@bexp& (0+255),w,b
  2396  0009C4  A4D8               	btfss	status,2,c
  2397  0009C6  EFE7  F004         	goto	u3671
  2398  0009CA  EFE9  F004         	goto	u3670
  2399  0009CE                     u3671:
  2400  0009CE  EFF1  F004         	goto	l3429
  2401  0009D2                     u3670:
  2402  0009D2                     
  2403                           ; BSR set to: 0
  2404  0009D2  0E00               	movlw	0
  2405  0009D4  6F6E               	movwf	___flmul@b& (0+255),b
  2406  0009D6  0E00               	movlw	0
  2407  0009D8  6F6F               	movwf	(___flmul@b+1)& (0+255),b
  2408  0009DA  0E00               	movlw	0
  2409  0009DC  6F70               	movwf	(___flmul@b+2)& (0+255),b
  2410  0009DE  0E00               	movlw	0
  2411  0009E0  6F71               	movwf	(___flmul@b+3)& (0+255),b
  2412  0009E2                     l3429:
  2413                           
  2414                           ; BSR set to: 0
  2415  0009E2  8F70               	bsf	(___flmul@b+2)& (0+255),7,b
  2416  0009E4  EFFC  F004         	goto	l3433
  2417  0009E8                     l3431:
  2418                           
  2419                           ; BSR set to: 0
  2420  0009E8  0E00               	movlw	0
  2421  0009EA  6F6E               	movwf	___flmul@b& (0+255),b
  2422  0009EC  0E00               	movlw	0
  2423  0009EE  6F6F               	movwf	(___flmul@b+1)& (0+255),b
  2424  0009F0  0E00               	movlw	0
  2425  0009F2  6F70               	movwf	(___flmul@b+2)& (0+255),b
  2426  0009F4  0E00               	movlw	0
  2427  0009F6  6F71               	movwf	(___flmul@b+3)& (0+255),b
  2428  0009F8                     l3433:
  2429                           
  2430                           ; BSR set to: 0
  2431  0009F8  5175               	movf	(___flmul@a+3)& (0+255),w,b
  2432  0009FA  0B80               	andlw	128
  2433  0009FC  1B7A               	xorwf	___flmul@sign& (0+255),f,b
  2434  0009FE                     
  2435                           ; BSR set to: 0
  2436  0009FE  5175               	movf	(___flmul@a+3)& (0+255),w,b
  2437  000A00  2575               	addwf	(___flmul@a+3)& (0+255),w,b
  2438  000A02  6F7F               	movwf	___flmul@aexp& (0+255),b
  2439  000A04                     
  2440                           ; BSR set to: 0
  2441  000A04  AF74               	btfss	(___flmul@a+2)& (0+255),7,b
  2442  000A06  EF07  F005         	goto	u3681
  2443  000A0A  EF09  F005         	goto	u3680
  2444  000A0E                     u3681:
  2445  000A0E  EF0A  F005         	goto	l3441
  2446  000A12                     u3680:
  2447  000A12                     
  2448                           ; BSR set to: 0
  2449  000A12  817F               	bsf	___flmul@aexp& (0+255),0,b
  2450  000A14                     l3441:
  2451                           
  2452                           ; BSR set to: 0
  2453  000A14  517F               	movf	___flmul@aexp& (0+255),w,b
  2454  000A16  B4D8               	btfsc	status,2,c
  2455  000A18  EF10  F005         	goto	u3691
  2456  000A1C  EF12  F005         	goto	u3690
  2457  000A20                     u3691:
  2458  000A20  EF25  F005         	goto	l3449
  2459  000A24                     u3690:
  2460  000A24                     
  2461                           ; BSR set to: 0
  2462  000A24  297F               	incf	___flmul@aexp& (0+255),w,b
  2463  000A26  A4D8               	btfss	status,2,c
  2464  000A28  EF18  F005         	goto	u3701
  2465  000A2C  EF1A  F005         	goto	u3700
  2466  000A30                     u3701:
  2467  000A30  EF22  F005         	goto	l3447
  2468  000A34                     u3700:
  2469  000A34                     
  2470                           ; BSR set to: 0
  2471  000A34  0E00               	movlw	0
  2472  000A36  6F72               	movwf	___flmul@a& (0+255),b
  2473  000A38  0E00               	movlw	0
  2474  000A3A  6F73               	movwf	(___flmul@a+1)& (0+255),b
  2475  000A3C  0E00               	movlw	0
  2476  000A3E  6F74               	movwf	(___flmul@a+2)& (0+255),b
  2477  000A40  0E00               	movlw	0
  2478  000A42  6F75               	movwf	(___flmul@a+3)& (0+255),b
  2479  000A44                     l3447:
  2480                           
  2481                           ; BSR set to: 0
  2482  000A44  8F74               	bsf	(___flmul@a+2)& (0+255),7,b
  2483  000A46  EF2D  F005         	goto	l954
  2484  000A4A                     l3449:
  2485                           
  2486                           ; BSR set to: 0
  2487  000A4A  0E00               	movlw	0
  2488  000A4C  6F72               	movwf	___flmul@a& (0+255),b
  2489  000A4E  0E00               	movlw	0
  2490  000A50  6F73               	movwf	(___flmul@a+1)& (0+255),b
  2491  000A52  0E00               	movlw	0
  2492  000A54  6F74               	movwf	(___flmul@a+2)& (0+255),b
  2493  000A56  0E00               	movlw	0
  2494  000A58  6F75               	movwf	(___flmul@a+3)& (0+255),b
  2495  000A5A                     l954:
  2496                           
  2497                           ; BSR set to: 0
  2498  000A5A  517F               	movf	___flmul@aexp& (0+255),w,b
  2499  000A5C  B4D8               	btfsc	status,2,c
  2500  000A5E  EF33  F005         	goto	u3711
  2501  000A62  EF35  F005         	goto	u3710
  2502  000A66                     u3711:
  2503  000A66  EF3D  F005         	goto	l3453
  2504  000A6A                     u3710:
  2505  000A6A                     
  2506                           ; BSR set to: 0
  2507  000A6A  5180               	movf	___flmul@bexp& (0+255),w,b
  2508  000A6C  A4D8               	btfss	status,2,c
  2509  000A6E  EF3B  F005         	goto	u3721
  2510  000A72  EF3D  F005         	goto	u3720
  2511  000A76                     u3721:
  2512  000A76  EF47  F005         	goto	l3457
  2513  000A7A                     u3720:
  2514  000A7A                     l3453:
  2515                           
  2516                           ; BSR set to: 0
  2517  000A7A  0E00               	movlw	0
  2518  000A7C  6F6E               	movwf	?___flmul& (0+255),b
  2519  000A7E  0E00               	movlw	0
  2520  000A80  6F6F               	movwf	(?___flmul+1)& (0+255),b
  2521  000A82  0E00               	movlw	0
  2522  000A84  6F70               	movwf	(?___flmul+2)& (0+255),b
  2523  000A86  0E00               	movlw	0
  2524  000A88  6F71               	movwf	(?___flmul+3)& (0+255),b
  2525  000A8A  EFDF  F006         	goto	l958
  2526  000A8E                     l3457:
  2527                           
  2528                           ; BSR set to: 0
  2529  000A8E  5174               	movf	(___flmul@a+2)& (0+255),w,b
  2530  000A90  036E               	mulwf	___flmul@b& (0+255),b
  2531  000A92  CFF3 F085          	movff	prodl,___flmul@temp
  2532  000A96  CFF4 F086          	movff	prodh,___flmul@temp+1
  2533  000A9A                     
  2534                           ; BSR set to: 0
  2535  000A9A  5185               	movf	___flmul@temp& (0+255),w,b
  2536  000A9C  6F7B               	movwf	___flmul@grs& (0+255),b
  2537  000A9E  6B7C               	clrf	(___flmul@grs+1)& (0+255),b
  2538  000AA0  6B7D               	clrf	(___flmul@grs+2)& (0+255),b
  2539  000AA2  6B7E               	clrf	(___flmul@grs+3)& (0+255),b
  2540  000AA4                     
  2541                           ; BSR set to: 0
  2542  000AA4  5186               	movf	(___flmul@temp+1)& (0+255),w,b
  2543  000AA6  6F81               	movwf	___flmul@prod& (0+255),b
  2544  000AA8  6B82               	clrf	(___flmul@prod+1)& (0+255),b
  2545  000AAA  6B83               	clrf	(___flmul@prod+2)& (0+255),b
  2546  000AAC  6B84               	clrf	(___flmul@prod+3)& (0+255),b
  2547  000AAE  5173               	movf	(___flmul@a+1)& (0+255),w,b
  2548  000AB0  036F               	mulwf	(___flmul@b+1)& (0+255),b
  2549  000AB2  CFF3 F085          	movff	prodl,___flmul@temp
  2550  000AB6  CFF4 F086          	movff	prodh,___flmul@temp+1
  2551  000ABA                     
  2552                           ; BSR set to: 0
  2553  000ABA  5185               	movf	___flmul@temp& (0+255),w,b
  2554  000ABC  277B               	addwf	___flmul@grs& (0+255),f,b
  2555  000ABE  0E00               	movlw	0
  2556  000AC0  237C               	addwfc	(___flmul@grs+1)& (0+255),f,b
  2557  000AC2  237D               	addwfc	(___flmul@grs+2)& (0+255),f,b
  2558  000AC4  237E               	addwfc	(___flmul@grs+3)& (0+255),f,b
  2559  000AC6                     
  2560                           ; BSR set to: 0
  2561  000AC6  5186               	movf	(___flmul@temp+1)& (0+255),w,b
  2562  000AC8  2781               	addwf	___flmul@prod& (0+255),f,b
  2563  000ACA  0E00               	movlw	0
  2564  000ACC  2382               	addwfc	(___flmul@prod+1)& (0+255),f,b
  2565  000ACE  2383               	addwfc	(___flmul@prod+2)& (0+255),f,b
  2566  000AD0  2384               	addwfc	(___flmul@prod+3)& (0+255),f,b
  2567  000AD2  5172               	movf	___flmul@a& (0+255),w,b
  2568  000AD4  0370               	mulwf	(___flmul@b+2)& (0+255),b
  2569  000AD6  CFF3 F085          	movff	prodl,___flmul@temp
  2570  000ADA  CFF4 F086          	movff	prodh,___flmul@temp+1
  2571  000ADE                     
  2572                           ; BSR set to: 0
  2573  000ADE  5185               	movf	___flmul@temp& (0+255),w,b
  2574  000AE0  277B               	addwf	___flmul@grs& (0+255),f,b
  2575  000AE2  0E00               	movlw	0
  2576  000AE4  237C               	addwfc	(___flmul@grs+1)& (0+255),f,b
  2577  000AE6  237D               	addwfc	(___flmul@grs+2)& (0+255),f,b
  2578  000AE8  237E               	addwfc	(___flmul@grs+3)& (0+255),f,b
  2579  000AEA                     
  2580                           ; BSR set to: 0
  2581  000AEA  5186               	movf	(___flmul@temp+1)& (0+255),w,b
  2582  000AEC  2781               	addwf	___flmul@prod& (0+255),f,b
  2583  000AEE  0E00               	movlw	0
  2584  000AF0  2382               	addwfc	(___flmul@prod+1)& (0+255),f,b
  2585  000AF2  2383               	addwfc	(___flmul@prod+2)& (0+255),f,b
  2586  000AF4  2384               	addwfc	(___flmul@prod+3)& (0+255),f,b
  2587  000AF6                     
  2588                           ; BSR set to: 0
  2589  000AF6  C07D  F07E         	movff	___flmul@grs+2,___flmul@grs+3
  2590  000AFA  C07C  F07D         	movff	___flmul@grs+1,___flmul@grs+2
  2591  000AFE  C07B  F07C         	movff	___flmul@grs,___flmul@grs+1
  2592  000B02  6B7B               	clrf	___flmul@grs& (0+255),b
  2593  000B04                     
  2594                           ; BSR set to: 0
  2595  000B04  5172               	movf	___flmul@a& (0+255),w,b
  2596  000B06  036F               	mulwf	(___flmul@b+1)& (0+255),b
  2597  000B08  CFF3 F085          	movff	prodl,___flmul@temp
  2598  000B0C  CFF4 F086          	movff	prodh,___flmul@temp+1
  2599  000B10                     
  2600                           ; BSR set to: 0
  2601  000B10  5185               	movf	___flmul@temp& (0+255),w,b
  2602  000B12  277B               	addwf	___flmul@grs& (0+255),f,b
  2603  000B14  5186               	movf	(___flmul@temp+1)& (0+255),w,b
  2604  000B16  237C               	addwfc	(___flmul@grs+1)& (0+255),f,b
  2605  000B18  0E00               	movlw	0
  2606  000B1A  237D               	addwfc	(___flmul@grs+2)& (0+255),f,b
  2607  000B1C  0E00               	movlw	0
  2608  000B1E  237E               	addwfc	(___flmul@grs+3)& (0+255),f,b
  2609  000B20                     
  2610                           ; BSR set to: 0
  2611  000B20  5173               	movf	(___flmul@a+1)& (0+255),w,b
  2612  000B22  036E               	mulwf	___flmul@b& (0+255),b
  2613  000B24  CFF3 F085          	movff	prodl,___flmul@temp
  2614  000B28  CFF4 F086          	movff	prodh,___flmul@temp+1
  2615  000B2C                     
  2616                           ; BSR set to: 0
  2617  000B2C  5185               	movf	___flmul@temp& (0+255),w,b
  2618  000B2E  277B               	addwf	___flmul@grs& (0+255),f,b
  2619  000B30  5186               	movf	(___flmul@temp+1)& (0+255),w,b
  2620  000B32  237C               	addwfc	(___flmul@grs+1)& (0+255),f,b
  2621  000B34  0E00               	movlw	0
  2622  000B36  237D               	addwfc	(___flmul@grs+2)& (0+255),f,b
  2623  000B38  0E00               	movlw	0
  2624  000B3A  237E               	addwfc	(___flmul@grs+3)& (0+255),f,b
  2625  000B3C                     
  2626                           ; BSR set to: 0
  2627  000B3C  C07D  F07E         	movff	___flmul@grs+2,___flmul@grs+3
  2628  000B40  C07C  F07D         	movff	___flmul@grs+1,___flmul@grs+2
  2629  000B44  C07B  F07C         	movff	___flmul@grs,___flmul@grs+1
  2630  000B48  6B7B               	clrf	___flmul@grs& (0+255),b
  2631  000B4A  5172               	movf	___flmul@a& (0+255),w,b
  2632  000B4C  036E               	mulwf	___flmul@b& (0+255),b
  2633  000B4E  CFF3 F085          	movff	prodl,___flmul@temp
  2634  000B52  CFF4 F086          	movff	prodh,___flmul@temp+1
  2635  000B56                     
  2636                           ; BSR set to: 0
  2637  000B56  5185               	movf	___flmul@temp& (0+255),w,b
  2638  000B58  277B               	addwf	___flmul@grs& (0+255),f,b
  2639  000B5A  5186               	movf	(___flmul@temp+1)& (0+255),w,b
  2640  000B5C  237C               	addwfc	(___flmul@grs+1)& (0+255),f,b
  2641  000B5E  0E00               	movlw	0
  2642  000B60  237D               	addwfc	(___flmul@grs+2)& (0+255),f,b
  2643  000B62  0E00               	movlw	0
  2644  000B64  237E               	addwfc	(___flmul@grs+3)& (0+255),f,b
  2645  000B66                     
  2646                           ; BSR set to: 0
  2647  000B66  5174               	movf	(___flmul@a+2)& (0+255),w,b
  2648  000B68  036F               	mulwf	(___flmul@b+1)& (0+255),b
  2649  000B6A  CFF3 F085          	movff	prodl,___flmul@temp
  2650  000B6E  CFF4 F086          	movff	prodh,___flmul@temp+1
  2651  000B72  5185               	movf	___flmul@temp& (0+255),w,b
  2652  000B74  2781               	addwf	___flmul@prod& (0+255),f,b
  2653  000B76  5186               	movf	(___flmul@temp+1)& (0+255),w,b
  2654  000B78  2382               	addwfc	(___flmul@prod+1)& (0+255),f,b
  2655  000B7A  0E00               	movlw	0
  2656  000B7C  2383               	addwfc	(___flmul@prod+2)& (0+255),f,b
  2657  000B7E  0E00               	movlw	0
  2658  000B80  2384               	addwfc	(___flmul@prod+3)& (0+255),f,b
  2659  000B82                     
  2660                           ; BSR set to: 0
  2661  000B82  5173               	movf	(___flmul@a+1)& (0+255),w,b
  2662  000B84  0370               	mulwf	(___flmul@b+2)& (0+255),b
  2663  000B86  CFF3 F085          	movff	prodl,___flmul@temp
  2664  000B8A  CFF4 F086          	movff	prodh,___flmul@temp+1
  2665  000B8E                     
  2666                           ; BSR set to: 0
  2667  000B8E  5185               	movf	___flmul@temp& (0+255),w,b
  2668  000B90  2781               	addwf	___flmul@prod& (0+255),f,b
  2669  000B92  5186               	movf	(___flmul@temp+1)& (0+255),w,b
  2670  000B94  2382               	addwfc	(___flmul@prod+1)& (0+255),f,b
  2671  000B96  0E00               	movlw	0
  2672  000B98  2383               	addwfc	(___flmul@prod+2)& (0+255),f,b
  2673  000B9A  0E00               	movlw	0
  2674  000B9C  2384               	addwfc	(___flmul@prod+3)& (0+255),f,b
  2675  000B9E  5174               	movf	(___flmul@a+2)& (0+255),w,b
  2676  000BA0  0370               	mulwf	(___flmul@b+2)& (0+255),b
  2677  000BA2  CFF3 F085          	movff	prodl,___flmul@temp
  2678  000BA6  CFF4 F086          	movff	prodh,___flmul@temp+1
  2679  000BAA                     
  2680                           ; BSR set to: 0
  2681  000BAA  5185               	movf	___flmul@temp& (0+255),w,b
  2682  000BAC  6F76               	movwf	??___flmul& (0+255),b
  2683  000BAE  5186               	movf	(___flmul@temp+1)& (0+255),w,b
  2684  000BB0  6F77               	movwf	(??___flmul+1)& (0+255),b
  2685  000BB2  6B78               	clrf	(??___flmul+2)& (0+255),b
  2686  000BB4  6B79               	clrf	(??___flmul+3)& (0+255),b
  2687  000BB6  C078  F079         	movff	??___flmul+2,??___flmul+3
  2688  000BBA  C077  F078         	movff	??___flmul+1,??___flmul+2
  2689  000BBE  C076  F077         	movff	??___flmul,??___flmul+1
  2690  000BC2  6B76               	clrf	??___flmul& (0+255),b
  2691  000BC4  5176               	movf	??___flmul& (0+255),w,b
  2692  000BC6  2781               	addwf	___flmul@prod& (0+255),f,b
  2693  000BC8  5177               	movf	(??___flmul+1)& (0+255),w,b
  2694  000BCA  2382               	addwfc	(___flmul@prod+1)& (0+255),f,b
  2695  000BCC  5178               	movf	(??___flmul+2)& (0+255),w,b
  2696  000BCE  2383               	addwfc	(___flmul@prod+2)& (0+255),f,b
  2697  000BD0  5179               	movf	(??___flmul+3)& (0+255),w,b
  2698  000BD2  2384               	addwfc	(___flmul@prod+3)& (0+255),f,b
  2699  000BD4                     
  2700                           ; BSR set to: 0
  2701  000BD4  C07B  F076         	movff	___flmul@grs,??___flmul
  2702  000BD8  C07C  F077         	movff	___flmul@grs+1,??___flmul+1
  2703  000BDC  C07D  F078         	movff	___flmul@grs+2,??___flmul+2
  2704  000BE0  C07E  F079         	movff	___flmul@grs+3,??___flmul+3
  2705  000BE4  0E19               	movlw	25
  2706  000BE6  EFFA  F005         	goto	u3730
  2707  000BEA                     u3735:
  2708  000BEA  90D8               	bcf	status,0,c
  2709  000BEC  3379               	rrcf	(??___flmul+3)& (0+255),f,b
  2710  000BEE  3378               	rrcf	(??___flmul+2)& (0+255),f,b
  2711  000BF0  3377               	rrcf	(??___flmul+1)& (0+255),f,b
  2712  000BF2  3376               	rrcf	??___flmul& (0+255),f,b
  2713  000BF4                     u3730:
  2714  000BF4  2EE8               	decfsz	wreg,f,c
  2715  000BF6  EFF5  F005         	goto	u3735
  2716  000BFA  5176               	movf	??___flmul& (0+255),w,b
  2717  000BFC  2781               	addwf	___flmul@prod& (0+255),f,b
  2718  000BFE  5177               	movf	(??___flmul+1)& (0+255),w,b
  2719  000C00  2382               	addwfc	(___flmul@prod+1)& (0+255),f,b
  2720  000C02  5178               	movf	(??___flmul+2)& (0+255),w,b
  2721  000C04  2383               	addwfc	(___flmul@prod+2)& (0+255),f,b
  2722  000C06  5179               	movf	(??___flmul+3)& (0+255),w,b
  2723  000C08  2384               	addwfc	(___flmul@prod+3)& (0+255),f,b
  2724  000C0A                     
  2725                           ; BSR set to: 0
  2726  000C0A  C07D  F07E         	movff	___flmul@grs+2,___flmul@grs+3
  2727  000C0E  C07C  F07D         	movff	___flmul@grs+1,___flmul@grs+2
  2728  000C12  C07B  F07C         	movff	___flmul@grs,___flmul@grs+1
  2729  000C16  6B7B               	clrf	___flmul@grs& (0+255),b
  2730  000C18                     
  2731                           ; BSR set to: 0
  2732  000C18  517F               	movf	___flmul@aexp& (0+255),w,b
  2733  000C1A  C080  F076         	movff	___flmul@bexp,??___flmul
  2734  000C1E  6B77               	clrf	(??___flmul+1)& (0+255),b
  2735  000C20  2776               	addwf	??___flmul& (0+255),f,b
  2736  000C22  0E00               	movlw	0
  2737  000C24  2377               	addwfc	(??___flmul+1)& (0+255),f,b
  2738  000C26  0E82               	movlw	130
  2739  000C28  2576               	addwf	??___flmul& (0+255),w,b
  2740  000C2A  6F85               	movwf	___flmul@temp& (0+255),b
  2741  000C2C  0EFF               	movlw	255
  2742  000C2E  2177               	addwfc	(??___flmul+1)& (0+255),w,b
  2743  000C30  6F86               	movwf	(___flmul@temp+1)& (0+255),b
  2744  000C32  EF30  F006         	goto	l3505
  2745  000C36                     l3499:
  2746                           
  2747                           ; BSR set to: 0
  2748  000C36  90D8               	bcf	status,0,c
  2749  000C38  3781               	rlcf	___flmul@prod& (0+255),f,b
  2750  000C3A  3782               	rlcf	(___flmul@prod+1)& (0+255),f,b
  2751  000C3C  3783               	rlcf	(___flmul@prod+2)& (0+255),f,b
  2752  000C3E  3784               	rlcf	(___flmul@prod+3)& (0+255),f,b
  2753  000C40                     
  2754                           ; BSR set to: 0
  2755  000C40  AF7E               	btfss	(___flmul@grs+3)& (0+255),7,b
  2756  000C42  EF25  F006         	goto	u3741
  2757  000C46  EF27  F006         	goto	u3740
  2758  000C4A                     u3741:
  2759  000C4A  EF28  F006         	goto	l961
  2760  000C4E                     u3740:
  2761  000C4E                     
  2762                           ; BSR set to: 0
  2763  000C4E  8181               	bsf	___flmul@prod& (0+255),0,b
  2764  000C50                     l961:
  2765                           
  2766                           ; BSR set to: 0
  2767  000C50  90D8               	bcf	status,0,c
  2768  000C52  377B               	rlcf	___flmul@grs& (0+255),f,b
  2769  000C54  377C               	rlcf	(___flmul@grs+1)& (0+255),f,b
  2770  000C56  377D               	rlcf	(___flmul@grs+2)& (0+255),f,b
  2771  000C58  377E               	rlcf	(___flmul@grs+3)& (0+255),f,b
  2772  000C5A  0785               	decf	___flmul@temp& (0+255),f,b
  2773  000C5C  A0D8               	btfss	status,0,c
  2774  000C5E  0786               	decf	(___flmul@temp+1)& (0+255),f,b
  2775  000C60                     l3505:
  2776                           
  2777                           ; BSR set to: 0
  2778  000C60  AF83               	btfss	(___flmul@prod+2)& (0+255),7,b
  2779  000C62  EF35  F006         	goto	u3751
  2780  000C66  EF37  F006         	goto	u3750
  2781  000C6A                     u3751:
  2782  000C6A  EF1B  F006         	goto	l3499
  2783  000C6E                     u3750:
  2784  000C6E                     
  2785                           ; BSR set to: 0
  2786  000C6E  0E00               	movlw	0
  2787  000C70  6F7F               	movwf	___flmul@aexp& (0+255),b
  2788  000C72                     
  2789                           ; BSR set to: 0
  2790  000C72  AF7E               	btfss	(___flmul@grs+3)& (0+255),7,b
  2791  000C74  EF3E  F006         	goto	u3761
  2792  000C78  EF40  F006         	goto	u3760
  2793  000C7C                     u3761:
  2794  000C7C  EF64  F006         	goto	l963
  2795  000C80                     u3760:
  2796  000C80                     
  2797                           ; BSR set to: 0
  2798  000C80  0EFF               	movlw	255
  2799  000C82  157B               	andwf	___flmul@grs& (0+255),w,b
  2800  000C84  6F76               	movwf	??___flmul& (0+255),b
  2801  000C86  0EFF               	movlw	255
  2802  000C88  157C               	andwf	(___flmul@grs+1)& (0+255),w,b
  2803  000C8A  6F77               	movwf	(??___flmul+1)& (0+255),b
  2804  000C8C  0EFF               	movlw	255
  2805  000C8E  157D               	andwf	(___flmul@grs+2)& (0+255),w,b
  2806  000C90  6F78               	movwf	(??___flmul+2)& (0+255),b
  2807  000C92  0E7F               	movlw	127
  2808  000C94  157E               	andwf	(___flmul@grs+3)& (0+255),w,b
  2809  000C96  6F79               	movwf	(??___flmul+3)& (0+255),b
  2810  000C98  5176               	movf	??___flmul& (0+255),w,b
  2811  000C9A  1177               	iorwf	(??___flmul+1)& (0+255),w,b
  2812  000C9C  1178               	iorwf	(??___flmul+2)& (0+255),w,b
  2813  000C9E  1179               	iorwf	(??___flmul+3)& (0+255),w,b
  2814  000CA0  B4D8               	btfsc	status,2,c
  2815  000CA2  EF55  F006         	goto	u3771
  2816  000CA6  EF57  F006         	goto	u3770
  2817  000CAA                     u3771:
  2818  000CAA  EF5B  F006         	goto	l964
  2819  000CAE                     u3770:
  2820  000CAE                     l3513:
  2821                           
  2822                           ; BSR set to: 0
  2823  000CAE  0E01               	movlw	1
  2824  000CB0  6F7F               	movwf	___flmul@aexp& (0+255),b
  2825  000CB2  EF64  F006         	goto	l963
  2826  000CB6                     l964:
  2827                           
  2828                           ; BSR set to: 0
  2829  000CB6  A181               	btfss	___flmul@prod& (0+255),0,b
  2830  000CB8  EF60  F006         	goto	u3781
  2831  000CBC  EF62  F006         	goto	u3780
  2832  000CC0                     u3781:
  2833  000CC0  EF64  F006         	goto	l963
  2834  000CC4                     u3780:
  2835  000CC4  EF57  F006         	goto	l3513
  2836  000CC8                     l963:
  2837                           
  2838                           ; BSR set to: 0
  2839  000CC8  517F               	movf	___flmul@aexp& (0+255),w,b
  2840  000CCA  B4D8               	btfsc	status,2,c
  2841  000CCC  EF6A  F006         	goto	u3791
  2842  000CD0  EF6C  F006         	goto	u3790
  2843  000CD4                     u3791:
  2844  000CD4  EF90  F006         	goto	l3525
  2845  000CD8                     u3790:
  2846  000CD8                     
  2847                           ; BSR set to: 0
  2848  000CD8  0E01               	movlw	1
  2849  000CDA  2781               	addwf	___flmul@prod& (0+255),f,b
  2850  000CDC  0E00               	movlw	0
  2851  000CDE  2382               	addwfc	(___flmul@prod+1)& (0+255),f,b
  2852  000CE0  2383               	addwfc	(___flmul@prod+2)& (0+255),f,b
  2853  000CE2  2384               	addwfc	(___flmul@prod+3)& (0+255),f,b
  2854  000CE4                     
  2855                           ; BSR set to: 0
  2856  000CE4  A184               	btfss	(___flmul@prod+3)& (0+255),0,b
  2857  000CE6  EF77  F006         	goto	u3801
  2858  000CEA  EF79  F006         	goto	u3800
  2859  000CEE                     u3801:
  2860  000CEE  EF90  F006         	goto	l3525
  2861  000CF2                     u3800:
  2862  000CF2                     
  2863                           ; BSR set to: 0
  2864  000CF2  C081  F076         	movff	___flmul@prod,??___flmul
  2865  000CF6  C082  F077         	movff	___flmul@prod+1,??___flmul+1
  2866  000CFA  C083  F078         	movff	___flmul@prod+2,??___flmul+2
  2867  000CFE  C084  F079         	movff	___flmul@prod+3,??___flmul+3
  2868  000D02  3579               	rlcf	(??___flmul+3)& (0+255),w,b
  2869  000D04  3379               	rrcf	(??___flmul+3)& (0+255),f,b
  2870  000D06  3378               	rrcf	(??___flmul+2)& (0+255),f,b
  2871  000D08  3377               	rrcf	(??___flmul+1)& (0+255),f,b
  2872  000D0A  3376               	rrcf	??___flmul& (0+255),f,b
  2873  000D0C  C076  F081         	movff	??___flmul,___flmul@prod
  2874  000D10  C077  F082         	movff	??___flmul+1,___flmul@prod+1
  2875  000D14  C078  F083         	movff	??___flmul+2,___flmul@prod+2
  2876  000D18  C079  F084         	movff	??___flmul+3,___flmul@prod+3
  2877  000D1C                     
  2878                           ; BSR set to: 0
  2879  000D1C  4B85               	infsnz	___flmul@temp& (0+255),f,b
  2880  000D1E  2B86               	incf	(___flmul@temp+1)& (0+255),f,b
  2881  000D20                     l3525:
  2882                           
  2883                           ; BSR set to: 0
  2884  000D20  BF86               	btfsc	(___flmul@temp+1)& (0+255),7,b
  2885  000D22  EF9B  F006         	goto	u3811
  2886  000D26  5186               	movf	(___flmul@temp+1)& (0+255),w,b
  2887  000D28  E108               	bnz	u3810
  2888  000D2A  2985               	incf	___flmul@temp& (0+255),w,b
  2889  000D2C  A0D8               	btfss	status,0,c
  2890  000D2E  EF9B  F006         	goto	u3811
  2891  000D32  EF9D  F006         	goto	u3810
  2892  000D36                     u3811:
  2893  000D36  EFA7  F006         	goto	l3529
  2894  000D3A                     u3810:
  2895  000D3A                     
  2896                           ; BSR set to: 0
  2897  000D3A  0E00               	movlw	0
  2898  000D3C  6F81               	movwf	___flmul@prod& (0+255),b
  2899  000D3E  0E00               	movlw	0
  2900  000D40  6F82               	movwf	(___flmul@prod+1)& (0+255),b
  2901  000D42  0E80               	movlw	128
  2902  000D44  6F83               	movwf	(___flmul@prod+2)& (0+255),b
  2903  000D46  0E7F               	movlw	127
  2904  000D48  6F84               	movwf	(___flmul@prod+3)& (0+255),b
  2905  000D4A  EFD5  F006         	goto	l3541
  2906  000D4E                     l3529:
  2907                           
  2908                           ; BSR set to: 0
  2909  000D4E  BF86               	btfsc	(___flmul@temp+1)& (0+255),7,b
  2910  000D50  EFB4  F006         	goto	u3820
  2911  000D54  5186               	movf	(___flmul@temp+1)& (0+255),w,b
  2912  000D56  E106               	bnz	u3821
  2913  000D58  0585               	decf	___flmul@temp& (0+255),w,b
  2914  000D5A  B0D8               	btfsc	status,0,c
  2915  000D5C  EFB2  F006         	goto	u3821
  2916  000D60  EFB4  F006         	goto	u3820
  2917  000D64                     u3821:
  2918  000D64  EFC0  F006         	goto	l971
  2919  000D68                     u3820:
  2920  000D68                     
  2921                           ; BSR set to: 0
  2922  000D68  0E00               	movlw	0
  2923  000D6A  6F81               	movwf	___flmul@prod& (0+255),b
  2924  000D6C  0E00               	movlw	0
  2925  000D6E  6F82               	movwf	(___flmul@prod+1)& (0+255),b
  2926  000D70  0E00               	movlw	0
  2927  000D72  6F83               	movwf	(___flmul@prod+2)& (0+255),b
  2928  000D74  0E00               	movlw	0
  2929  000D76  6F84               	movwf	(___flmul@prod+3)& (0+255),b
  2930  000D78  0E00               	movlw	0
  2931  000D7A  6F7A               	movwf	___flmul@sign& (0+255),b
  2932  000D7C  EFD5  F006         	goto	l3541
  2933  000D80                     l971:
  2934                           
  2935                           ; BSR set to: 0
  2936  000D80  C085  F080         	movff	___flmul@temp,___flmul@bexp
  2937  000D84                     
  2938                           ; BSR set to: 0
  2939  000D84  0EFF               	movlw	255
  2940  000D86  1781               	andwf	___flmul@prod& (0+255),f,b
  2941  000D88  0EFF               	movlw	255
  2942  000D8A  1782               	andwf	(___flmul@prod+1)& (0+255),f,b
  2943  000D8C  0E7F               	movlw	127
  2944  000D8E  1783               	andwf	(___flmul@prod+2)& (0+255),f,b
  2945  000D90  0E00               	movlw	0
  2946  000D92  1784               	andwf	(___flmul@prod+3)& (0+255),f,b
  2947  000D94                     
  2948                           ; BSR set to: 0
  2949  000D94  A180               	btfss	___flmul@bexp& (0+255),0,b
  2950  000D96  EFCF  F006         	goto	u3831
  2951  000D9A  EFD1  F006         	goto	u3830
  2952  000D9E                     u3831:
  2953  000D9E  EFD2  F006         	goto	l3539
  2954  000DA2                     u3830:
  2955  000DA2                     
  2956                           ; BSR set to: 0
  2957  000DA2  8F83               	bsf	(___flmul@prod+2)& (0+255),7,b
  2958  000DA4                     l3539:
  2959                           
  2960                           ; BSR set to: 0
  2961  000DA4  90D8               	bcf	status,0,c
  2962  000DA6  3180               	rrcf	___flmul@bexp& (0+255),w,b
  2963  000DA8  6F84               	movwf	(___flmul@prod+3)& (0+255),b
  2964  000DAA                     l3541:
  2965                           
  2966                           ; BSR set to: 0
  2967  000DAA  517A               	movf	___flmul@sign& (0+255),w,b
  2968  000DAC  1384               	iorwf	(___flmul@prod+3)& (0+255),f,b
  2969  000DAE                     
  2970                           ; BSR set to: 0
  2971  000DAE  C081  F06E         	movff	___flmul@prod,?___flmul
  2972  000DB2  C082  F06F         	movff	___flmul@prod+1,?___flmul+1
  2973  000DB6  C083  F070         	movff	___flmul@prod+2,?___flmul+2
  2974  000DBA  C084  F071         	movff	___flmul@prod+3,?___flmul+3
  2975  000DBE                     l958:
  2976                           
  2977                           ; BSR set to: 0
  2978  000DBE  0012               	return		;funcret
  2979  000DC0                     __end_of___flmul:
  2980                           	callstack 0
  2981                           
  2982 ;; *************** function ___flge *****************
  2983 ;; Defined at:
  2984 ;;		line 4 in file "C:\Program Files\Microchip\xc8\v2.36\pic\sources\c99\common\flge.c"
  2985 ;; Parameters:    Size  Location     Type
  2986 ;;  ff1             4   14[BANK0 ] unsigned char 
  2987 ;;  ff2             4   18[BANK0 ] unsigned char 
  2988 ;; Auto vars:     Size  Location     Type
  2989 ;;		None
  2990 ;; Return value:  Size  Location     Type
  2991 ;;		None               void
  2992 ;; Registers used:
  2993 ;;		wreg, status,2, status,0
  2994 ;; Tracked objects:
  2995 ;;		On entry : 0/0
  2996 ;;		On exit  : 0/0
  2997 ;;		Unchanged: 0/0
  2998 ;; Data sizes:     COMRAM   BANK0   BANK1   BANK2   BANK3   BANK4   BANK5   BANK6   BANK7
  2999 ;;      Params:         0       8       0       0       0       0       0       0       0
  3000 ;;      Locals:         0       0       0       0       0       0       0       0       0
  3001 ;;      Temps:          0       4       0       0       0       0       0       0       0
  3002 ;;      Totals:         0      12       0       0       0       0       0       0       0
  3003 ;;Total ram usage:       12 bytes
  3004 ;; Hardware stack levels used: 1
  3005 ;; Hardware stack levels required when called: 4
  3006 ;; This function calls:
  3007 ;;		Nothing
  3008 ;; This function is called by:
  3009 ;;		_aceleracion
  3010 ;;		_desaceleracion
  3011 ;; This function uses a non-reentrant model
  3012 ;;
  3013                           
  3014                           	psect	text8
  3015  002B40                     __ptext8:
  3016                           	callstack 0
  3017  002B40                     ___flge:
  3018                           	callstack 25
  3019  002B40  0E00               	movlw	0
  3020  002B42  0100               	movlb	0	; () banked
  3021  002B44  156E               	andwf	___flge@ff1& (0+255),w,b
  3022  002B46  6F76               	movwf	??___flge& (0+255),b
  3023  002B48  0E00               	movlw	0
  3024  002B4A  156F               	andwf	(___flge@ff1+1)& (0+255),w,b
  3025  002B4C  6F77               	movwf	(??___flge+1)& (0+255),b
  3026  002B4E  0E80               	movlw	128
  3027  002B50  1570               	andwf	(___flge@ff1+2)& (0+255),w,b
  3028  002B52  6F78               	movwf	(??___flge+2)& (0+255),b
  3029  002B54  0E7F               	movlw	127
  3030  002B56  1571               	andwf	(___flge@ff1+3)& (0+255),w,b
  3031  002B58  6F79               	movwf	(??___flge+3)& (0+255),b
  3032  002B5A  5176               	movf	??___flge& (0+255),w,b
  3033  002B5C  1177               	iorwf	(??___flge+1)& (0+255),w,b
  3034  002B5E  1178               	iorwf	(??___flge+2)& (0+255),w,b
  3035  002B60  1179               	iorwf	(??___flge+3)& (0+255),w,b
  3036  002B62  A4D8               	btfss	status,2,c
  3037  002B64  EFB6  F015         	goto	u3841
  3038  002B68  EFB8  F015         	goto	u3840
  3039  002B6C                     u3841:
  3040  002B6C  EFC0  F015         	goto	l3557
  3041  002B70                     u3840:
  3042  002B70                     
  3043                           ; BSR set to: 0
  3044  002B70  0E00               	movlw	0
  3045  002B72  6F6E               	movwf	___flge@ff1& (0+255),b
  3046  002B74  0E00               	movlw	0
  3047  002B76  6F6F               	movwf	(___flge@ff1+1)& (0+255),b
  3048  002B78  0E00               	movlw	0
  3049  002B7A  6F70               	movwf	(___flge@ff1+2)& (0+255),b
  3050  002B7C  0E00               	movlw	0
  3051  002B7E  6F71               	movwf	(___flge@ff1+3)& (0+255),b
  3052  002B80                     l3557:
  3053                           
  3054                           ; BSR set to: 0
  3055  002B80  0E00               	movlw	0
  3056  002B82  1572               	andwf	___flge@ff2& (0+255),w,b
  3057  002B84  6F76               	movwf	??___flge& (0+255),b
  3058  002B86  0E00               	movlw	0
  3059  002B88  1573               	andwf	(___flge@ff2+1)& (0+255),w,b
  3060  002B8A  6F77               	movwf	(??___flge+1)& (0+255),b
  3061  002B8C  0E80               	movlw	128
  3062  002B8E  1574               	andwf	(___flge@ff2+2)& (0+255),w,b
  3063  002B90  6F78               	movwf	(??___flge+2)& (0+255),b
  3064  002B92  0E7F               	movlw	127
  3065  002B94  1575               	andwf	(___flge@ff2+3)& (0+255),w,b
  3066  002B96  6F79               	movwf	(??___flge+3)& (0+255),b
  3067  002B98  5176               	movf	??___flge& (0+255),w,b
  3068  002B9A  1177               	iorwf	(??___flge+1)& (0+255),w,b
  3069  002B9C  1178               	iorwf	(??___flge+2)& (0+255),w,b
  3070  002B9E  1179               	iorwf	(??___flge+3)& (0+255),w,b
  3071  002BA0  A4D8               	btfss	status,2,c
  3072  002BA2  EFD5  F015         	goto	u3851
  3073  002BA6  EFD7  F015         	goto	u3850
  3074  002BAA                     u3851:
  3075  002BAA  EFDF  F015         	goto	l3561
  3076  002BAE                     u3850:
  3077  002BAE                     
  3078                           ; BSR set to: 0
  3079  002BAE  0E00               	movlw	0
  3080  002BB0  6F72               	movwf	___flge@ff2& (0+255),b
  3081  002BB2  0E00               	movlw	0
  3082  002BB4  6F73               	movwf	(___flge@ff2+1)& (0+255),b
  3083  002BB6  0E00               	movlw	0
  3084  002BB8  6F74               	movwf	(___flge@ff2+2)& (0+255),b
  3085  002BBA  0E00               	movlw	0
  3086  002BBC  6F75               	movwf	(___flge@ff2+3)& (0+255),b
  3087  002BBE                     l3561:
  3088                           
  3089                           ; BSR set to: 0
  3090  002BBE  AF71               	btfss	(___flge@ff1+3)& (0+255),7,b
  3091  002BC0  EFE4  F015         	goto	u3861
  3092  002BC4  EFE6  F015         	goto	u3860
  3093  002BC8                     u3861:
  3094  002BC8  EFEF  F015         	goto	l3565
  3095  002BCC                     u3860:
  3096  002BCC                     
  3097                           ; BSR set to: 0
  3098  002BCC  6D6E               	negf	___flge@ff1& (0+255),b
  3099  002BCE  1F6F               	comf	(___flge@ff1+1)& (0+255),f,b
  3100  002BD0  B0D8               	btfsc	status,0,c
  3101  002BD2  2B6F               	incf	(___flge@ff1+1)& (0+255),f,b
  3102  002BD4  1F70               	comf	(___flge@ff1+2)& (0+255),f,b
  3103  002BD6  B0D8               	btfsc	status,0,c
  3104  002BD8  2B70               	incf	(___flge@ff1+2)& (0+255),f,b
  3105  002BDA  0E80               	movlw	128
  3106  002BDC  5771               	subfwb	(___flge@ff1+3)& (0+255),f,b
  3107  002BDE                     l3565:
  3108                           
  3109                           ; BSR set to: 0
  3110  002BDE  AF75               	btfss	(___flge@ff2+3)& (0+255),7,b
  3111  002BE0  EFF4  F015         	goto	u3871
  3112  002BE4  EFF6  F015         	goto	u3870
  3113  002BE8                     u3871:
  3114  002BE8  EFFF  F015         	goto	l605
  3115  002BEC                     u3870:
  3116  002BEC                     
  3117                           ; BSR set to: 0
  3118  002BEC  6D72               	negf	___flge@ff2& (0+255),b
  3119  002BEE  1F73               	comf	(___flge@ff2+1)& (0+255),f,b
  3120  002BF0  B0D8               	btfsc	status,0,c
  3121  002BF2  2B73               	incf	(___flge@ff2+1)& (0+255),f,b
  3122  002BF4  1F74               	comf	(___flge@ff2+2)& (0+255),f,b
  3123  002BF6  B0D8               	btfsc	status,0,c
  3124  002BF8  2B74               	incf	(___flge@ff2+2)& (0+255),f,b
  3125  002BFA  0E80               	movlw	128
  3126  002BFC  5775               	subfwb	(___flge@ff2+3)& (0+255),f,b
  3127  002BFE                     l605:
  3128                           
  3129                           ; BSR set to: 0
  3130  002BFE  0E00               	movlw	0
  3131  002C00  1B6E               	xorwf	___flge@ff1& (0+255),f,b
  3132  002C02  0E00               	movlw	0
  3133  002C04  1B6F               	xorwf	(___flge@ff1+1)& (0+255),f,b
  3134  002C06  0E00               	movlw	0
  3135  002C08  1B70               	xorwf	(___flge@ff1+2)& (0+255),f,b
  3136  002C0A  0E80               	movlw	128
  3137  002C0C  1B71               	xorwf	(___flge@ff1+3)& (0+255),f,b
  3138  002C0E  0E00               	movlw	0
  3139  002C10  1B72               	xorwf	___flge@ff2& (0+255),f,b
  3140  002C12  0E00               	movlw	0
  3141  002C14  1B73               	xorwf	(___flge@ff2+1)& (0+255),f,b
  3142  002C16  0E00               	movlw	0
  3143  002C18  1B74               	xorwf	(___flge@ff2+2)& (0+255),f,b
  3144  002C1A  0E80               	movlw	128
  3145  002C1C  1B75               	xorwf	(___flge@ff2+3)& (0+255),f,b
  3146  002C1E  5172               	movf	___flge@ff2& (0+255),w,b
  3147  002C20  5D6E               	subwf	___flge@ff1& (0+255),w,b
  3148  002C22  5173               	movf	(___flge@ff2+1)& (0+255),w,b
  3149  002C24  596F               	subwfb	(___flge@ff1+1)& (0+255),w,b
  3150  002C26  5174               	movf	(___flge@ff2+2)& (0+255),w,b
  3151  002C28  5970               	subwfb	(___flge@ff1+2)& (0+255),w,b
  3152  002C2A  5175               	movf	(___flge@ff2+3)& (0+255),w,b
  3153  002C2C  5971               	subwfb	(___flge@ff1+3)& (0+255),w,b
  3154  002C2E  B0D8               	btfsc	status,0,c
  3155  002C30  EF1C  F016         	goto	u3881
  3156  002C34  EF1E  F016         	goto	u3880
  3157  002C38                     u3881:
  3158  002C38  EF21  F016         	goto	l3571
  3159  002C3C                     u3880:
  3160  002C3C                     
  3161                           ; BSR set to: 0
  3162  002C3C  90D8               	bcf	status,0,c
  3163  002C3E  EF22  F016         	goto	l610
  3164  002C42                     l3571:
  3165                           
  3166                           ; BSR set to: 0
  3167  002C42  80D8               	bsf	status,0,c
  3168  002C44                     l610:
  3169                           
  3170                           ; BSR set to: 0
  3171  002C44  0012               	return		;funcret
  3172  002C46                     __end_of___flge:
  3173                           	callstack 0
  3174                           
  3175 ;; *************** function ___fldiv *****************
  3176 ;; Defined at:
  3177 ;;		line 11 in file "C:\Program Files\Microchip\xc8\v2.36\pic\sources\c99\common\sprcdiv.c"
  3178 ;; Parameters:    Size  Location     Type
  3179 ;;  b               4   39[BANK0 ] unsigned char 
  3180 ;;  a               4   43[BANK0 ] unsigned char 
  3181 ;; Auto vars:     Size  Location     Type
  3182 ;;  grs             4   58[BANK0 ] unsigned long 
  3183 ;;  rem             4   51[BANK0 ] unsigned long 
  3184 ;;  new_exp         2   56[BANK0 ] short 
  3185 ;;  aexp            1   63[BANK0 ] unsigned char 
  3186 ;;  bexp            1   62[BANK0 ] unsigned char 
  3187 ;;  sign            1   55[BANK0 ] unsigned char 
  3188 ;; Return value:  Size  Location     Type
  3189 ;;                  4   39[BANK0 ] unsigned char 
  3190 ;; Registers used:
  3191 ;;		wreg, status,2, status,0
  3192 ;; Tracked objects:
  3193 ;;		On entry : 0/0
  3194 ;;		On exit  : 0/0
  3195 ;;		Unchanged: 0/0
  3196 ;; Data sizes:     COMRAM   BANK0   BANK1   BANK2   BANK3   BANK4   BANK5   BANK6   BANK7
  3197 ;;      Params:         0       8       0       0       0       0       0       0       0
  3198 ;;      Locals:         0      13       0       0       0       0       0       0       0
  3199 ;;      Temps:          0       4       0       0       0       0       0       0       0
  3200 ;;      Totals:         0      25       0       0       0       0       0       0       0
  3201 ;;Total ram usage:       25 bytes
  3202 ;; Hardware stack levels used: 1
  3203 ;; Hardware stack levels required when called: 4
  3204 ;; This function calls:
  3205 ;;		Nothing
  3206 ;; This function is called by:
  3207 ;;		_aceleracion
  3208 ;;		_desaceleracion
  3209 ;; This function uses a non-reentrant model
  3210 ;;
  3211                           
  3212                           	psect	text9
  3213  00160C                     __ptext9:
  3214                           	callstack 0
  3215  00160C                     ___fldiv:
  3216                           	callstack 25
  3217  00160C  0100               	movlb	0	; () banked
  3218  00160E  518A               	movf	(___fldiv@b+3)& (0+255),w,b
  3219  001610  0B80               	andlw	128
  3220  001612  6F97               	movwf	___fldiv@sign& (0+255),b
  3221  001614  518A               	movf	(___fldiv@b+3)& (0+255),w,b
  3222  001616  258A               	addwf	(___fldiv@b+3)& (0+255),w,b
  3223  001618  6F9E               	movwf	___fldiv@bexp& (0+255),b
  3224  00161A                     
  3225                           ; BSR set to: 0
  3226  00161A  AF89               	btfss	(___fldiv@b+2)& (0+255),7,b
  3227  00161C  EF12  F00B         	goto	u3421
  3228  001620  EF14  F00B         	goto	u3420
  3229  001624                     u3421:
  3230  001624  EF15  F00B         	goto	l3285
  3231  001628                     u3420:
  3232  001628                     
  3233                           ; BSR set to: 0
  3234  001628  819E               	bsf	___fldiv@bexp& (0+255),0,b
  3235  00162A                     l3285:
  3236                           
  3237                           ; BSR set to: 0
  3238  00162A  519E               	movf	___fldiv@bexp& (0+255),w,b
  3239  00162C  B4D8               	btfsc	status,2,c
  3240  00162E  EF1B  F00B         	goto	u3431
  3241  001632  EF1D  F00B         	goto	u3430
  3242  001636                     u3431:
  3243  001636  EF32  F00B         	goto	l3295
  3244  00163A                     u3430:
  3245  00163A                     
  3246                           ; BSR set to: 0
  3247  00163A  299E               	incf	___fldiv@bexp& (0+255),w,b
  3248  00163C  A4D8               	btfss	status,2,c
  3249  00163E  EF23  F00B         	goto	u3441
  3250  001642  EF25  F00B         	goto	u3440
  3251  001646                     u3441:
  3252  001646  EF2D  F00B         	goto	l3291
  3253  00164A                     u3440:
  3254  00164A                     
  3255                           ; BSR set to: 0
  3256  00164A  0E00               	movlw	0
  3257  00164C  6F87               	movwf	___fldiv@b& (0+255),b
  3258  00164E  0E00               	movlw	0
  3259  001650  6F88               	movwf	(___fldiv@b+1)& (0+255),b
  3260  001652  0E00               	movlw	0
  3261  001654  6F89               	movwf	(___fldiv@b+2)& (0+255),b
  3262  001656  0E00               	movlw	0
  3263  001658  6F8A               	movwf	(___fldiv@b+3)& (0+255),b
  3264  00165A                     l3291:
  3265                           
  3266                           ; BSR set to: 0
  3267  00165A  8F89               	bsf	(___fldiv@b+2)& (0+255),7,b
  3268  00165C                     
  3269                           ; BSR set to: 0
  3270  00165C  0E00               	movlw	0
  3271  00165E  6F8A               	movwf	(___fldiv@b+3)& (0+255),b
  3272  001660  EF3A  F00B         	goto	l3297
  3273  001664                     l3295:
  3274                           
  3275                           ; BSR set to: 0
  3276  001664  0E00               	movlw	0
  3277  001666  6F87               	movwf	___fldiv@b& (0+255),b
  3278  001668  0E00               	movlw	0
  3279  00166A  6F88               	movwf	(___fldiv@b+1)& (0+255),b
  3280  00166C  0E00               	movlw	0
  3281  00166E  6F89               	movwf	(___fldiv@b+2)& (0+255),b
  3282  001670  0E00               	movlw	0
  3283  001672  6F8A               	movwf	(___fldiv@b+3)& (0+255),b
  3284  001674                     l3297:
  3285                           
  3286                           ; BSR set to: 0
  3287  001674  518E               	movf	(___fldiv@a+3)& (0+255),w,b
  3288  001676  0B80               	andlw	128
  3289  001678  1B97               	xorwf	___fldiv@sign& (0+255),f,b
  3290  00167A                     
  3291                           ; BSR set to: 0
  3292  00167A  518E               	movf	(___fldiv@a+3)& (0+255),w,b
  3293  00167C  258E               	addwf	(___fldiv@a+3)& (0+255),w,b
  3294  00167E  6F9F               	movwf	___fldiv@aexp& (0+255),b
  3295  001680                     
  3296                           ; BSR set to: 0
  3297  001680  AF8D               	btfss	(___fldiv@a+2)& (0+255),7,b
  3298  001682  EF45  F00B         	goto	u3451
  3299  001686  EF47  F00B         	goto	u3450
  3300  00168A                     u3451:
  3301  00168A  EF48  F00B         	goto	l3305
  3302  00168E                     u3450:
  3303  00168E                     
  3304                           ; BSR set to: 0
  3305  00168E  819F               	bsf	___fldiv@aexp& (0+255),0,b
  3306  001690                     l3305:
  3307                           
  3308                           ; BSR set to: 0
  3309  001690  519F               	movf	___fldiv@aexp& (0+255),w,b
  3310  001692  B4D8               	btfsc	status,2,c
  3311  001694  EF4E  F00B         	goto	u3461
  3312  001698  EF50  F00B         	goto	u3460
  3313  00169C                     u3461:
  3314  00169C  EF65  F00B         	goto	l3315
  3315  0016A0                     u3460:
  3316  0016A0                     
  3317                           ; BSR set to: 0
  3318  0016A0  299F               	incf	___fldiv@aexp& (0+255),w,b
  3319  0016A2  A4D8               	btfss	status,2,c
  3320  0016A4  EF56  F00B         	goto	u3471
  3321  0016A8  EF58  F00B         	goto	u3470
  3322  0016AC                     u3471:
  3323  0016AC  EF60  F00B         	goto	l3311
  3324  0016B0                     u3470:
  3325  0016B0                     
  3326                           ; BSR set to: 0
  3327  0016B0  0E00               	movlw	0
  3328  0016B2  6F8B               	movwf	___fldiv@a& (0+255),b
  3329  0016B4  0E00               	movlw	0
  3330  0016B6  6F8C               	movwf	(___fldiv@a+1)& (0+255),b
  3331  0016B8  0E00               	movlw	0
  3332  0016BA  6F8D               	movwf	(___fldiv@a+2)& (0+255),b
  3333  0016BC  0E00               	movlw	0
  3334  0016BE  6F8E               	movwf	(___fldiv@a+3)& (0+255),b
  3335  0016C0                     l3311:
  3336                           
  3337                           ; BSR set to: 0
  3338  0016C0  8F8D               	bsf	(___fldiv@a+2)& (0+255),7,b
  3339  0016C2                     
  3340                           ; BSR set to: 0
  3341  0016C2  0E00               	movlw	0
  3342  0016C4  6F8E               	movwf	(___fldiv@a+3)& (0+255),b
  3343  0016C6  EF6D  F00B         	goto	l3317
  3344  0016CA                     l3315:
  3345                           
  3346                           ; BSR set to: 0
  3347  0016CA  0E00               	movlw	0
  3348  0016CC  6F8B               	movwf	___fldiv@a& (0+255),b
  3349  0016CE  0E00               	movlw	0
  3350  0016D0  6F8C               	movwf	(___fldiv@a+1)& (0+255),b
  3351  0016D2  0E00               	movlw	0
  3352  0016D4  6F8D               	movwf	(___fldiv@a+2)& (0+255),b
  3353  0016D6  0E00               	movlw	0
  3354  0016D8  6F8E               	movwf	(___fldiv@a+3)& (0+255),b
  3355  0016DA                     l3317:
  3356                           
  3357                           ; BSR set to: 0
  3358  0016DA  518B               	movf	___fldiv@a& (0+255),w,b
  3359  0016DC  118C               	iorwf	(___fldiv@a+1)& (0+255),w,b
  3360  0016DE  118D               	iorwf	(___fldiv@a+2)& (0+255),w,b
  3361  0016E0  118E               	iorwf	(___fldiv@a+3)& (0+255),w,b
  3362  0016E2  A4D8               	btfss	status,2,c
  3363  0016E4  EF76  F00B         	goto	u3481
  3364  0016E8  EF78  F00B         	goto	u3480
  3365  0016EC                     u3481:
  3366  0016EC  EF90  F00B         	goto	l3329
  3367  0016F0                     u3480:
  3368  0016F0                     
  3369                           ; BSR set to: 0
  3370  0016F0  0E00               	movlw	0
  3371  0016F2  6F87               	movwf	___fldiv@b& (0+255),b
  3372  0016F4  0E00               	movlw	0
  3373  0016F6  6F88               	movwf	(___fldiv@b+1)& (0+255),b
  3374  0016F8  0E00               	movlw	0
  3375  0016FA  6F89               	movwf	(___fldiv@b+2)& (0+255),b
  3376  0016FC  0E00               	movlw	0
  3377  0016FE  6F8A               	movwf	(___fldiv@b+3)& (0+255),b
  3378  001700                     
  3379                           ; BSR set to: 0
  3380  001700  0E80               	movlw	128
  3381  001702  1389               	iorwf	(___fldiv@b+2)& (0+255),f,b
  3382  001704  0E7F               	movlw	127
  3383  001706  138A               	iorwf	(___fldiv@b+3)& (0+255),f,b
  3384  001708                     l3323:
  3385                           
  3386                           ; BSR set to: 0
  3387  001708  5197               	movf	___fldiv@sign& (0+255),w,b
  3388  00170A  138A               	iorwf	(___fldiv@b+3)& (0+255),f,b
  3389  00170C                     
  3390                           ; BSR set to: 0
  3391  00170C  C087  F087         	movff	___fldiv@b,?___fldiv
  3392  001710  C088  F088         	movff	___fldiv@b+1,?___fldiv+1
  3393  001714  C089  F089         	movff	___fldiv@b+2,?___fldiv+2
  3394  001718  C08A  F08A         	movff	___fldiv@b+3,?___fldiv+3
  3395  00171C  EFD3  F00C         	goto	l922
  3396  001720                     l3329:
  3397                           
  3398                           ; BSR set to: 0
  3399  001720  519E               	movf	___fldiv@bexp& (0+255),w,b
  3400  001722  A4D8               	btfss	status,2,c
  3401  001724  EF96  F00B         	goto	u3491
  3402  001728  EF98  F00B         	goto	u3490
  3403  00172C                     u3491:
  3404  00172C  EFA2  F00B         	goto	l3337
  3405  001730                     u3490:
  3406  001730                     
  3407                           ; BSR set to: 0
  3408  001730  0E00               	movlw	0
  3409  001732  6F87               	movwf	?___fldiv& (0+255),b
  3410  001734  0E00               	movlw	0
  3411  001736  6F88               	movwf	(?___fldiv+1)& (0+255),b
  3412  001738  0E00               	movlw	0
  3413  00173A  6F89               	movwf	(?___fldiv+2)& (0+255),b
  3414  00173C  0E00               	movlw	0
  3415  00173E  6F8A               	movwf	(?___fldiv+3)& (0+255),b
  3416  001740  EFD3  F00C         	goto	l922
  3417  001744                     l3337:
  3418                           
  3419                           ; BSR set to: 0
  3420  001744  519F               	movf	___fldiv@aexp& (0+255),w,b
  3421  001746  C09E  F08F         	movff	___fldiv@bexp,??___fldiv
  3422  00174A  6B90               	clrf	(??___fldiv+1)& (0+255),b
  3423  00174C  5F8F               	subwf	??___fldiv& (0+255),f,b
  3424  00174E  0E00               	movlw	0
  3425  001750  5B90               	subwfb	(??___fldiv+1)& (0+255),f,b
  3426  001752  0E7F               	movlw	127
  3427  001754  258F               	addwf	??___fldiv& (0+255),w,b
  3428  001756  6F98               	movwf	___fldiv@new_exp& (0+255),b
  3429  001758  0E00               	movlw	0
  3430  00175A  2190               	addwfc	(??___fldiv+1)& (0+255),w,b
  3431  00175C  6F99               	movwf	(___fldiv@new_exp+1)& (0+255),b
  3432  00175E                     
  3433                           ; BSR set to: 0
  3434  00175E  C087  F093         	movff	___fldiv@b,___fldiv@rem
  3435  001762  C088  F094         	movff	___fldiv@b+1,___fldiv@rem+1
  3436  001766  C089  F095         	movff	___fldiv@b+2,___fldiv@rem+2
  3437  00176A  C08A  F096         	movff	___fldiv@b+3,___fldiv@rem+3
  3438  00176E                     
  3439                           ; BSR set to: 0
  3440  00176E  0E00               	movlw	0
  3441  001770  6F87               	movwf	___fldiv@b& (0+255),b
  3442  001772  0E00               	movlw	0
  3443  001774  6F88               	movwf	(___fldiv@b+1)& (0+255),b
  3444  001776  0E00               	movlw	0
  3445  001778  6F89               	movwf	(___fldiv@b+2)& (0+255),b
  3446  00177A  0E00               	movlw	0
  3447  00177C  6F8A               	movwf	(___fldiv@b+3)& (0+255),b
  3448  00177E                     
  3449                           ; BSR set to: 0
  3450  00177E  0E00               	movlw	0
  3451  001780  6F9A               	movwf	___fldiv@grs& (0+255),b
  3452  001782  0E00               	movlw	0
  3453  001784  6F9B               	movwf	(___fldiv@grs+1)& (0+255),b
  3454  001786  0E00               	movlw	0
  3455  001788  6F9C               	movwf	(___fldiv@grs+2)& (0+255),b
  3456  00178A  0E00               	movlw	0
  3457  00178C  6F9D               	movwf	(___fldiv@grs+3)& (0+255),b
  3458  00178E                     
  3459                           ; BSR set to: 0
  3460  00178E  0E00               	movlw	0
  3461  001790  6F9F               	movwf	___fldiv@aexp& (0+255),b
  3462  001792  EF03  F00C         	goto	l924
  3463  001796                     l3347:
  3464                           
  3465                           ; BSR set to: 0
  3466  001796  519F               	movf	___fldiv@aexp& (0+255),w,b
  3467  001798  B4D8               	btfsc	status,2,c
  3468  00179A  EFD1  F00B         	goto	u3501
  3469  00179E  EFD3  F00B         	goto	u3500
  3470  0017A2                     u3501:
  3471  0017A2  EFEA  F00B         	goto	l3355
  3472  0017A6                     u3500:
  3473  0017A6                     
  3474                           ; BSR set to: 0
  3475  0017A6  90D8               	bcf	status,0,c
  3476  0017A8  3793               	rlcf	___fldiv@rem& (0+255),f,b
  3477  0017AA  3794               	rlcf	(___fldiv@rem+1)& (0+255),f,b
  3478  0017AC  3795               	rlcf	(___fldiv@rem+2)& (0+255),f,b
  3479  0017AE  3796               	rlcf	(___fldiv@rem+3)& (0+255),f,b
  3480  0017B0  90D8               	bcf	status,0,c
  3481  0017B2  3787               	rlcf	___fldiv@b& (0+255),f,b
  3482  0017B4  3788               	rlcf	(___fldiv@b+1)& (0+255),f,b
  3483  0017B6  3789               	rlcf	(___fldiv@b+2)& (0+255),f,b
  3484  0017B8  378A               	rlcf	(___fldiv@b+3)& (0+255),f,b
  3485  0017BA                     
  3486                           ; BSR set to: 0
  3487  0017BA  AF9D               	btfss	(___fldiv@grs+3)& (0+255),7,b
  3488  0017BC  EFE2  F00B         	goto	u3511
  3489  0017C0  EFE4  F00B         	goto	u3510
  3490  0017C4                     u3511:
  3491  0017C4  EFE5  F00B         	goto	l927
  3492  0017C8                     u3510:
  3493  0017C8                     
  3494                           ; BSR set to: 0
  3495  0017C8  8187               	bsf	___fldiv@b& (0+255),0,b
  3496  0017CA                     l927:
  3497                           
  3498                           ; BSR set to: 0
  3499  0017CA  90D8               	bcf	status,0,c
  3500  0017CC  379A               	rlcf	___fldiv@grs& (0+255),f,b
  3501  0017CE  379B               	rlcf	(___fldiv@grs+1)& (0+255),f,b
  3502  0017D0  379C               	rlcf	(___fldiv@grs+2)& (0+255),f,b
  3503  0017D2  379D               	rlcf	(___fldiv@grs+3)& (0+255),f,b
  3504  0017D4                     l3355:
  3505                           
  3506                           ; BSR set to: 0
  3507  0017D4  518B               	movf	___fldiv@a& (0+255),w,b
  3508  0017D6  5D93               	subwf	___fldiv@rem& (0+255),w,b
  3509  0017D8  518C               	movf	(___fldiv@a+1)& (0+255),w,b
  3510  0017DA  5994               	subwfb	(___fldiv@rem+1)& (0+255),w,b
  3511  0017DC  518D               	movf	(___fldiv@a+2)& (0+255),w,b
  3512  0017DE  5995               	subwfb	(___fldiv@rem+2)& (0+255),w,b
  3513  0017E0  518E               	movf	(___fldiv@a+3)& (0+255),w,b
  3514  0017E2  5996               	subwfb	(___fldiv@rem+3)& (0+255),w,b
  3515  0017E4  A0D8               	btfss	status,0,c
  3516  0017E6  EFF7  F00B         	goto	u3521
  3517  0017EA  EFF9  F00B         	goto	u3520
  3518  0017EE                     u3521:
  3519  0017EE  EF02  F00C         	goto	l3361
  3520  0017F2                     u3520:
  3521  0017F2                     
  3522                           ; BSR set to: 0
  3523  0017F2  8D9D               	bsf	(___fldiv@grs+3)& (0+255),6,b
  3524  0017F4                     
  3525                           ; BSR set to: 0
  3526  0017F4  518B               	movf	___fldiv@a& (0+255),w,b
  3527  0017F6  5F93               	subwf	___fldiv@rem& (0+255),f,b
  3528  0017F8  518C               	movf	(___fldiv@a+1)& (0+255),w,b
  3529  0017FA  5B94               	subwfb	(___fldiv@rem+1)& (0+255),f,b
  3530  0017FC  518D               	movf	(___fldiv@a+2)& (0+255),w,b
  3531  0017FE  5B95               	subwfb	(___fldiv@rem+2)& (0+255),f,b
  3532  001800  518E               	movf	(___fldiv@a+3)& (0+255),w,b
  3533  001802  5B96               	subwfb	(___fldiv@rem+3)& (0+255),f,b
  3534  001804                     l3361:
  3535                           
  3536                           ; BSR set to: 0
  3537  001804  2B9F               	incf	___fldiv@aexp& (0+255),f,b
  3538  001806                     l924:
  3539                           
  3540                           ; BSR set to: 0
  3541  001806  0E19               	movlw	25
  3542  001808  659F               	cpfsgt	___fldiv@aexp& (0+255),b
  3543  00180A  EF09  F00C         	goto	u3531
  3544  00180E  EF0B  F00C         	goto	u3530
  3545  001812                     u3531:
  3546  001812  EFCB  F00B         	goto	l3347
  3547  001816                     u3530:
  3548  001816                     
  3549                           ; BSR set to: 0
  3550  001816  5193               	movf	___fldiv@rem& (0+255),w,b
  3551  001818  1194               	iorwf	(___fldiv@rem+1)& (0+255),w,b
  3552  00181A  1195               	iorwf	(___fldiv@rem+2)& (0+255),w,b
  3553  00181C  1196               	iorwf	(___fldiv@rem+3)& (0+255),w,b
  3554  00181E  B4D8               	btfsc	status,2,c
  3555  001820  EF14  F00C         	goto	u3541
  3556  001824  EF16  F00C         	goto	u3540
  3557  001828                     u3541:
  3558  001828  EF2E  F00C         	goto	l3373
  3559  00182C                     u3540:
  3560  00182C                     
  3561                           ; BSR set to: 0
  3562  00182C  819A               	bsf	___fldiv@grs& (0+255),0,b
  3563  00182E  EF2E  F00C         	goto	l3373
  3564  001832                     l3367:
  3565                           
  3566                           ; BSR set to: 0
  3567  001832  90D8               	bcf	status,0,c
  3568  001834  3787               	rlcf	___fldiv@b& (0+255),f,b
  3569  001836  3788               	rlcf	(___fldiv@b+1)& (0+255),f,b
  3570  001838  3789               	rlcf	(___fldiv@b+2)& (0+255),f,b
  3571  00183A  378A               	rlcf	(___fldiv@b+3)& (0+255),f,b
  3572  00183C                     
  3573                           ; BSR set to: 0
  3574  00183C  AF9D               	btfss	(___fldiv@grs+3)& (0+255),7,b
  3575  00183E  EF23  F00C         	goto	u3551
  3576  001842  EF25  F00C         	goto	u3550
  3577  001846                     u3551:
  3578  001846  EF26  F00C         	goto	l933
  3579  00184A                     u3550:
  3580  00184A                     
  3581                           ; BSR set to: 0
  3582  00184A  8187               	bsf	___fldiv@b& (0+255),0,b
  3583  00184C                     l933:
  3584                           
  3585                           ; BSR set to: 0
  3586  00184C  90D8               	bcf	status,0,c
  3587  00184E  379A               	rlcf	___fldiv@grs& (0+255),f,b
  3588  001850  379B               	rlcf	(___fldiv@grs+1)& (0+255),f,b
  3589  001852  379C               	rlcf	(___fldiv@grs+2)& (0+255),f,b
  3590  001854  379D               	rlcf	(___fldiv@grs+3)& (0+255),f,b
  3591  001856  0798               	decf	___fldiv@new_exp& (0+255),f,b
  3592  001858  A0D8               	btfss	status,0,c
  3593  00185A  0799               	decf	(___fldiv@new_exp+1)& (0+255),f,b
  3594  00185C                     l3373:
  3595                           
  3596                           ; BSR set to: 0
  3597  00185C  AF89               	btfss	(___fldiv@b+2)& (0+255),7,b
  3598  00185E  EF33  F00C         	goto	u3561
  3599  001862  EF35  F00C         	goto	u3560
  3600  001866                     u3561:
  3601  001866  EF19  F00C         	goto	l3367
  3602  00186A                     u3560:
  3603  00186A                     
  3604                           ; BSR set to: 0
  3605  00186A  0E00               	movlw	0
  3606  00186C  6F9F               	movwf	___fldiv@aexp& (0+255),b
  3607  00186E                     
  3608                           ; BSR set to: 0
  3609  00186E  AF9D               	btfss	(___fldiv@grs+3)& (0+255),7,b
  3610  001870  EF3C  F00C         	goto	u3571
  3611  001874  EF3E  F00C         	goto	u3570
  3612  001878                     u3571:
  3613  001878  EF62  F00C         	goto	l935
  3614  00187C                     u3570:
  3615  00187C                     
  3616                           ; BSR set to: 0
  3617  00187C  0EFF               	movlw	255
  3618  00187E  159A               	andwf	___fldiv@grs& (0+255),w,b
  3619  001880  6F8F               	movwf	??___fldiv& (0+255),b
  3620  001882  0EFF               	movlw	255
  3621  001884  159B               	andwf	(___fldiv@grs+1)& (0+255),w,b
  3622  001886  6F90               	movwf	(??___fldiv+1)& (0+255),b
  3623  001888  0EFF               	movlw	255
  3624  00188A  159C               	andwf	(___fldiv@grs+2)& (0+255),w,b
  3625  00188C  6F91               	movwf	(??___fldiv+2)& (0+255),b
  3626  00188E  0E7F               	movlw	127
  3627  001890  159D               	andwf	(___fldiv@grs+3)& (0+255),w,b
  3628  001892  6F92               	movwf	(??___fldiv+3)& (0+255),b
  3629  001894  518F               	movf	??___fldiv& (0+255),w,b
  3630  001896  1190               	iorwf	(??___fldiv+1)& (0+255),w,b
  3631  001898  1191               	iorwf	(??___fldiv+2)& (0+255),w,b
  3632  00189A  1192               	iorwf	(??___fldiv+3)& (0+255),w,b
  3633  00189C  B4D8               	btfsc	status,2,c
  3634  00189E  EF53  F00C         	goto	u3581
  3635  0018A2  EF55  F00C         	goto	u3580
  3636  0018A6                     u3581:
  3637  0018A6  EF59  F00C         	goto	l936
  3638  0018AA                     u3580:
  3639  0018AA                     l3381:
  3640                           
  3641                           ; BSR set to: 0
  3642  0018AA  0E01               	movlw	1
  3643  0018AC  6F9F               	movwf	___fldiv@aexp& (0+255),b
  3644  0018AE  EF62  F00C         	goto	l935
  3645  0018B2                     l936:
  3646                           
  3647                           ; BSR set to: 0
  3648  0018B2  A187               	btfss	___fldiv@b& (0+255),0,b
  3649  0018B4  EF5E  F00C         	goto	u3591
  3650  0018B8  EF60  F00C         	goto	u3590
  3651  0018BC                     u3591:
  3652  0018BC  EF62  F00C         	goto	l935
  3653  0018C0                     u3590:
  3654  0018C0  EF55  F00C         	goto	l3381
  3655  0018C4                     l935:
  3656                           
  3657                           ; BSR set to: 0
  3658  0018C4  519F               	movf	___fldiv@aexp& (0+255),w,b
  3659  0018C6  B4D8               	btfsc	status,2,c
  3660  0018C8  EF68  F00C         	goto	u3601
  3661  0018CC  EF6A  F00C         	goto	u3600
  3662  0018D0                     u3601:
  3663  0018D0  EF8E  F00C         	goto	l3393
  3664  0018D4                     u3600:
  3665  0018D4                     
  3666                           ; BSR set to: 0
  3667  0018D4  0E01               	movlw	1
  3668  0018D6  2787               	addwf	___fldiv@b& (0+255),f,b
  3669  0018D8  0E00               	movlw	0
  3670  0018DA  2388               	addwfc	(___fldiv@b+1)& (0+255),f,b
  3671  0018DC  2389               	addwfc	(___fldiv@b+2)& (0+255),f,b
  3672  0018DE  238A               	addwfc	(___fldiv@b+3)& (0+255),f,b
  3673  0018E0                     
  3674                           ; BSR set to: 0
  3675  0018E0  A18A               	btfss	(___fldiv@b+3)& (0+255),0,b
  3676  0018E2  EF75  F00C         	goto	u3611
  3677  0018E6  EF77  F00C         	goto	u3610
  3678  0018EA                     u3611:
  3679  0018EA  EF8E  F00C         	goto	l3393
  3680  0018EE                     u3610:
  3681  0018EE                     
  3682                           ; BSR set to: 0
  3683  0018EE  C087  F08F         	movff	___fldiv@b,??___fldiv
  3684  0018F2  C088  F090         	movff	___fldiv@b+1,??___fldiv+1
  3685  0018F6  C089  F091         	movff	___fldiv@b+2,??___fldiv+2
  3686  0018FA  C08A  F092         	movff	___fldiv@b+3,??___fldiv+3
  3687  0018FE  3592               	rlcf	(??___fldiv+3)& (0+255),w,b
  3688  001900  3392               	rrcf	(??___fldiv+3)& (0+255),f,b
  3689  001902  3391               	rrcf	(??___fldiv+2)& (0+255),f,b
  3690  001904  3390               	rrcf	(??___fldiv+1)& (0+255),f,b
  3691  001906  338F               	rrcf	??___fldiv& (0+255),f,b
  3692  001908  C08F  F087         	movff	??___fldiv,___fldiv@b
  3693  00190C  C090  F088         	movff	??___fldiv+1,___fldiv@b+1
  3694  001910  C091  F089         	movff	??___fldiv+2,___fldiv@b+2
  3695  001914  C092  F08A         	movff	??___fldiv+3,___fldiv@b+3
  3696  001918                     
  3697                           ; BSR set to: 0
  3698  001918  4B98               	infsnz	___fldiv@new_exp& (0+255),f,b
  3699  00191A  2B99               	incf	(___fldiv@new_exp+1)& (0+255),f,b
  3700  00191C                     l3393:
  3701                           
  3702                           ; BSR set to: 0
  3703  00191C  BF99               	btfsc	(___fldiv@new_exp+1)& (0+255),7,b
  3704  00191E  EF99  F00C         	goto	u3621
  3705  001922  5199               	movf	(___fldiv@new_exp+1)& (0+255),w,b
  3706  001924  E108               	bnz	u3620
  3707  001926  2998               	incf	___fldiv@new_exp& (0+255),w,b
  3708  001928  A0D8               	btfss	status,0,c
  3709  00192A  EF99  F00C         	goto	u3621
  3710  00192E  EF9B  F00C         	goto	u3620
  3711  001932                     u3621:
  3712  001932  EFA6  F00C         	goto	l3397
  3713  001936                     u3620:
  3714  001936                     
  3715                           ; BSR set to: 0
  3716  001936  0E00               	movlw	0
  3717  001938  6F99               	movwf	(___fldiv@new_exp+1)& (0+255),b
  3718  00193A  6998               	setf	___fldiv@new_exp& (0+255),b
  3719  00193C  0E00               	movlw	0
  3720  00193E  6F87               	movwf	___fldiv@b& (0+255),b
  3721  001940  0E00               	movlw	0
  3722  001942  6F88               	movwf	(___fldiv@b+1)& (0+255),b
  3723  001944  0E00               	movlw	0
  3724  001946  6F89               	movwf	(___fldiv@b+2)& (0+255),b
  3725  001948  0E00               	movlw	0
  3726  00194A  6F8A               	movwf	(___fldiv@b+3)& (0+255),b
  3727  00194C                     l3397:
  3728                           
  3729                           ; BSR set to: 0
  3730  00194C  BF99               	btfsc	(___fldiv@new_exp+1)& (0+255),7,b
  3731  00194E  EFB3  F00C         	goto	u3630
  3732  001952  5199               	movf	(___fldiv@new_exp+1)& (0+255),w,b
  3733  001954  E106               	bnz	u3631
  3734  001956  0598               	decf	___fldiv@new_exp& (0+255),w,b
  3735  001958  B0D8               	btfsc	status,0,c
  3736  00195A  EFB1  F00C         	goto	u3631
  3737  00195E  EFB3  F00C         	goto	u3630
  3738  001962                     u3631:
  3739  001962  EFC1  F00C         	goto	l3401
  3740  001966                     u3630:
  3741  001966                     
  3742                           ; BSR set to: 0
  3743  001966  0E00               	movlw	0
  3744  001968  6F99               	movwf	(___fldiv@new_exp+1)& (0+255),b
  3745  00196A  0E00               	movlw	0
  3746  00196C  6F98               	movwf	___fldiv@new_exp& (0+255),b
  3747  00196E  0E00               	movlw	0
  3748  001970  6F87               	movwf	___fldiv@b& (0+255),b
  3749  001972  0E00               	movlw	0
  3750  001974  6F88               	movwf	(___fldiv@b+1)& (0+255),b
  3751  001976  0E00               	movlw	0
  3752  001978  6F89               	movwf	(___fldiv@b+2)& (0+255),b
  3753  00197A  0E00               	movlw	0
  3754  00197C  6F8A               	movwf	(___fldiv@b+3)& (0+255),b
  3755  00197E  0E00               	movlw	0
  3756  001980  6F97               	movwf	___fldiv@sign& (0+255),b
  3757  001982                     l3401:
  3758                           
  3759                           ; BSR set to: 0
  3760  001982  C098  F09E         	movff	___fldiv@new_exp,___fldiv@bexp
  3761  001986                     
  3762                           ; BSR set to: 0
  3763  001986  A19E               	btfss	___fldiv@bexp& (0+255),0,b
  3764  001988  EFC8  F00C         	goto	u3641
  3765  00198C  EFCA  F00C         	goto	u3640
  3766  001990                     u3641:
  3767  001990  EFCD  F00C         	goto	l3407
  3768  001994                     u3640:
  3769  001994                     
  3770                           ; BSR set to: 0
  3771  001994  8F89               	bsf	(___fldiv@b+2)& (0+255),7,b
  3772  001996  EFCE  F00C         	goto	l3409
  3773  00199A                     l3407:
  3774                           
  3775                           ; BSR set to: 0
  3776  00199A  9F89               	bcf	(___fldiv@b+2)& (0+255),7,b
  3777  00199C                     l3409:
  3778                           
  3779                           ; BSR set to: 0
  3780  00199C  90D8               	bcf	status,0,c
  3781  00199E  319E               	rrcf	___fldiv@bexp& (0+255),w,b
  3782  0019A0  6F8A               	movwf	(___fldiv@b+3)& (0+255),b
  3783  0019A2  EF84  F00B         	goto	l3323
  3784  0019A6                     l922:
  3785                           
  3786                           ; BSR set to: 0
  3787  0019A6  0012               	return		;funcret
  3788  0019A8                     __end_of___fldiv:
  3789                           	callstack 0
  3790                           
  3791 ;; *************** function ___fladd *****************
  3792 ;; Defined at:
  3793 ;;		line 10 in file "C:\Program Files\Microchip\xc8\v2.36\pic\sources\c99\common\sprcadd.c"
  3794 ;; Parameters:    Size  Location     Type
  3795 ;;  b               4    0[BANK0 ] unsigned char 
  3796 ;;  a               4    4[BANK0 ] unsigned char 
  3797 ;; Auto vars:     Size  Location     Type
  3798 ;;  grs             1   15[BANK0 ] unsigned char 
  3799 ;;  bexp            1   14[BANK0 ] unsigned char 
  3800 ;;  aexp            1   13[BANK0 ] unsigned char 
  3801 ;;  signs           1   12[BANK0 ] unsigned char 
  3802 ;; Return value:  Size  Location     Type
  3803 ;;                  4    0[BANK0 ] unsigned char 
  3804 ;; Registers used:
  3805 ;;		wreg, status,2, status,0
  3806 ;; Tracked objects:
  3807 ;;		On entry : 0/0
  3808 ;;		On exit  : 0/0
  3809 ;;		Unchanged: 0/0
  3810 ;; Data sizes:     COMRAM   BANK0   BANK1   BANK2   BANK3   BANK4   BANK5   BANK6   BANK7
  3811 ;;      Params:         0       8       0       0       0       0       0       0       0
  3812 ;;      Locals:         0       4       0       0       0       0       0       0       0
  3813 ;;      Temps:          0       4       0       0       0       0       0       0       0
  3814 ;;      Totals:         0      16       0       0       0       0       0       0       0
  3815 ;;Total ram usage:       16 bytes
  3816 ;; Hardware stack levels used: 1
  3817 ;; Hardware stack levels required when called: 4
  3818 ;; This function calls:
  3819 ;;		Nothing
  3820 ;; This function is called by:
  3821 ;;		_aceleracion
  3822 ;;		___flsub
  3823 ;; This function uses a non-reentrant model
  3824 ;;
  3825                           
  3826                           	psect	text10
  3827  000012                     __ptext10:
  3828                           	callstack 0
  3829  000012                     ___fladd:
  3830                           	callstack 24
  3831  000012  0100               	movlb	0	; () banked
  3832  000014  5163               	movf	(___fladd@b+3)& (0+255),w,b
  3833  000016  0B80               	andlw	128
  3834  000018  6F6C               	movwf	___fladd@signs& (0+255),b
  3835  00001A  5163               	movf	(___fladd@b+3)& (0+255),w,b
  3836  00001C  2563               	addwf	(___fladd@b+3)& (0+255),w,b
  3837  00001E  6F6E               	movwf	___fladd@bexp& (0+255),b
  3838  000020                     
  3839                           ; BSR set to: 0
  3840  000020  AF62               	btfss	(___fladd@b+2)& (0+255),7,b
  3841  000022  EF15  F000         	goto	u3001
  3842  000026  EF17  F000         	goto	u3000
  3843  00002A                     u3001:
  3844  00002A  EF18  F000         	goto	l3065
  3845  00002E                     u3000:
  3846  00002E                     
  3847                           ; BSR set to: 0
  3848  00002E  816E               	bsf	___fladd@bexp& (0+255),0,b
  3849  000030                     l3065:
  3850                           
  3851                           ; BSR set to: 0
  3852  000030  516E               	movf	___fladd@bexp& (0+255),w,b
  3853  000032  B4D8               	btfsc	status,2,c
  3854  000034  EF1E  F000         	goto	u3011
  3855  000038  EF20  F000         	goto	u3010
  3856  00003C                     u3011:
  3857  00003C  EF35  F000         	goto	l3075
  3858  000040                     u3010:
  3859  000040                     
  3860                           ; BSR set to: 0
  3861  000040  296E               	incf	___fladd@bexp& (0+255),w,b
  3862  000042  A4D8               	btfss	status,2,c
  3863  000044  EF26  F000         	goto	u3021
  3864  000048  EF28  F000         	goto	u3020
  3865  00004C                     u3021:
  3866  00004C  EF30  F000         	goto	l3071
  3867  000050                     u3020:
  3868  000050                     
  3869                           ; BSR set to: 0
  3870  000050  0E00               	movlw	0
  3871  000052  6F60               	movwf	___fladd@b& (0+255),b
  3872  000054  0E00               	movlw	0
  3873  000056  6F61               	movwf	(___fladd@b+1)& (0+255),b
  3874  000058  0E00               	movlw	0
  3875  00005A  6F62               	movwf	(___fladd@b+2)& (0+255),b
  3876  00005C  0E00               	movlw	0
  3877  00005E  6F63               	movwf	(___fladd@b+3)& (0+255),b
  3878  000060                     l3071:
  3879                           
  3880                           ; BSR set to: 0
  3881  000060  8F62               	bsf	(___fladd@b+2)& (0+255),7,b
  3882  000062                     
  3883                           ; BSR set to: 0
  3884  000062  0E00               	movlw	0
  3885  000064  6F63               	movwf	(___fladd@b+3)& (0+255),b
  3886  000066  EF3D  F000         	goto	l3077
  3887  00006A                     l3075:
  3888                           
  3889                           ; BSR set to: 0
  3890  00006A  0E00               	movlw	0
  3891  00006C  6F60               	movwf	___fladd@b& (0+255),b
  3892  00006E  0E00               	movlw	0
  3893  000070  6F61               	movwf	(___fladd@b+1)& (0+255),b
  3894  000072  0E00               	movlw	0
  3895  000074  6F62               	movwf	(___fladd@b+2)& (0+255),b
  3896  000076  0E00               	movlw	0
  3897  000078  6F63               	movwf	(___fladd@b+3)& (0+255),b
  3898  00007A                     l3077:
  3899                           
  3900                           ; BSR set to: 0
  3901  00007A  5167               	movf	(___fladd@a+3)& (0+255),w,b
  3902  00007C  0B80               	andlw	128
  3903  00007E  6F6D               	movwf	___fladd@aexp& (0+255),b
  3904  000080                     
  3905                           ; BSR set to: 0
  3906  000080  516C               	movf	___fladd@signs& (0+255),w,b
  3907  000082  196D               	xorwf	___fladd@aexp& (0+255),w,b
  3908  000084  B4D8               	btfsc	status,2,c
  3909  000086  EF47  F000         	goto	u3031
  3910  00008A  EF49  F000         	goto	u3030
  3911  00008E                     u3031:
  3912  00008E  EF4A  F000         	goto	l3083
  3913  000092                     u3030:
  3914  000092                     
  3915                           ; BSR set to: 0
  3916  000092  8D6C               	bsf	___fladd@signs& (0+255),6,b
  3917  000094                     l3083:
  3918                           
  3919                           ; BSR set to: 0
  3920  000094  5167               	movf	(___fladd@a+3)& (0+255),w,b
  3921  000096  2567               	addwf	(___fladd@a+3)& (0+255),w,b
  3922  000098  6F6D               	movwf	___fladd@aexp& (0+255),b
  3923  00009A                     
  3924                           ; BSR set to: 0
  3925  00009A  AF66               	btfss	(___fladd@a+2)& (0+255),7,b
  3926  00009C  EF52  F000         	goto	u3041
  3927  0000A0  EF54  F000         	goto	u3040
  3928  0000A4                     u3041:
  3929  0000A4  EF55  F000         	goto	l3089
  3930  0000A8                     u3040:
  3931  0000A8                     
  3932                           ; BSR set to: 0
  3933  0000A8  816D               	bsf	___fladd@aexp& (0+255),0,b
  3934  0000AA                     l3089:
  3935                           
  3936                           ; BSR set to: 0
  3937  0000AA  516D               	movf	___fladd@aexp& (0+255),w,b
  3938  0000AC  B4D8               	btfsc	status,2,c
  3939  0000AE  EF5B  F000         	goto	u3051
  3940  0000B2  EF5D  F000         	goto	u3050
  3941  0000B6                     u3051:
  3942  0000B6  EF72  F000         	goto	l3099
  3943  0000BA                     u3050:
  3944  0000BA                     
  3945                           ; BSR set to: 0
  3946  0000BA  296D               	incf	___fladd@aexp& (0+255),w,b
  3947  0000BC  A4D8               	btfss	status,2,c
  3948  0000BE  EF63  F000         	goto	u3061
  3949  0000C2  EF65  F000         	goto	u3060
  3950  0000C6                     u3061:
  3951  0000C6  EF6D  F000         	goto	l3095
  3952  0000CA                     u3060:
  3953  0000CA                     
  3954                           ; BSR set to: 0
  3955  0000CA  0E00               	movlw	0
  3956  0000CC  6F64               	movwf	___fladd@a& (0+255),b
  3957  0000CE  0E00               	movlw	0
  3958  0000D0  6F65               	movwf	(___fladd@a+1)& (0+255),b
  3959  0000D2  0E00               	movlw	0
  3960  0000D4  6F66               	movwf	(___fladd@a+2)& (0+255),b
  3961  0000D6  0E00               	movlw	0
  3962  0000D8  6F67               	movwf	(___fladd@a+3)& (0+255),b
  3963  0000DA                     l3095:
  3964                           
  3965                           ; BSR set to: 0
  3966  0000DA  8F66               	bsf	(___fladd@a+2)& (0+255),7,b
  3967  0000DC                     
  3968                           ; BSR set to: 0
  3969  0000DC  0E00               	movlw	0
  3970  0000DE  6F67               	movwf	(___fladd@a+3)& (0+255),b
  3971  0000E0  EF7A  F000         	goto	l3101
  3972  0000E4                     l3099:
  3973                           
  3974                           ; BSR set to: 0
  3975  0000E4  0E00               	movlw	0
  3976  0000E6  6F64               	movwf	___fladd@a& (0+255),b
  3977  0000E8  0E00               	movlw	0
  3978  0000EA  6F65               	movwf	(___fladd@a+1)& (0+255),b
  3979  0000EC  0E00               	movlw	0
  3980  0000EE  6F66               	movwf	(___fladd@a+2)& (0+255),b
  3981  0000F0  0E00               	movlw	0
  3982  0000F2  6F67               	movwf	(___fladd@a+3)& (0+255),b
  3983  0000F4                     l3101:
  3984                           
  3985                           ; BSR set to: 0
  3986  0000F4  516E               	movf	___fladd@bexp& (0+255),w,b
  3987  0000F6  5D6D               	subwf	___fladd@aexp& (0+255),w,b
  3988  0000F8  B0D8               	btfsc	status,0,c
  3989  0000FA  EF81  F000         	goto	u3071
  3990  0000FE  EF83  F000         	goto	u3070
  3991  000102                     u3071:
  3992  000102  EFAA  F000         	goto	l3137
  3993  000106                     u3070:
  3994  000106                     
  3995                           ; BSR set to: 0
  3996  000106  AD6C               	btfss	___fladd@signs& (0+255),6,b
  3997  000108  EF88  F000         	goto	u3081
  3998  00010C  EF8A  F000         	goto	u3080
  3999  000110                     u3081:
  4000  000110  EF8C  F000         	goto	l3107
  4001  000114                     u3080:
  4002  000114                     
  4003                           ; BSR set to: 0
  4004  000114  0E80               	movlw	128
  4005  000116  1B6C               	xorwf	___fladd@signs& (0+255),f,b
  4006  000118                     l3107:
  4007                           
  4008                           ; BSR set to: 0
  4009  000118  C06E  F06F         	movff	___fladd@bexp,___fladd@grs
  4010  00011C                     
  4011                           ; BSR set to: 0
  4012  00011C  C06D  F06E         	movff	___fladd@aexp,___fladd@bexp
  4013  000120                     
  4014                           ; BSR set to: 0
  4015  000120  C06F  F06D         	movff	___fladd@grs,___fladd@aexp
  4016  000124                     
  4017                           ; BSR set to: 0
  4018  000124  C060  F06F         	movff	___fladd@b,___fladd@grs
  4019  000128                     
  4020                           ; BSR set to: 0
  4021  000128  C064  F060         	movff	___fladd@a,___fladd@b
  4022  00012C                     
  4023                           ; BSR set to: 0
  4024  00012C  C06F  F064         	movff	___fladd@grs,___fladd@a
  4025  000130                     
  4026                           ; BSR set to: 0
  4027  000130  C061  F06F         	movff	___fladd@b+1,___fladd@grs
  4028  000134                     
  4029                           ; BSR set to: 0
  4030  000134  C065  F061         	movff	___fladd@a+1,___fladd@b+1
  4031  000138                     
  4032                           ; BSR set to: 0
  4033  000138  C06F  F065         	movff	___fladd@grs,___fladd@a+1
  4034  00013C                     
  4035                           ; BSR set to: 0
  4036  00013C  C062  F06F         	movff	___fladd@b+2,___fladd@grs
  4037  000140                     
  4038                           ; BSR set to: 0
  4039  000140  C066  F062         	movff	___fladd@a+2,___fladd@b+2
  4040  000144                     
  4041                           ; BSR set to: 0
  4042  000144  C06F  F066         	movff	___fladd@grs,___fladd@a+2
  4043  000148                     
  4044                           ; BSR set to: 0
  4045  000148  C063  F06F         	movff	___fladd@b+3,___fladd@grs
  4046  00014C                     
  4047                           ; BSR set to: 0
  4048  00014C  C067  F063         	movff	___fladd@a+3,___fladd@b+3
  4049  000150                     
  4050                           ; BSR set to: 0
  4051  000150  C06F  F067         	movff	___fladd@grs,___fladd@a+3
  4052  000154                     l3137:
  4053                           
  4054                           ; BSR set to: 0
  4055  000154  0E00               	movlw	0
  4056  000156  6F6F               	movwf	___fladd@grs& (0+255),b
  4057  000158                     
  4058                           ; BSR set to: 0
  4059  000158  516E               	movf	___fladd@bexp& (0+255),w,b
  4060  00015A  C06D  F068         	movff	___fladd@aexp,??___fladd
  4061  00015E  6B69               	clrf	(??___fladd+1)& (0+255),b
  4062  000160  5F68               	subwf	??___fladd& (0+255),f,b
  4063  000162  0E00               	movlw	0
  4064  000164  5B69               	subwfb	(??___fladd+1)& (0+255),f,b
  4065  000166  BF69               	btfsc	(??___fladd+1)& (0+255),7,b
  4066  000168  EFBF  F000         	goto	u3091
  4067  00016C  5169               	movf	(??___fladd+1)& (0+255),w,b
  4068  00016E  E109               	bnz	u3090
  4069  000170  0E1A               	movlw	26
  4070  000172  5D68               	subwf	??___fladd& (0+255),w,b
  4071  000174  A0D8               	btfss	status,0,c
  4072  000176  EFBF  F000         	goto	u3091
  4073  00017A  EFC1  F000         	goto	u3090
  4074  00017E                     u3091:
  4075  00017E  EFF8  F000         	goto	l869
  4076  000182                     u3090:
  4077  000182                     
  4078                           ; BSR set to: 0
  4079  000182  5160               	movf	___fladd@b& (0+255),w,b
  4080  000184  1161               	iorwf	(___fladd@b+1)& (0+255),w,b
  4081  000186  1162               	iorwf	(___fladd@b+2)& (0+255),w,b
  4082  000188  1163               	iorwf	(___fladd@b+3)& (0+255),w,b
  4083  00018A  A4D8               	btfss	status,2,c
  4084  00018C  EFCA  F000         	goto	u3101
  4085  000190  EFCD  F000         	goto	u3100
  4086  000194                     u3101:
  4087  000194  0E01               	movlw	1
  4088  000196  EFCE  F000         	goto	u3110
  4089  00019A                     u3100:
  4090  00019A  0E00               	movlw	0
  4091  00019C                     u3110:
  4092  00019C  6F6F               	movwf	___fladd@grs& (0+255),b
  4093  00019E                     
  4094                           ; BSR set to: 0
  4095  00019E  0E00               	movlw	0
  4096  0001A0  6F60               	movwf	___fladd@b& (0+255),b
  4097  0001A2  0E00               	movlw	0
  4098  0001A4  6F61               	movwf	(___fladd@b+1)& (0+255),b
  4099  0001A6  0E00               	movlw	0
  4100  0001A8  6F62               	movwf	(___fladd@b+2)& (0+255),b
  4101  0001AA  0E00               	movlw	0
  4102  0001AC  6F63               	movwf	(___fladd@b+3)& (0+255),b
  4103  0001AE                     
  4104                           ; BSR set to: 0
  4105  0001AE  C06D  F06E         	movff	___fladd@aexp,___fladd@bexp
  4106  0001B2  EF01  F001         	goto	l868
  4107  0001B6                     l870:
  4108                           
  4109                           ; BSR set to: 0
  4110  0001B6  A16F               	btfss	___fladd@grs& (0+255),0,b
  4111  0001B8  EFE0  F000         	goto	u3121
  4112  0001BC  EFE2  F000         	goto	u3120
  4113  0001C0                     u3121:
  4114  0001C0  EFE8  F000         	goto	l3149
  4115  0001C4                     u3120:
  4116  0001C4                     
  4117                           ; BSR set to: 0
  4118  0001C4  90D8               	bcf	status,0,c
  4119  0001C6  316F               	rrcf	___fladd@grs& (0+255),w,b
  4120  0001C8  0901               	iorlw	1
  4121  0001CA  6F6F               	movwf	___fladd@grs& (0+255),b
  4122  0001CC  EFEA  F000         	goto	l3151
  4123  0001D0                     l3149:
  4124                           
  4125                           ; BSR set to: 0
  4126  0001D0  90D8               	bcf	status,0,c
  4127  0001D2  336F               	rrcf	___fladd@grs& (0+255),f,b
  4128  0001D4                     l3151:
  4129                           
  4130                           ; BSR set to: 0
  4131  0001D4  A160               	btfss	___fladd@b& (0+255),0,b
  4132  0001D6  EFEF  F000         	goto	u3131
  4133  0001DA  EFF1  F000         	goto	u3130
  4134  0001DE                     u3131:
  4135  0001DE  EFF2  F000         	goto	l3155
  4136  0001E2                     u3130:
  4137  0001E2                     
  4138                           ; BSR set to: 0
  4139  0001E2  8F6F               	bsf	___fladd@grs& (0+255),7,b
  4140  0001E4                     l3155:
  4141                           
  4142                           ; BSR set to: 0
  4143  0001E4  3563               	rlcf	(___fladd@b+3)& (0+255),w,b
  4144  0001E6  3363               	rrcf	(___fladd@b+3)& (0+255),f,b
  4145  0001E8  3362               	rrcf	(___fladd@b+2)& (0+255),f,b
  4146  0001EA  3361               	rrcf	(___fladd@b+1)& (0+255),f,b
  4147  0001EC  3360               	rrcf	___fladd@b& (0+255),f,b
  4148  0001EE                     
  4149                           ; BSR set to: 0
  4150  0001EE  2B6E               	incf	___fladd@bexp& (0+255),f,b
  4151  0001F0                     l869:
  4152                           
  4153                           ; BSR set to: 0
  4154  0001F0  516D               	movf	___fladd@aexp& (0+255),w,b
  4155  0001F2  5D6E               	subwf	___fladd@bexp& (0+255),w,b
  4156  0001F4  A0D8               	btfss	status,0,c
  4157  0001F6  EFFF  F000         	goto	u3141
  4158  0001FA  EF01  F001         	goto	u3140
  4159  0001FE                     u3141:
  4160  0001FE  EFDB  F000         	goto	l870
  4161  000202                     u3140:
  4162  000202                     l868:
  4163                           
  4164                           ; BSR set to: 0
  4165  000202  BD6C               	btfsc	___fladd@signs& (0+255),6,b
  4166  000204  EF06  F001         	goto	u3151
  4167  000208  EF08  F001         	goto	u3150
  4168  00020C                     u3151:
  4169  00020C  EF48  F001         	goto	l3183
  4170  000210                     u3150:
  4171  000210                     
  4172                           ; BSR set to: 0
  4173  000210  516E               	movf	___fladd@bexp& (0+255),w,b
  4174  000212  A4D8               	btfss	status,2,c
  4175  000214  EF0E  F001         	goto	u3161
  4176  000218  EF10  F001         	goto	u3160
  4177  00021C                     u3161:
  4178  00021C  EF1A  F001         	goto	l3165
  4179  000220                     u3160:
  4180  000220                     
  4181                           ; BSR set to: 0
  4182  000220  0E00               	movlw	0
  4183  000222  6F60               	movwf	?___fladd& (0+255),b
  4184  000224  0E00               	movlw	0
  4185  000226  6F61               	movwf	(?___fladd+1)& (0+255),b
  4186  000228  0E00               	movlw	0
  4187  00022A  6F62               	movwf	(?___fladd+2)& (0+255),b
  4188  00022C  0E00               	movlw	0
  4189  00022E  6F63               	movwf	(?___fladd+3)& (0+255),b
  4190  000230  EF69  F002         	goto	l877
  4191  000234                     l3165:
  4192                           
  4193                           ; BSR set to: 0
  4194  000234  5164               	movf	___fladd@a& (0+255),w,b
  4195  000236  2760               	addwf	___fladd@b& (0+255),f,b
  4196  000238  5165               	movf	(___fladd@a+1)& (0+255),w,b
  4197  00023A  2361               	addwfc	(___fladd@b+1)& (0+255),f,b
  4198  00023C  5166               	movf	(___fladd@a+2)& (0+255),w,b
  4199  00023E  2362               	addwfc	(___fladd@b+2)& (0+255),f,b
  4200  000240  5167               	movf	(___fladd@a+3)& (0+255),w,b
  4201  000242  2363               	addwfc	(___fladd@b+3)& (0+255),f,b
  4202  000244                     
  4203                           ; BSR set to: 0
  4204  000244  A163               	btfss	(___fladd@b+3)& (0+255),0,b
  4205  000246  EF27  F001         	goto	u3171
  4206  00024A  EF29  F001         	goto	u3170
  4207  00024E                     u3171:
  4208  00024E  EFD5  F001         	goto	l3219
  4209  000252                     u3170:
  4210  000252                     
  4211                           ; BSR set to: 0
  4212  000252  A16F               	btfss	___fladd@grs& (0+255),0,b
  4213  000254  EF2E  F001         	goto	u3181
  4214  000258  EF30  F001         	goto	u3180
  4215  00025C                     u3181:
  4216  00025C  EF36  F001         	goto	l3173
  4217  000260                     u3180:
  4218  000260                     
  4219                           ; BSR set to: 0
  4220  000260  90D8               	bcf	status,0,c
  4221  000262  316F               	rrcf	___fladd@grs& (0+255),w,b
  4222  000264  0901               	iorlw	1
  4223  000266  6F6F               	movwf	___fladd@grs& (0+255),b
  4224  000268  EF38  F001         	goto	l3175
  4225  00026C                     l3173:
  4226                           
  4227                           ; BSR set to: 0
  4228  00026C  90D8               	bcf	status,0,c
  4229  00026E  336F               	rrcf	___fladd@grs& (0+255),f,b
  4230  000270                     l3175:
  4231                           
  4232                           ; BSR set to: 0
  4233  000270  A160               	btfss	___fladd@b& (0+255),0,b
  4234  000272  EF3D  F001         	goto	u3191
  4235  000276  EF3F  F001         	goto	u3190
  4236  00027A                     u3191:
  4237  00027A  EF40  F001         	goto	l3179
  4238  00027E                     u3190:
  4239  00027E                     
  4240                           ; BSR set to: 0
  4241  00027E  8F6F               	bsf	___fladd@grs& (0+255),7,b
  4242  000280                     l3179:
  4243                           
  4244                           ; BSR set to: 0
  4245  000280  3563               	rlcf	(___fladd@b+3)& (0+255),w,b
  4246  000282  3363               	rrcf	(___fladd@b+3)& (0+255),f,b
  4247  000284  3362               	rrcf	(___fladd@b+2)& (0+255),f,b
  4248  000286  3361               	rrcf	(___fladd@b+1)& (0+255),f,b
  4249  000288  3360               	rrcf	___fladd@b& (0+255),f,b
  4250  00028A                     
  4251                           ; BSR set to: 0
  4252  00028A  2B6E               	incf	___fladd@bexp& (0+255),f,b
  4253  00028C  EFD5  F001         	goto	l3219
  4254  000290                     l3183:
  4255                           
  4256                           ; BSR set to: 0
  4257  000290  5164               	movf	___fladd@a& (0+255),w,b
  4258  000292  5D60               	subwf	___fladd@b& (0+255),w,b
  4259  000294  5165               	movf	(___fladd@a+1)& (0+255),w,b
  4260  000296  5961               	subwfb	(___fladd@b+1)& (0+255),w,b
  4261  000298  5166               	movf	(___fladd@a+2)& (0+255),w,b
  4262  00029A  5962               	subwfb	(___fladd@b+2)& (0+255),w,b
  4263  00029C  5163               	movf	(___fladd@b+3)& (0+255),w,b
  4264  00029E  0A80               	xorlw	128
  4265  0002A0  6F68               	movwf	??___fladd& (0+255),b
  4266  0002A2  5167               	movf	(___fladd@a+3)& (0+255),w,b
  4267  0002A4  0A80               	xorlw	128
  4268  0002A6  5968               	subwfb	??___fladd& (0+255),w,b
  4269  0002A8  B0D8               	btfsc	status,0,c
  4270  0002AA  EF59  F001         	goto	u3201
  4271  0002AE  EF5B  F001         	goto	u3200
  4272  0002B2                     u3201:
  4273  0002B2  EF86  F001         	goto	l3193
  4274  0002B6                     u3200:
  4275  0002B6                     
  4276                           ; BSR set to: 0
  4277  0002B6  5160               	movf	___fladd@b& (0+255),w,b
  4278  0002B8  5D64               	subwf	___fladd@a& (0+255),w,b
  4279  0002BA  6F68               	movwf	??___fladd& (0+255),b
  4280  0002BC  5161               	movf	(___fladd@b+1)& (0+255),w,b
  4281  0002BE  5965               	subwfb	(___fladd@a+1)& (0+255),w,b
  4282  0002C0  6F69               	movwf	(??___fladd+1)& (0+255),b
  4283  0002C2  5162               	movf	(___fladd@b+2)& (0+255),w,b
  4284  0002C4  5966               	subwfb	(___fladd@a+2)& (0+255),w,b
  4285  0002C6  6F6A               	movwf	(??___fladd+2)& (0+255),b
  4286  0002C8  5163               	movf	(___fladd@b+3)& (0+255),w,b
  4287  0002CA  5967               	subwfb	(___fladd@a+3)& (0+255),w,b
  4288  0002CC  6F6B               	movwf	(??___fladd+3)& (0+255),b
  4289  0002CE  0EFF               	movlw	255
  4290  0002D0  2568               	addwf	??___fladd& (0+255),w,b
  4291  0002D2  6F60               	movwf	___fladd@b& (0+255),b
  4292  0002D4  0EFF               	movlw	255
  4293  0002D6  2169               	addwfc	(??___fladd+1)& (0+255),w,b
  4294  0002D8  6F61               	movwf	(___fladd@b+1)& (0+255),b
  4295  0002DA  0EFF               	movlw	255
  4296  0002DC  216A               	addwfc	(??___fladd+2)& (0+255),w,b
  4297  0002DE  6F62               	movwf	(___fladd@b+2)& (0+255),b
  4298  0002E0  0EFF               	movlw	255
  4299  0002E2  216B               	addwfc	(??___fladd+3)& (0+255),w,b
  4300  0002E4  6F63               	movwf	(___fladd@b+3)& (0+255),b
  4301  0002E6  0E80               	movlw	128
  4302  0002E8  1B6C               	xorwf	___fladd@signs& (0+255),f,b
  4303  0002EA                     
  4304                           ; BSR set to: 0
  4305  0002EA  6D6F               	negf	___fladd@grs& (0+255),b
  4306  0002EC                     
  4307                           ; BSR set to: 0
  4308  0002EC  516F               	movf	___fladd@grs& (0+255),w,b
  4309  0002EE  A4D8               	btfss	status,2,c
  4310  0002F0  EF7C  F001         	goto	u3211
  4311  0002F4  EF7E  F001         	goto	u3210
  4312  0002F8                     u3211:
  4313  0002F8  EF8E  F001         	goto	l885
  4314  0002FC                     u3210:
  4315  0002FC                     
  4316                           ; BSR set to: 0
  4317  0002FC  0E01               	movlw	1
  4318  0002FE  2760               	addwf	___fladd@b& (0+255),f,b
  4319  000300  0E00               	movlw	0
  4320  000302  2361               	addwfc	(___fladd@b+1)& (0+255),f,b
  4321  000304  2362               	addwfc	(___fladd@b+2)& (0+255),f,b
  4322  000306  2363               	addwfc	(___fladd@b+3)& (0+255),f,b
  4323  000308  EF8E  F001         	goto	l885
  4324  00030C                     l3193:
  4325                           
  4326                           ; BSR set to: 0
  4327  00030C  5164               	movf	___fladd@a& (0+255),w,b
  4328  00030E  5F60               	subwf	___fladd@b& (0+255),f,b
  4329  000310  5165               	movf	(___fladd@a+1)& (0+255),w,b
  4330  000312  5B61               	subwfb	(___fladd@b+1)& (0+255),f,b
  4331  000314  5166               	movf	(___fladd@a+2)& (0+255),w,b
  4332  000316  5B62               	subwfb	(___fladd@b+2)& (0+255),f,b
  4333  000318  5167               	movf	(___fladd@a+3)& (0+255),w,b
  4334  00031A  5B63               	subwfb	(___fladd@b+3)& (0+255),f,b
  4335  00031C                     l885:
  4336                           
  4337                           ; BSR set to: 0
  4338  00031C  5160               	movf	___fladd@b& (0+255),w,b
  4339  00031E  1161               	iorwf	(___fladd@b+1)& (0+255),w,b
  4340  000320  1162               	iorwf	(___fladd@b+2)& (0+255),w,b
  4341  000322  1163               	iorwf	(___fladd@b+3)& (0+255),w,b
  4342  000324  A4D8               	btfss	status,2,c
  4343  000326  EF97  F001         	goto	u3221
  4344  00032A  EF99  F001         	goto	u3220
  4345  00032E                     u3221:
  4346  00032E  EFCE  F001         	goto	l3217
  4347  000332                     u3220:
  4348  000332                     
  4349                           ; BSR set to: 0
  4350  000332  516F               	movf	___fladd@grs& (0+255),w,b
  4351  000334  A4D8               	btfss	status,2,c
  4352  000336  EF9F  F001         	goto	u3231
  4353  00033A  EFA1  F001         	goto	u3230
  4354  00033E                     u3231:
  4355  00033E  EFCE  F001         	goto	l3217
  4356  000342                     u3230:
  4357  000342                     
  4358                           ; BSR set to: 0
  4359  000342  0E00               	movlw	0
  4360  000344  6F60               	movwf	?___fladd& (0+255),b
  4361  000346  0E00               	movlw	0
  4362  000348  6F61               	movwf	(?___fladd+1)& (0+255),b
  4363  00034A  0E00               	movlw	0
  4364  00034C  6F62               	movwf	(?___fladd+2)& (0+255),b
  4365  00034E  0E00               	movlw	0
  4366  000350  6F63               	movwf	(?___fladd+3)& (0+255),b
  4367  000352  EF69  F002         	goto	l877
  4368  000356                     l3201:
  4369                           
  4370                           ; BSR set to: 0
  4371  000356  90D8               	bcf	status,0,c
  4372  000358  3760               	rlcf	___fladd@b& (0+255),f,b
  4373  00035A  3761               	rlcf	(___fladd@b+1)& (0+255),f,b
  4374  00035C  3762               	rlcf	(___fladd@b+2)& (0+255),f,b
  4375  00035E  3763               	rlcf	(___fladd@b+3)& (0+255),f,b
  4376  000360                     
  4377                           ; BSR set to: 0
  4378  000360  AF6F               	btfss	___fladd@grs& (0+255),7,b
  4379  000362  EFB5  F001         	goto	u3241
  4380  000366  EFB7  F001         	goto	u3240
  4381  00036A                     u3241:
  4382  00036A  EFB8  F001         	goto	l3207
  4383  00036E                     u3240:
  4384  00036E                     
  4385                           ; BSR set to: 0
  4386  00036E  8160               	bsf	___fladd@b& (0+255),0,b
  4387  000370                     l3207:
  4388                           
  4389                           ; BSR set to: 0
  4390  000370  A16F               	btfss	___fladd@grs& (0+255),0,b
  4391  000372  EFBD  F001         	goto	u3251
  4392  000376  EFBF  F001         	goto	u3250
  4393  00037A                     u3251:
  4394  00037A  EFC3  F001         	goto	l3211
  4395  00037E                     u3250:
  4396  00037E                     
  4397                           ; BSR set to: 0
  4398  00037E  80D8               	bsf	status,0,c
  4399  000380  376F               	rlcf	___fladd@grs& (0+255),f,b
  4400  000382  EFC5  F001         	goto	l3213
  4401  000386                     l3211:
  4402                           
  4403                           ; BSR set to: 0
  4404  000386  90D8               	bcf	status,0,c
  4405  000388  376F               	rlcf	___fladd@grs& (0+255),f,b
  4406  00038A                     l3213:
  4407                           
  4408                           ; BSR set to: 0
  4409  00038A  516E               	movf	___fladd@bexp& (0+255),w,b
  4410  00038C  B4D8               	btfsc	status,2,c
  4411  00038E  EFCB  F001         	goto	u3261
  4412  000392  EFCD  F001         	goto	u3260
  4413  000396                     u3261:
  4414  000396  EFCE  F001         	goto	l3217
  4415  00039A                     u3260:
  4416  00039A                     
  4417                           ; BSR set to: 0
  4418  00039A  076E               	decf	___fladd@bexp& (0+255),f,b
  4419  00039C                     l3217:
  4420                           
  4421                           ; BSR set to: 0
  4422  00039C  AF62               	btfss	(___fladd@b+2)& (0+255),7,b
  4423  00039E  EFD3  F001         	goto	u3271
  4424  0003A2  EFD5  F001         	goto	u3270
  4425  0003A6                     u3271:
  4426  0003A6  EFAB  F001         	goto	l3201
  4427  0003AA                     u3270:
  4428  0003AA                     l3219:
  4429                           
  4430                           ; BSR set to: 0
  4431  0003AA  0E00               	movlw	0
  4432  0003AC  6F6D               	movwf	___fladd@aexp& (0+255),b
  4433  0003AE                     
  4434                           ; BSR set to: 0
  4435  0003AE  AF6F               	btfss	___fladd@grs& (0+255),7,b
  4436  0003B0  EFDC  F001         	goto	u3281
  4437  0003B4  EFDE  F001         	goto	u3280
  4438  0003B8                     u3281:
  4439  0003B8  EFF6  F001         	goto	l894
  4440  0003BC                     u3280:
  4441  0003BC                     
  4442                           ; BSR set to: 0
  4443  0003BC  C06F  F068         	movff	___fladd@grs,??___fladd
  4444  0003C0  0E7F               	movlw	127
  4445  0003C2  1768               	andwf	??___fladd& (0+255),f,b
  4446  0003C4  B4D8               	btfsc	status,2,c
  4447  0003C6  EFE7  F001         	goto	u3291
  4448  0003CA  EFE9  F001         	goto	u3290
  4449  0003CE                     u3291:
  4450  0003CE  EFED  F001         	goto	l895
  4451  0003D2                     u3290:
  4452  0003D2                     l3225:
  4453                           
  4454                           ; BSR set to: 0
  4455  0003D2  0E01               	movlw	1
  4456  0003D4  6F6D               	movwf	___fladd@aexp& (0+255),b
  4457  0003D6  EFF6  F001         	goto	l894
  4458  0003DA                     l895:
  4459                           
  4460                           ; BSR set to: 0
  4461  0003DA  A160               	btfss	___fladd@b& (0+255),0,b
  4462  0003DC  EFF2  F001         	goto	u3301
  4463  0003E0  EFF4  F001         	goto	u3300
  4464  0003E4                     u3301:
  4465  0003E4  EFF6  F001         	goto	l894
  4466  0003E8                     u3300:
  4467  0003E8  EFE9  F001         	goto	l3225
  4468  0003EC                     l894:
  4469                           
  4470                           ; BSR set to: 0
  4471  0003EC  516D               	movf	___fladd@aexp& (0+255),w,b
  4472  0003EE  B4D8               	btfsc	status,2,c
  4473  0003F0  EFFC  F001         	goto	u3311
  4474  0003F4  EFFE  F001         	goto	u3310
  4475  0003F8                     u3311:
  4476  0003F8  EF29  F002         	goto	l3237
  4477  0003FC                     u3310:
  4478  0003FC                     
  4479                           ; BSR set to: 0
  4480  0003FC  0E01               	movlw	1
  4481  0003FE  2760               	addwf	___fladd@b& (0+255),f,b
  4482  000400  0E00               	movlw	0
  4483  000402  2361               	addwfc	(___fladd@b+1)& (0+255),f,b
  4484  000404  2362               	addwfc	(___fladd@b+2)& (0+255),f,b
  4485  000406  2363               	addwfc	(___fladd@b+3)& (0+255),f,b
  4486  000408                     
  4487                           ; BSR set to: 0
  4488  000408  A163               	btfss	(___fladd@b+3)& (0+255),0,b
  4489  00040A  EF09  F002         	goto	u3321
  4490  00040E  EF0B  F002         	goto	u3320
  4491  000412                     u3321:
  4492  000412  EF29  F002         	goto	l3237
  4493  000416                     u3320:
  4494  000416                     
  4495                           ; BSR set to: 0
  4496  000416  C060  F068         	movff	___fladd@b,??___fladd
  4497  00041A  C061  F069         	movff	___fladd@b+1,??___fladd+1
  4498  00041E  C062  F06A         	movff	___fladd@b+2,??___fladd+2
  4499  000422  C063  F06B         	movff	___fladd@b+3,??___fladd+3
  4500  000426  356B               	rlcf	(??___fladd+3)& (0+255),w,b
  4501  000428  336B               	rrcf	(??___fladd+3)& (0+255),f,b
  4502  00042A  336A               	rrcf	(??___fladd+2)& (0+255),f,b
  4503  00042C  3369               	rrcf	(??___fladd+1)& (0+255),f,b
  4504  00042E  3368               	rrcf	??___fladd& (0+255),f,b
  4505  000430  C068  F060         	movff	??___fladd,___fladd@b
  4506  000434  C069  F061         	movff	??___fladd+1,___fladd@b+1
  4507  000438  C06A  F062         	movff	??___fladd+2,___fladd@b+2
  4508  00043C  C06B  F063         	movff	??___fladd+3,___fladd@b+3
  4509  000440  296E               	incf	___fladd@bexp& (0+255),w,b
  4510  000442  B4D8               	btfsc	status,2,c
  4511  000444  EF26  F002         	goto	u3331
  4512  000448  EF28  F002         	goto	u3330
  4513  00044C                     u3331:
  4514  00044C  EF29  F002         	goto	l3237
  4515  000450                     u3330:
  4516  000450                     
  4517                           ; BSR set to: 0
  4518  000450  2B6E               	incf	___fladd@bexp& (0+255),f,b
  4519  000452                     l3237:
  4520                           
  4521                           ; BSR set to: 0
  4522  000452  296E               	incf	___fladd@bexp& (0+255),w,b
  4523  000454  B4D8               	btfsc	status,2,c
  4524  000456  EF2F  F002         	goto	u3341
  4525  00045A  EF31  F002         	goto	u3340
  4526  00045E                     u3341:
  4527  00045E  EF39  F002         	goto	l3241
  4528  000462                     u3340:
  4529  000462                     
  4530                           ; BSR set to: 0
  4531  000462  516E               	movf	___fladd@bexp& (0+255),w,b
  4532  000464  A4D8               	btfss	status,2,c
  4533  000466  EF37  F002         	goto	u3351
  4534  00046A  EF39  F002         	goto	u3350
  4535  00046E                     u3351:
  4536  00046E  EF4B  F002         	goto	l3245
  4537  000472                     u3350:
  4538  000472                     l3241:
  4539                           
  4540                           ; BSR set to: 0
  4541  000472  0E00               	movlw	0
  4542  000474  6F60               	movwf	___fladd@b& (0+255),b
  4543  000476  0E00               	movlw	0
  4544  000478  6F61               	movwf	(___fladd@b+1)& (0+255),b
  4545  00047A  0E00               	movlw	0
  4546  00047C  6F62               	movwf	(___fladd@b+2)& (0+255),b
  4547  00047E  0E00               	movlw	0
  4548  000480  6F63               	movwf	(___fladd@b+3)& (0+255),b
  4549  000482  516E               	movf	___fladd@bexp& (0+255),w,b
  4550  000484  A4D8               	btfss	status,2,c
  4551  000486  EF47  F002         	goto	u3361
  4552  00048A  EF49  F002         	goto	u3360
  4553  00048E                     u3361:
  4554  00048E  EF4B  F002         	goto	l3245
  4555  000492                     u3360:
  4556  000492                     
  4557                           ; BSR set to: 0
  4558  000492  0E00               	movlw	0
  4559  000494  6F6C               	movwf	___fladd@signs& (0+255),b
  4560  000496                     l3245:
  4561                           
  4562                           ; BSR set to: 0
  4563  000496  A16E               	btfss	___fladd@bexp& (0+255),0,b
  4564  000498  EF50  F002         	goto	u3371
  4565  00049C  EF52  F002         	goto	u3370
  4566  0004A0                     u3371:
  4567  0004A0  EF55  F002         	goto	l3249
  4568  0004A4                     u3370:
  4569  0004A4                     
  4570                           ; BSR set to: 0
  4571  0004A4  8F62               	bsf	(___fladd@b+2)& (0+255),7,b
  4572  0004A6  EF56  F002         	goto	l3251
  4573  0004AA                     l3249:
  4574                           
  4575                           ; BSR set to: 0
  4576  0004AA  9F62               	bcf	(___fladd@b+2)& (0+255),7,b
  4577  0004AC                     l3251:
  4578                           
  4579                           ; BSR set to: 0
  4580  0004AC  90D8               	bcf	status,0,c
  4581  0004AE  316E               	rrcf	___fladd@bexp& (0+255),w,b
  4582  0004B0  6F63               	movwf	(___fladd@b+3)& (0+255),b
  4583  0004B2                     
  4584                           ; BSR set to: 0
  4585  0004B2  AF6C               	btfss	___fladd@signs& (0+255),7,b
  4586  0004B4  EF5E  F002         	goto	u3381
  4587  0004B8  EF60  F002         	goto	u3380
  4588  0004BC                     u3381:
  4589  0004BC  EF61  F002         	goto	l3257
  4590  0004C0                     u3380:
  4591  0004C0                     
  4592                           ; BSR set to: 0
  4593  0004C0  8F63               	bsf	(___fladd@b+3)& (0+255),7,b
  4594  0004C2                     l3257:
  4595                           
  4596                           ; BSR set to: 0
  4597  0004C2  C060  F060         	movff	___fladd@b,?___fladd
  4598  0004C6  C061  F061         	movff	___fladd@b+1,?___fladd+1
  4599  0004CA  C062  F062         	movff	___fladd@b+2,?___fladd+2
  4600  0004CE  C063  F063         	movff	___fladd@b+3,?___fladd+3
  4601  0004D2                     l877:
  4602                           
  4603                           ; BSR set to: 0
  4604  0004D2  0012               	return		;funcret
  4605  0004D4                     __end_of___fladd:
  4606                           	callstack 0
  4607                           
  4608 ;; *************** function _Transmitir *****************
  4609 ;; Defined at:
  4610 ;;		line 162 in file "Lab6.c"
  4611 ;; Parameters:    Size  Location     Type
  4612 ;;  dato            1    wreg     unsigned char 
  4613 ;; Auto vars:     Size  Location     Type
  4614 ;;  dato            1    0[BANK0 ] unsigned char 
  4615 ;; Return value:  Size  Location     Type
  4616 ;;                  1    wreg      void 
  4617 ;; Registers used:
  4618 ;;		wreg
  4619 ;; Tracked objects:
  4620 ;;		On entry : 0/0
  4621 ;;		On exit  : 0/0
  4622 ;;		Unchanged: 0/0
  4623 ;; Data sizes:     COMRAM   BANK0   BANK1   BANK2   BANK3   BANK4   BANK5   BANK6   BANK7
  4624 ;;      Params:         0       0       0       0       0       0       0       0       0
  4625 ;;      Locals:         0       1       0       0       0       0       0       0       0
  4626 ;;      Temps:          0       0       0       0       0       0       0       0       0
  4627 ;;      Totals:         0       1       0       0       0       0       0       0       0
  4628 ;;Total ram usage:        1 bytes
  4629 ;; Hardware stack levels used: 1
  4630 ;; Hardware stack levels required when called: 4
  4631 ;; This function calls:
  4632 ;;		Nothing
  4633 ;; This function is called by:
  4634 ;;		_main
  4635 ;;		_cambios
  4636 ;;		_aceleracion
  4637 ;;		_desaceleracion
  4638 ;; This function uses a non-reentrant model
  4639 ;;
  4640                           
  4641                           	psect	text11
  4642  0032E0                     __ptext11:
  4643                           	callstack 0
  4644  0032E0                     _Transmitir:
  4645                           	callstack 25
  4646                           
  4647                           ; BSR set to: 0
  4648                           ;incstack = 0
  4649                           ;Transmitir@dato stored from wreg
  4650  0032E0  0100               	movlb	0	; () banked
  4651  0032E2  6F60               	movwf	Transmitir@dato& (0+255),b
  4652  0032E4                     l270:
  4653  0032E4  A2AC               	btfss	4012,1,c	;volatile
  4654  0032E6  EF77  F019         	goto	u3411
  4655  0032EA  EF79  F019         	goto	u3410
  4656  0032EE                     u3411:
  4657  0032EE  EF72  F019         	goto	l270
  4658  0032F2                     u3410:
  4659  0032F2                     
  4660                           ;Lab6.c: 165:       if(lectura=='J' || lectura=='j')PWM=225;
  4661  0032F2  C060  FFAD         	movff	Transmitir@dato,4013	;volatile
  4662  0032F6  0012               	return		;funcret
  4663  0032F8                     __end_of_Transmitir:
  4664                           	callstack 0
  4665                           
  4666 ;; *************** function _InicializaLCD *****************
  4667 ;; Defined at:
  4668 ;;		line 72 in file "./LibLCDXC8.h"
  4669 ;; Parameters:    Size  Location     Type
  4670 ;;		None
  4671 ;; Auto vars:     Size  Location     Type
  4672 ;;		None
  4673 ;; Return value:  Size  Location     Type
  4674 ;;                  1    wreg      void 
  4675 ;; Registers used:
  4676 ;;		wreg, status,2, status,0, cstack
  4677 ;; Tracked objects:
  4678 ;;		On entry : 0/0
  4679 ;;		On exit  : 0/0
  4680 ;;		Unchanged: 0/0
  4681 ;; Data sizes:     COMRAM   BANK0   BANK1   BANK2   BANK3   BANK4   BANK5   BANK6   BANK7
  4682 ;;      Params:         0       0       0       0       0       0       0       0       0
  4683 ;;      Locals:         0       0       0       0       0       0       0       0       0
  4684 ;;      Temps:          0       0       0       0       0       0       0       0       0
  4685 ;;      Totals:         0       0       0       0       0       0       0       0       0
  4686 ;;Total ram usage:        0 bytes
  4687 ;; Hardware stack levels used: 1
  4688 ;; Hardware stack levels required when called: 7
  4689 ;; This function calls:
  4690 ;;		_BorraLCD
  4691 ;;		_EnviaDato
  4692 ;;		_HabilitaLCD
  4693 ;;		_RetardoLCD
  4694 ;; This function is called by:
  4695 ;;		_main
  4696 ;; This function uses a non-reentrant model
  4697 ;;
  4698                           
  4699                           	psect	text12
  4700  002E50                     __ptext12:
  4701                           	callstack 0
  4702  002E50                     _InicializaLCD:
  4703                           	callstack 23
  4704  002E50                     
  4705                           ;./LibLCDXC8.h: 74:  LATD0=0;
  4706  002E50  908C               	bcf	3980,0,c	;volatile
  4707  002E52                     
  4708                           ;./LibLCDXC8.h: 75:  if(interfaz==4)
  4709  002E52  0E04               	movlw	4
  4710  002E54  184C               	xorwf	_interfaz^0,w,c
  4711  002E56  A4D8               	btfss	status,2,c
  4712  002E58  EF30  F017         	goto	u5321
  4713  002E5C  EF32  F017         	goto	u5320
  4714  002E60                     u5321:
  4715  002E60  EF38  F017         	goto	l4411
  4716  002E64                     u5320:
  4717  002E64                     
  4718                           ;./LibLCDXC8.h: 76:   LATD=(LATD & 0b00001111) | 0x30;
  4719  002E64  508C               	movf	140,w,c	;volatile
  4720  002E66  0B0F               	andlw	15
  4721  002E68  0930               	iorlw	48
  4722  002E6A  6E8C               	movwf	140,c	;volatile
  4723  002E6C  EF3A  F017         	goto	l4413
  4724  002E70                     l4411:
  4725                           
  4726                           ;./LibLCDXC8.h: 78:   LATD=0x3F;
  4727  002E70  0E3F               	movlw	63
  4728  002E72  6E8C               	movwf	140,c	;volatile
  4729  002E74                     l4413:
  4730                           
  4731                           ;./LibLCDXC8.h: 79:  HabilitaLCD();
  4732  002E74  EC91  F019         	call	_HabilitaLCD	;wreg free
  4733  002E78                     
  4734                           ;./LibLCDXC8.h: 80:  RetardoLCD(1);
  4735  002E78  0E01               	movlw	1
  4736  002E7A  EC4C  F018         	call	_RetardoLCD
  4737  002E7E                     
  4738                           ;./LibLCDXC8.h: 81:  if(interfaz==4)
  4739  002E7E  0E04               	movlw	4
  4740  002E80  184C               	xorwf	_interfaz^0,w,c
  4741  002E82  A4D8               	btfss	status,2,c
  4742  002E84  EF46  F017         	goto	u5331
  4743  002E88  EF48  F017         	goto	u5330
  4744  002E8C                     u5331:
  4745  002E8C  EF4E  F017         	goto	l4421
  4746  002E90                     u5330:
  4747  002E90                     
  4748                           ;./LibLCDXC8.h: 82:   LATD=(LATD & 0b00001111) | 0x30;
  4749  002E90  508C               	movf	140,w,c	;volatile
  4750  002E92  0B0F               	andlw	15
  4751  002E94  0930               	iorlw	48
  4752  002E96  6E8C               	movwf	140,c	;volatile
  4753  002E98  EF50  F017         	goto	l4423
  4754  002E9C                     l4421:
  4755                           
  4756                           ;./LibLCDXC8.h: 84:   LATD=0x3F;
  4757  002E9C  0E3F               	movlw	63
  4758  002E9E  6E8C               	movwf	140,c	;volatile
  4759  002EA0                     l4423:
  4760                           
  4761                           ;./LibLCDXC8.h: 85:  HabilitaLCD();
  4762  002EA0  EC91  F019         	call	_HabilitaLCD	;wreg free
  4763  002EA4                     
  4764                           ;./LibLCDXC8.h: 86:  RetardoLCD(3);
  4765  002EA4  0E03               	movlw	3
  4766  002EA6  EC4C  F018         	call	_RetardoLCD
  4767  002EAA                     
  4768                           ;./LibLCDXC8.h: 87:  if(interfaz==4)
  4769  002EAA  0E04               	movlw	4
  4770  002EAC  184C               	xorwf	_interfaz^0,w,c
  4771  002EAE  A4D8               	btfss	status,2,c
  4772  002EB0  EF5C  F017         	goto	u5341
  4773  002EB4  EF5E  F017         	goto	u5340
  4774  002EB8                     u5341:
  4775  002EB8  EF64  F017         	goto	l4431
  4776  002EBC                     u5340:
  4777  002EBC                     
  4778                           ;./LibLCDXC8.h: 88:   LATD=(LATD & 0b00001111) | 0x30;
  4779  002EBC  508C               	movf	140,w,c	;volatile
  4780  002EBE  0B0F               	andlw	15
  4781  002EC0  0930               	iorlw	48
  4782  002EC2  6E8C               	movwf	140,c	;volatile
  4783  002EC4  EF66  F017         	goto	l4433
  4784  002EC8                     l4431:
  4785                           
  4786                           ;./LibLCDXC8.h: 90:   LATD=0x3F;
  4787  002EC8  0E3F               	movlw	63
  4788  002ECA  6E8C               	movwf	140,c	;volatile
  4789  002ECC                     l4433:
  4790                           
  4791                           ;./LibLCDXC8.h: 91:  HabilitaLCD();
  4792  002ECC  EC91  F019         	call	_HabilitaLCD	;wreg free
  4793  002ED0                     
  4794                           ;./LibLCDXC8.h: 92:  RetardoLCD(4);
  4795  002ED0  0E04               	movlw	4
  4796  002ED2  EC4C  F018         	call	_RetardoLCD
  4797  002ED6                     
  4798                           ;./LibLCDXC8.h: 93:  if(interfaz==4){
  4799  002ED6  0E04               	movlw	4
  4800  002ED8  184C               	xorwf	_interfaz^0,w,c
  4801  002EDA  A4D8               	btfss	status,2,c
  4802  002EDC  EF72  F017         	goto	u5351
  4803  002EE0  EF74  F017         	goto	u5350
  4804  002EE4                     u5351:
  4805  002EE4  EF85  F017         	goto	l4451
  4806  002EE8                     u5350:
  4807  002EE8                     
  4808                           ;./LibLCDXC8.h: 94:   LATD=(LATD & 0b00001111) | 0x20;
  4809  002EE8  508C               	movf	140,w,c	;volatile
  4810  002EEA  0B0F               	andlw	15
  4811  002EEC  0920               	iorlw	32
  4812  002EEE  6E8C               	movwf	140,c	;volatile
  4813  002EF0                     
  4814                           ;./LibLCDXC8.h: 95:   HabilitaLCD();
  4815  002EF0  EC91  F019         	call	_HabilitaLCD	;wreg free
  4816  002EF4                     
  4817                           ;./LibLCDXC8.h: 96:   RetardoLCD(4);
  4818  002EF4  0E04               	movlw	4
  4819  002EF6  EC4C  F018         	call	_RetardoLCD
  4820  002EFA                     
  4821                           ;./LibLCDXC8.h: 97:   EnviaDato(0x2F);
  4822  002EFA  0E2F               	movlw	47
  4823  002EFC  EC90  F018         	call	_EnviaDato
  4824  002F00                     
  4825                           ;./LibLCDXC8.h: 98:   HabilitaLCD();
  4826  002F00  EC91  F019         	call	_HabilitaLCD	;wreg free
  4827  002F04                     
  4828                           ;./LibLCDXC8.h: 99:   RetardoLCD(4);
  4829  002F04  0E04               	movlw	4
  4830  002F06  EC4C  F018         	call	_RetardoLCD
  4831  002F0A                     l4451:
  4832                           
  4833                           ;./LibLCDXC8.h: 101:  BorraLCD();
  4834  002F0A  EC87  F019         	call	_BorraLCD	;wreg free
  4835  002F0E                     
  4836                           ;./LibLCDXC8.h: 102:  EnviaDato(0xF);
  4837  002F0E  0E0F               	movlw	15
  4838  002F10  EC90  F018         	call	_EnviaDato
  4839  002F14                     
  4840                           ;./LibLCDXC8.h: 103:  HabilitaLCD();
  4841  002F14  EC91  F019         	call	_HabilitaLCD	;wreg free
  4842  002F18                     
  4843                           ;./LibLCDXC8.h: 104:  RetardoLCD(4);
  4844  002F18  0E04               	movlw	4
  4845  002F1A  EC4C  F018         	call	_RetardoLCD
  4846  002F1E  0012               	return		;funcret
  4847  002F20                     __end_of_InicializaLCD:
  4848                           	callstack 0
  4849                           
  4850 ;; *************** function _BorraLCD *****************
  4851 ;; Defined at:
  4852 ;;		line 113 in file "./LibLCDXC8.h"
  4853 ;; Parameters:    Size  Location     Type
  4854 ;;		None
  4855 ;; Auto vars:     Size  Location     Type
  4856 ;;		None
  4857 ;; Return value:  Size  Location     Type
  4858 ;;                  1    wreg      void 
  4859 ;; Registers used:
  4860 ;;		wreg, status,2, status,0, cstack
  4861 ;; Tracked objects:
  4862 ;;		On entry : 0/0
  4863 ;;		On exit  : 0/0
  4864 ;;		Unchanged: 0/0
  4865 ;; Data sizes:     COMRAM   BANK0   BANK1   BANK2   BANK3   BANK4   BANK5   BANK6   BANK7
  4866 ;;      Params:         0       0       0       0       0       0       0       0       0
  4867 ;;      Locals:         0       0       0       0       0       0       0       0       0
  4868 ;;      Temps:          0       0       0       0       0       0       0       0       0
  4869 ;;      Totals:         0       0       0       0       0       0       0       0       0
  4870 ;;Total ram usage:        0 bytes
  4871 ;; Hardware stack levels used: 1
  4872 ;; Hardware stack levels required when called: 6
  4873 ;; This function calls:
  4874 ;;		_EnviaDato
  4875 ;;		_HabilitaLCD
  4876 ;;		_RetardoLCD
  4877 ;; This function is called by:
  4878 ;;		_InicializaLCD
  4879 ;;		_main
  4880 ;;		_ComandoLCD
  4881 ;; This function uses a non-reentrant model
  4882 ;;
  4883                           
  4884                           	psect	text13
  4885  00330E                     __ptext13:
  4886                           	callstack 0
  4887  00330E                     _BorraLCD:
  4888                           	callstack 23
  4889  00330E                     
  4890                           ;./LibLCDXC8.h: 115:  LATD0=0;
  4891  00330E  908C               	bcf	3980,0,c	;volatile
  4892  003310                     
  4893                           ;./LibLCDXC8.h: 116:  EnviaDato(0x01);
  4894  003310  0E01               	movlw	1
  4895  003312  EC90  F018         	call	_EnviaDato
  4896  003316                     
  4897                           ;./LibLCDXC8.h: 117:  HabilitaLCD();
  4898  003316  EC91  F019         	call	_HabilitaLCD	;wreg free
  4899  00331A                     
  4900                           ;./LibLCDXC8.h: 118:  RetardoLCD(2);
  4901  00331A  0E02               	movlw	2
  4902  00331C  EC4C  F018         	call	_RetardoLCD
  4903  003320  0012               	return		;funcret
  4904  003322                     __end_of_BorraLCD:
  4905                           	callstack 0
  4906                           
  4907 ;; *************** function _EscribeLCD_n8 *****************
  4908 ;; Defined at:
  4909 ;;		line 146 in file "./LibLCDXC8.h"
  4910 ;; Parameters:    Size  Location     Type
  4911 ;;  a               1    wreg     unsigned char 
  4912 ;;  b               1   14[BANK0 ] unsigned char 
  4913 ;; Auto vars:     Size  Location     Type
  4914 ;;  a               1   20[BANK0 ] unsigned char 
  4915 ;;  unidad          1   19[BANK0 ] unsigned char 
  4916 ;;  decena          1   18[BANK0 ] unsigned char 
  4917 ;;  centena         1   17[BANK0 ] unsigned char 
  4918 ;; Return value:  Size  Location     Type
  4919 ;;                  1    wreg      void 
  4920 ;; Registers used:
  4921 ;;		wreg, status,2, status,0, cstack
  4922 ;; Tracked objects:
  4923 ;;		On entry : 0/0
  4924 ;;		On exit  : 0/0
  4925 ;;		Unchanged: 0/0
  4926 ;; Data sizes:     COMRAM   BANK0   BANK1   BANK2   BANK3   BANK4   BANK5   BANK6   BANK7
  4927 ;;      Params:         0       1       0       0       0       0       0       0       0
  4928 ;;      Locals:         0       4       0       0       0       0       0       0       0
  4929 ;;      Temps:          0       2       0       0       0       0       0       0       0
  4930 ;;      Totals:         0       7       0       0       0       0       0       0       0
  4931 ;;Total ram usage:        7 bytes
  4932 ;; Hardware stack levels used: 1
  4933 ;; Hardware stack levels required when called: 6
  4934 ;; This function calls:
  4935 ;;		_EnviaDato
  4936 ;;		_HabilitaLCD
  4937 ;;		_RetardoLCD
  4938 ;;		___awdiv
  4939 ;;		___awmod
  4940 ;; This function is called by:
  4941 ;;		_main
  4942 ;; This function uses a non-reentrant model
  4943 ;;
  4944                           
  4945                           	psect	text14
  4946  0028BE                     __ptext14:
  4947                           	callstack 0
  4948  0028BE                     _EscribeLCD_n8:
  4949                           	callstack 24
  4950                           
  4951                           ;incstack = 0
  4952                           ;EscribeLCD_n8@a stored from wreg
  4953  0028BE  0100               	movlb	0	; () banked
  4954  0028C0  6F74               	movwf	EscribeLCD_n8@a& (0+255),b
  4955  0028C2                     
  4956                           ;./LibLCDXC8.h: 151:     unsigned char centena,decena,unidad;;./LibLCDXC8.h: 152:  LATD0
      +                          =1;
  4957  0028C2  808C               	bsf	3980,0,c	;volatile
  4958                           
  4959                           ;./LibLCDXC8.h: 153:  switch(b){
  4960  0028C4  EF01  F015         	goto	l4501
  4961  0028C8                     l4469:
  4962                           
  4963                           ; BSR set to: 0
  4964  0028C8  C074  F060         	movff	EscribeLCD_n8@a,___awmod@dividend
  4965  0028CC  6B61               	clrf	(___awmod@dividend+1)& (0+255),b
  4966  0028CE  0E00               	movlw	0
  4967  0028D0  6F63               	movwf	(___awmod@divisor+1)& (0+255),b
  4968  0028D2  0E0A               	movlw	10
  4969  0028D4  6F62               	movwf	___awmod@divisor& (0+255),b
  4970  0028D6  ECF3  F017         	call	___awmod	;wreg free
  4971  0028DA  0100               	movlb	0	; () banked
  4972  0028DC  5160               	movf	?___awmod& (0+255),w,b
  4973  0028DE  6F73               	movwf	EscribeLCD_n8@unidad& (0+255),b
  4974                           
  4975                           ;./LibLCDXC8.h: 155:     EnviaDato(unidad+48);
  4976  0028E0  5173               	movf	EscribeLCD_n8@unidad& (0+255),w,b
  4977  0028E2  0F30               	addlw	48
  4978  0028E4  EC90  F018         	call	_EnviaDato
  4979  0028E8                     
  4980                           ;./LibLCDXC8.h: 156:     HabilitaLCD();
  4981  0028E8  EC91  F019         	call	_HabilitaLCD	;wreg free
  4982  0028EC                     
  4983                           ;./LibLCDXC8.h: 157:     RetardoLCD(4);
  4984  0028EC  0E04               	movlw	4
  4985  0028EE  EC4C  F018         	call	_RetardoLCD
  4986                           
  4987                           ;./LibLCDXC8.h: 158:     break;
  4988  0028F2  EF1B  F015         	goto	l144
  4989  0028F6                     l4475:
  4990                           
  4991                           ; BSR set to: 0
  4992  0028F6  0E00               	movlw	0
  4993  0028F8  6F63               	movwf	(___awmod@divisor+1)& (0+255),b
  4994  0028FA  0E64               	movlw	100
  4995  0028FC  6F62               	movwf	___awmod@divisor& (0+255),b
  4996  0028FE  C074  F060         	movff	EscribeLCD_n8@a,___awmod@dividend
  4997  002902  6B61               	clrf	(___awmod@dividend+1)& (0+255),b
  4998  002904  ECF3  F017         	call	___awmod	;wreg free
  4999  002908  C060  F066         	movff	?___awmod,___awdiv@dividend
  5000  00290C  C061  F067         	movff	?___awmod+1,___awdiv@dividend+1
  5001  002910  0E00               	movlw	0
  5002  002912  0100               	movlb	0	; () banked
  5003  002914  6F69               	movwf	(___awdiv@divisor+1)& (0+255),b
  5004  002916  0E0A               	movlw	10
  5005  002918  6F68               	movwf	___awdiv@divisor& (0+255),b
  5006  00291A  EC90  F017         	call	___awdiv	;wreg free
  5007  00291E  0100               	movlb	0	; () banked
  5008  002920  5166               	movf	?___awdiv& (0+255),w,b
  5009  002922  6F72               	movwf	EscribeLCD_n8@decena& (0+255),b
  5010                           
  5011                           ;./LibLCDXC8.h: 160:     unidad=a%10;
  5012  002924  C074  F060         	movff	EscribeLCD_n8@a,___awmod@dividend
  5013  002928  6B61               	clrf	(___awmod@dividend+1)& (0+255),b
  5014  00292A  0E00               	movlw	0
  5015  00292C  6F63               	movwf	(___awmod@divisor+1)& (0+255),b
  5016  00292E  0E0A               	movlw	10
  5017  002930  6F62               	movwf	___awmod@divisor& (0+255),b
  5018  002932  ECF3  F017         	call	___awmod	;wreg free
  5019  002936  0100               	movlb	0	; () banked
  5020  002938  5160               	movf	?___awmod& (0+255),w,b
  5021  00293A  6F73               	movwf	EscribeLCD_n8@unidad& (0+255),b
  5022                           
  5023                           ;./LibLCDXC8.h: 161:     EnviaDato(decena+48);
  5024  00293C  5172               	movf	EscribeLCD_n8@decena& (0+255),w,b
  5025  00293E  0F30               	addlw	48
  5026  002940  EC90  F018         	call	_EnviaDato
  5027  002944                     
  5028                           ;./LibLCDXC8.h: 162:     HabilitaLCD();
  5029  002944  EC91  F019         	call	_HabilitaLCD	;wreg free
  5030  002948                     
  5031                           ;./LibLCDXC8.h: 163:     RetardoLCD(4);
  5032  002948  0E04               	movlw	4
  5033  00294A  EC4C  F018         	call	_RetardoLCD
  5034  00294E                     
  5035                           ;./LibLCDXC8.h: 164:     EnviaDato(unidad+48);
  5036  00294E  0100               	movlb	0	; () banked
  5037  002950  5173               	movf	EscribeLCD_n8@unidad& (0+255),w,b
  5038  002952  0F30               	addlw	48
  5039  002954  EC90  F018         	call	_EnviaDato
  5040  002958                     
  5041                           ;./LibLCDXC8.h: 165:     HabilitaLCD();
  5042  002958  EC91  F019         	call	_HabilitaLCD	;wreg free
  5043                           
  5044                           ;./LibLCDXC8.h: 166:     RetardoLCD(4);
  5045  00295C  0E04               	movlw	4
  5046  00295E  EC4C  F018         	call	_RetardoLCD
  5047                           
  5048                           ;./LibLCDXC8.h: 167:     break;
  5049  002962  EF1B  F015         	goto	l144
  5050  002966                     l4485:
  5051                           
  5052                           ; BSR set to: 0
  5053  002966  C074  F066         	movff	EscribeLCD_n8@a,___awdiv@dividend
  5054  00296A  6B67               	clrf	(___awdiv@dividend+1)& (0+255),b
  5055  00296C  0E00               	movlw	0
  5056  00296E  6F69               	movwf	(___awdiv@divisor+1)& (0+255),b
  5057  002970  0E64               	movlw	100
  5058  002972  6F68               	movwf	___awdiv@divisor& (0+255),b
  5059  002974  EC90  F017         	call	___awdiv	;wreg free
  5060  002978  0100               	movlb	0	; () banked
  5061  00297A  5166               	movf	?___awdiv& (0+255),w,b
  5062  00297C  6F71               	movwf	EscribeLCD_n8@centena& (0+255),b
  5063                           
  5064                           ;./LibLCDXC8.h: 169:     decena=(a%100)/10;
  5065  00297E  0E00               	movlw	0
  5066  002980  6F63               	movwf	(___awmod@divisor+1)& (0+255),b
  5067  002982  0E64               	movlw	100
  5068  002984  6F62               	movwf	___awmod@divisor& (0+255),b
  5069  002986  C074  F060         	movff	EscribeLCD_n8@a,___awmod@dividend
  5070  00298A  6B61               	clrf	(___awmod@dividend+1)& (0+255),b
  5071  00298C  ECF3  F017         	call	___awmod	;wreg free
  5072  002990  C060  F066         	movff	?___awmod,___awdiv@dividend
  5073  002994  C061  F067         	movff	?___awmod+1,___awdiv@dividend+1
  5074  002998  0E00               	movlw	0
  5075  00299A  0100               	movlb	0	; () banked
  5076  00299C  6F69               	movwf	(___awdiv@divisor+1)& (0+255),b
  5077  00299E  0E0A               	movlw	10
  5078  0029A0  6F68               	movwf	___awdiv@divisor& (0+255),b
  5079  0029A2  EC90  F017         	call	___awdiv	;wreg free
  5080  0029A6  0100               	movlb	0	; () banked
  5081  0029A8  5166               	movf	?___awdiv& (0+255),w,b
  5082  0029AA  6F72               	movwf	EscribeLCD_n8@decena& (0+255),b
  5083                           
  5084                           ;./LibLCDXC8.h: 170:     unidad=a%10;
  5085  0029AC  C074  F060         	movff	EscribeLCD_n8@a,___awmod@dividend
  5086  0029B0  6B61               	clrf	(___awmod@dividend+1)& (0+255),b
  5087  0029B2  0E00               	movlw	0
  5088  0029B4  6F63               	movwf	(___awmod@divisor+1)& (0+255),b
  5089  0029B6  0E0A               	movlw	10
  5090  0029B8  6F62               	movwf	___awmod@divisor& (0+255),b
  5091  0029BA  ECF3  F017         	call	___awmod	;wreg free
  5092  0029BE  0100               	movlb	0	; () banked
  5093  0029C0  5160               	movf	?___awmod& (0+255),w,b
  5094  0029C2  6F73               	movwf	EscribeLCD_n8@unidad& (0+255),b
  5095                           
  5096                           ;./LibLCDXC8.h: 171:     EnviaDato(centena+48);
  5097  0029C4  5171               	movf	EscribeLCD_n8@centena& (0+255),w,b
  5098  0029C6  0F30               	addlw	48
  5099  0029C8  EC90  F018         	call	_EnviaDato
  5100  0029CC                     
  5101                           ;./LibLCDXC8.h: 172:     HabilitaLCD();
  5102  0029CC  EC91  F019         	call	_HabilitaLCD	;wreg free
  5103  0029D0                     
  5104                           ;./LibLCDXC8.h: 173:     RetardoLCD(4);
  5105  0029D0  0E04               	movlw	4
  5106  0029D2  EC4C  F018         	call	_RetardoLCD
  5107  0029D6                     
  5108                           ;./LibLCDXC8.h: 174:     EnviaDato(decena+48);
  5109  0029D6  0100               	movlb	0	; () banked
  5110  0029D8  5172               	movf	EscribeLCD_n8@decena& (0+255),w,b
  5111  0029DA  0F30               	addlw	48
  5112  0029DC  EC90  F018         	call	_EnviaDato
  5113  0029E0                     
  5114                           ;./LibLCDXC8.h: 175:     HabilitaLCD();
  5115  0029E0  EC91  F019         	call	_HabilitaLCD	;wreg free
  5116                           
  5117                           ;./LibLCDXC8.h: 176:     RetardoLCD(4);
  5118  0029E4  0E04               	movlw	4
  5119  0029E6  EC4C  F018         	call	_RetardoLCD
  5120                           
  5121                           ;./LibLCDXC8.h: 177:     EnviaDato(unidad+48);
  5122  0029EA  0100               	movlb	0	; () banked
  5123  0029EC  5173               	movf	EscribeLCD_n8@unidad& (0+255),w,b
  5124  0029EE  0F30               	addlw	48
  5125  0029F0  EC90  F018         	call	_EnviaDato
  5126  0029F4                     
  5127                           ;./LibLCDXC8.h: 178:     HabilitaLCD();
  5128  0029F4  EC91  F019         	call	_HabilitaLCD	;wreg free
  5129  0029F8                     
  5130                           ;./LibLCDXC8.h: 179:     RetardoLCD(4);
  5131  0029F8  0E04               	movlw	4
  5132  0029FA  EC4C  F018         	call	_RetardoLCD
  5133                           
  5134                           ;./LibLCDXC8.h: 180:     break;
  5135  0029FE  EF1B  F015         	goto	l144
  5136  002A02                     l4501:
  5137  002A02  0100               	movlb	0	; () banked
  5138  002A04  516E               	movf	EscribeLCD_n8@b& (0+255),w,b
  5139  002A06  6F6F               	movwf	??_EscribeLCD_n8& (0+255),b
  5140  002A08  6B70               	clrf	(??_EscribeLCD_n8+1)& (0+255),b
  5141                           
  5142                           ; Switch on 2 bytes has been partitioned into a top level switch of size 1, and 1 sub-sw
      +                          itches
  5143                           ; Switch size 1, requested type "simple"
  5144                           ; Number of cases is 1, Range of values is 0 to 0
  5145                           ; switch strategies available:
  5146                           ; Name         Instructions Cycles
  5147                           ; simple_byte            4     3 (average)
  5148                           ;	Chosen strategy is simple_byte
  5149  002A0A  5170               	movf	(??_EscribeLCD_n8+1)& (0+255),w,b
  5150  002A0C  0A00               	xorlw	0	; case 0
  5151  002A0E  B4D8               	btfsc	status,2,c
  5152  002A10  EF0C  F015         	goto	l5057
  5153  002A14  EF1B  F015         	goto	l144
  5154  002A18                     l5057:
  5155                           
  5156                           ; BSR set to: 0
  5157                           ; Switch size 1, requested type "simple"
  5158                           ; Number of cases is 3, Range of values is 1 to 3
  5159                           ; switch strategies available:
  5160                           ; Name         Instructions Cycles
  5161                           ; simple_byte           10     6 (average)
  5162                           ;	Chosen strategy is simple_byte
  5163  002A18  516F               	movf	??_EscribeLCD_n8& (0+255),w,b
  5164  002A1A  0A01               	xorlw	1	; case 1
  5165  002A1C  B4D8               	btfsc	status,2,c
  5166  002A1E  EF64  F014         	goto	l4469
  5167  002A22  0A03               	xorlw	3	; case 2
  5168  002A24  B4D8               	btfsc	status,2,c
  5169  002A26  EF7B  F014         	goto	l4475
  5170  002A2A  0A01               	xorlw	1	; case 3
  5171  002A2C  B4D8               	btfsc	status,2,c
  5172  002A2E  EFB3  F014         	goto	l4485
  5173  002A32  EF1B  F015         	goto	l144
  5174  002A36                     l144:
  5175  002A36  0012               	return		;funcret
  5176  002A38                     __end_of_EscribeLCD_n8:
  5177                           	callstack 0
  5178                           
  5179 ;; *************** function ___awmod *****************
  5180 ;; Defined at:
  5181 ;;		line 7 in file "C:\Program Files\Microchip\xc8\v2.36\pic\sources\c99\common\awmod.c"
  5182 ;; Parameters:    Size  Location     Type
  5183 ;;  dividend        2    0[BANK0 ] int 
  5184 ;;  divisor         2    2[BANK0 ] int 
  5185 ;; Auto vars:     Size  Location     Type
  5186 ;;  sign            1    5[BANK0 ] unsigned char 
  5187 ;;  counter         1    4[BANK0 ] unsigned char 
  5188 ;; Return value:  Size  Location     Type
  5189 ;;                  2    0[BANK0 ] int 
  5190 ;; Registers used:
  5191 ;;		wreg, status,2, status,0
  5192 ;; Tracked objects:
  5193 ;;		On entry : 0/0
  5194 ;;		On exit  : 0/0
  5195 ;;		Unchanged: 0/0
  5196 ;; Data sizes:     COMRAM   BANK0   BANK1   BANK2   BANK3   BANK4   BANK5   BANK6   BANK7
  5197 ;;      Params:         0       4       0       0       0       0       0       0       0
  5198 ;;      Locals:         0       2       0       0       0       0       0       0       0
  5199 ;;      Temps:          0       0       0       0       0       0       0       0       0
  5200 ;;      Totals:         0       6       0       0       0       0       0       0       0
  5201 ;;Total ram usage:        6 bytes
  5202 ;; Hardware stack levels used: 1
  5203 ;; Hardware stack levels required when called: 4
  5204 ;; This function calls:
  5205 ;;		Nothing
  5206 ;; This function is called by:
  5207 ;;		_EscribeLCD_n8
  5208 ;; This function uses a non-reentrant model
  5209 ;;
  5210                           
  5211                           	psect	text15
  5212  002FE6                     __ptext15:
  5213                           	callstack 0
  5214  002FE6                     ___awmod:
  5215                           	callstack 25
  5216  002FE6  0E00               	movlw	0
  5217  002FE8  0100               	movlb	0	; () banked
  5218  002FEA  6F65               	movwf	___awmod@sign& (0+255),b
  5219  002FEC                     
  5220                           ; BSR set to: 0
  5221  002FEC  BF61               	btfsc	(___awmod@dividend+1)& (0+255),7,b
  5222  002FEE  EFFD  F017         	goto	u4590
  5223  002FF2  EFFB  F017         	goto	u4591
  5224  002FF6                     u4591:
  5225  002FF6  EF03  F018         	goto	l3983
  5226  002FFA                     u4590:
  5227  002FFA                     
  5228                           ; BSR set to: 0
  5229  002FFA  6D60               	negf	___awmod@dividend& (0+255),b
  5230  002FFC  1F61               	comf	(___awmod@dividend+1)& (0+255),f,b
  5231  002FFE  B0D8               	btfsc	status,0,c
  5232  003000  2B61               	incf	(___awmod@dividend+1)& (0+255),f,b
  5233  003002                     
  5234                           ; BSR set to: 0
  5235  003002  0E01               	movlw	1
  5236  003004  6F65               	movwf	___awmod@sign& (0+255),b
  5237  003006                     l3983:
  5238                           
  5239                           ; BSR set to: 0
  5240  003006  BF63               	btfsc	(___awmod@divisor+1)& (0+255),7,b
  5241  003008  EF0A  F018         	goto	u4600
  5242  00300C  EF08  F018         	goto	u4601
  5243  003010                     u4601:
  5244  003010  EF0E  F018         	goto	l3987
  5245  003014                     u4600:
  5246  003014                     
  5247                           ; BSR set to: 0
  5248  003014  6D62               	negf	___awmod@divisor& (0+255),b
  5249  003016  1F63               	comf	(___awmod@divisor+1)& (0+255),f,b
  5250  003018  B0D8               	btfsc	status,0,c
  5251  00301A  2B63               	incf	(___awmod@divisor+1)& (0+255),f,b
  5252  00301C                     l3987:
  5253                           
  5254                           ; BSR set to: 0
  5255  00301C  5162               	movf	___awmod@divisor& (0+255),w,b
  5256  00301E  1163               	iorwf	(___awmod@divisor+1)& (0+255),w,b
  5257  003020  B4D8               	btfsc	status,2,c
  5258  003022  EF15  F018         	goto	u4611
  5259  003026  EF17  F018         	goto	u4610
  5260  00302A                     u4611:
  5261  00302A  EF3B  F018         	goto	l4003
  5262  00302E                     u4610:
  5263  00302E                     
  5264                           ; BSR set to: 0
  5265  00302E  0E01               	movlw	1
  5266  003030  6F64               	movwf	___awmod@counter& (0+255),b
  5267  003032  EF1F  F018         	goto	l3993
  5268  003036                     l3991:
  5269                           
  5270                           ; BSR set to: 0
  5271  003036  90D8               	bcf	status,0,c
  5272  003038  3762               	rlcf	___awmod@divisor& (0+255),f,b
  5273  00303A  3763               	rlcf	(___awmod@divisor+1)& (0+255),f,b
  5274  00303C  2B64               	incf	___awmod@counter& (0+255),f,b
  5275  00303E                     l3993:
  5276                           
  5277                           ; BSR set to: 0
  5278  00303E  AF63               	btfss	(___awmod@divisor+1)& (0+255),7,b
  5279  003040  EF24  F018         	goto	u4621
  5280  003044  EF26  F018         	goto	u4620
  5281  003048                     u4621:
  5282  003048  EF1B  F018         	goto	l3991
  5283  00304C                     u4620:
  5284  00304C                     l3995:
  5285                           
  5286                           ; BSR set to: 0
  5287  00304C  5162               	movf	___awmod@divisor& (0+255),w,b
  5288  00304E  5D60               	subwf	___awmod@dividend& (0+255),w,b
  5289  003050  5163               	movf	(___awmod@divisor+1)& (0+255),w,b
  5290  003052  5961               	subwfb	(___awmod@dividend+1)& (0+255),w,b
  5291  003054  A0D8               	btfss	status,0,c
  5292  003056  EF2F  F018         	goto	u4631
  5293  00305A  EF31  F018         	goto	u4630
  5294  00305E                     u4631:
  5295  00305E  EF35  F018         	goto	l3999
  5296  003062                     u4630:
  5297  003062                     
  5298                           ; BSR set to: 0
  5299  003062  5162               	movf	___awmod@divisor& (0+255),w,b
  5300  003064  5F60               	subwf	___awmod@dividend& (0+255),f,b
  5301  003066  5163               	movf	(___awmod@divisor+1)& (0+255),w,b
  5302  003068  5B61               	subwfb	(___awmod@dividend+1)& (0+255),f,b
  5303  00306A                     l3999:
  5304                           
  5305                           ; BSR set to: 0
  5306  00306A  90D8               	bcf	status,0,c
  5307  00306C  3363               	rrcf	(___awmod@divisor+1)& (0+255),f,b
  5308  00306E  3362               	rrcf	___awmod@divisor& (0+255),f,b
  5309  003070                     
  5310                           ; BSR set to: 0
  5311  003070  2F64               	decfsz	___awmod@counter& (0+255),f,b
  5312  003072  EF26  F018         	goto	l3995
  5313  003076                     l4003:
  5314                           
  5315                           ; BSR set to: 0
  5316  003076  5165               	movf	___awmod@sign& (0+255),w,b
  5317  003078  B4D8               	btfsc	status,2,c
  5318  00307A  EF41  F018         	goto	u4641
  5319  00307E  EF43  F018         	goto	u4640
  5320  003082                     u4641:
  5321  003082  EF47  F018         	goto	l4007
  5322  003086                     u4640:
  5323  003086                     
  5324                           ; BSR set to: 0
  5325  003086  6D60               	negf	___awmod@dividend& (0+255),b
  5326  003088  1F61               	comf	(___awmod@dividend+1)& (0+255),f,b
  5327  00308A  B0D8               	btfsc	status,0,c
  5328  00308C  2B61               	incf	(___awmod@dividend+1)& (0+255),f,b
  5329  00308E                     l4007:
  5330                           
  5331                           ; BSR set to: 0
  5332  00308E  C060  F060         	movff	___awmod@dividend,?___awmod
  5333  003092  C061  F061         	movff	___awmod@dividend+1,?___awmod+1
  5334  003096                     
  5335                           ; BSR set to: 0
  5336  003096  0012               	return		;funcret
  5337  003098                     __end_of___awmod:
  5338                           	callstack 0
  5339                           
  5340 ;; *************** function ___awdiv *****************
  5341 ;; Defined at:
  5342 ;;		line 7 in file "C:\Program Files\Microchip\xc8\v2.36\pic\sources\c99\common\awdiv.c"
  5343 ;; Parameters:    Size  Location     Type
  5344 ;;  dividend        2    6[BANK0 ] int 
  5345 ;;  divisor         2    8[BANK0 ] int 
  5346 ;; Auto vars:     Size  Location     Type
  5347 ;;  quotient        2   12[BANK0 ] int 
  5348 ;;  sign            1   11[BANK0 ] unsigned char 
  5349 ;;  counter         1   10[BANK0 ] unsigned char 
  5350 ;; Return value:  Size  Location     Type
  5351 ;;                  2    6[BANK0 ] int 
  5352 ;; Registers used:
  5353 ;;		wreg, status,2, status,0
  5354 ;; Tracked objects:
  5355 ;;		On entry : 0/0
  5356 ;;		On exit  : 0/0
  5357 ;;		Unchanged: 0/0
  5358 ;; Data sizes:     COMRAM   BANK0   BANK1   BANK2   BANK3   BANK4   BANK5   BANK6   BANK7
  5359 ;;      Params:         0       4       0       0       0       0       0       0       0
  5360 ;;      Locals:         0       4       0       0       0       0       0       0       0
  5361 ;;      Temps:          0       0       0       0       0       0       0       0       0
  5362 ;;      Totals:         0       8       0       0       0       0       0       0       0
  5363 ;;Total ram usage:        8 bytes
  5364 ;; Hardware stack levels used: 1
  5365 ;; Hardware stack levels required when called: 4
  5366 ;; This function calls:
  5367 ;;		Nothing
  5368 ;; This function is called by:
  5369 ;;		_EscribeLCD_n8
  5370 ;; This function uses a non-reentrant model
  5371 ;;
  5372                           
  5373                           	psect	text16
  5374  002F20                     __ptext16:
  5375                           	callstack 0
  5376  002F20                     ___awdiv:
  5377                           	callstack 25
  5378  002F20  0E00               	movlw	0
  5379  002F22  0100               	movlb	0	; () banked
  5380  002F24  6F6B               	movwf	___awdiv@sign& (0+255),b
  5381  002F26                     
  5382                           ; BSR set to: 0
  5383  002F26  BF69               	btfsc	(___awdiv@divisor+1)& (0+255),7,b
  5384  002F28  EF9A  F017         	goto	u4530
  5385  002F2C  EF98  F017         	goto	u4531
  5386  002F30                     u4531:
  5387  002F30  EFA0  F017         	goto	l3939
  5388  002F34                     u4530:
  5389  002F34                     
  5390                           ; BSR set to: 0
  5391  002F34  6D68               	negf	___awdiv@divisor& (0+255),b
  5392  002F36  1F69               	comf	(___awdiv@divisor+1)& (0+255),f,b
  5393  002F38  B0D8               	btfsc	status,0,c
  5394  002F3A  2B69               	incf	(___awdiv@divisor+1)& (0+255),f,b
  5395  002F3C                     
  5396                           ; BSR set to: 0
  5397  002F3C  0E01               	movlw	1
  5398  002F3E  6F6B               	movwf	___awdiv@sign& (0+255),b
  5399  002F40                     l3939:
  5400                           
  5401                           ; BSR set to: 0
  5402  002F40  BF67               	btfsc	(___awdiv@dividend+1)& (0+255),7,b
  5403  002F42  EFA7  F017         	goto	u4540
  5404  002F46  EFA5  F017         	goto	u4541
  5405  002F4A                     u4541:
  5406  002F4A  EFAD  F017         	goto	l3945
  5407  002F4E                     u4540:
  5408  002F4E                     
  5409                           ; BSR set to: 0
  5410  002F4E  6D66               	negf	___awdiv@dividend& (0+255),b
  5411  002F50  1F67               	comf	(___awdiv@dividend+1)& (0+255),f,b
  5412  002F52  B0D8               	btfsc	status,0,c
  5413  002F54  2B67               	incf	(___awdiv@dividend+1)& (0+255),f,b
  5414  002F56                     
  5415                           ; BSR set to: 0
  5416  002F56  0E01               	movlw	1
  5417  002F58  1B6B               	xorwf	___awdiv@sign& (0+255),f,b
  5418  002F5A                     l3945:
  5419                           
  5420                           ; BSR set to: 0
  5421  002F5A  0E00               	movlw	0
  5422  002F5C  6F6D               	movwf	(___awdiv@quotient+1)& (0+255),b
  5423  002F5E  0E00               	movlw	0
  5424  002F60  6F6C               	movwf	___awdiv@quotient& (0+255),b
  5425  002F62                     
  5426                           ; BSR set to: 0
  5427  002F62  5168               	movf	___awdiv@divisor& (0+255),w,b
  5428  002F64  1169               	iorwf	(___awdiv@divisor+1)& (0+255),w,b
  5429  002F66  B4D8               	btfsc	status,2,c
  5430  002F68  EFB8  F017         	goto	u4551
  5431  002F6C  EFBA  F017         	goto	u4550
  5432  002F70                     u4551:
  5433  002F70  EFE2  F017         	goto	l3967
  5434  002F74                     u4550:
  5435  002F74                     
  5436                           ; BSR set to: 0
  5437  002F74  0E01               	movlw	1
  5438  002F76  6F6A               	movwf	___awdiv@counter& (0+255),b
  5439  002F78  EFC2  F017         	goto	l3953
  5440  002F7C                     l3951:
  5441                           
  5442                           ; BSR set to: 0
  5443  002F7C  90D8               	bcf	status,0,c
  5444  002F7E  3768               	rlcf	___awdiv@divisor& (0+255),f,b
  5445  002F80  3769               	rlcf	(___awdiv@divisor+1)& (0+255),f,b
  5446  002F82  2B6A               	incf	___awdiv@counter& (0+255),f,b
  5447  002F84                     l3953:
  5448                           
  5449                           ; BSR set to: 0
  5450  002F84  AF69               	btfss	(___awdiv@divisor+1)& (0+255),7,b
  5451  002F86  EFC7  F017         	goto	u4561
  5452  002F8A  EFC9  F017         	goto	u4560
  5453  002F8E                     u4561:
  5454  002F8E  EFBE  F017         	goto	l3951
  5455  002F92                     u4560:
  5456  002F92                     l3955:
  5457                           
  5458                           ; BSR set to: 0
  5459  002F92  90D8               	bcf	status,0,c
  5460  002F94  376C               	rlcf	___awdiv@quotient& (0+255),f,b
  5461  002F96  376D               	rlcf	(___awdiv@quotient+1)& (0+255),f,b
  5462  002F98                     
  5463                           ; BSR set to: 0
  5464  002F98  5168               	movf	___awdiv@divisor& (0+255),w,b
  5465  002F9A  5D66               	subwf	___awdiv@dividend& (0+255),w,b
  5466  002F9C  5169               	movf	(___awdiv@divisor+1)& (0+255),w,b
  5467  002F9E  5967               	subwfb	(___awdiv@dividend+1)& (0+255),w,b
  5468  002FA0  A0D8               	btfss	status,0,c
  5469  002FA2  EFD5  F017         	goto	u4571
  5470  002FA6  EFD7  F017         	goto	u4570
  5471  002FAA                     u4571:
  5472  002FAA  EFDC  F017         	goto	l3963
  5473  002FAE                     u4570:
  5474  002FAE                     
  5475                           ; BSR set to: 0
  5476  002FAE  5168               	movf	___awdiv@divisor& (0+255),w,b
  5477  002FB0  5F66               	subwf	___awdiv@dividend& (0+255),f,b
  5478  002FB2  5169               	movf	(___awdiv@divisor+1)& (0+255),w,b
  5479  002FB4  5B67               	subwfb	(___awdiv@dividend+1)& (0+255),f,b
  5480  002FB6                     
  5481                           ; BSR set to: 0
  5482  002FB6  816C               	bsf	___awdiv@quotient& (0+255),0,b
  5483  002FB8                     l3963:
  5484                           
  5485                           ; BSR set to: 0
  5486  002FB8  90D8               	bcf	status,0,c
  5487  002FBA  3369               	rrcf	(___awdiv@divisor+1)& (0+255),f,b
  5488  002FBC  3368               	rrcf	___awdiv@divisor& (0+255),f,b
  5489  002FBE                     
  5490                           ; BSR set to: 0
  5491  002FBE  2F6A               	decfsz	___awdiv@counter& (0+255),f,b
  5492  002FC0  EFC9  F017         	goto	l3955
  5493  002FC4                     l3967:
  5494                           
  5495                           ; BSR set to: 0
  5496  002FC4  516B               	movf	___awdiv@sign& (0+255),w,b
  5497  002FC6  B4D8               	btfsc	status,2,c
  5498  002FC8  EFE8  F017         	goto	u4581
  5499  002FCC  EFEA  F017         	goto	u4580
  5500  002FD0                     u4581:
  5501  002FD0  EFEE  F017         	goto	l3971
  5502  002FD4                     u4580:
  5503  002FD4                     
  5504                           ; BSR set to: 0
  5505  002FD4  6D6C               	negf	___awdiv@quotient& (0+255),b
  5506  002FD6  1F6D               	comf	(___awdiv@quotient+1)& (0+255),f,b
  5507  002FD8  B0D8               	btfsc	status,0,c
  5508  002FDA  2B6D               	incf	(___awdiv@quotient+1)& (0+255),f,b
  5509  002FDC                     l3971:
  5510                           
  5511                           ; BSR set to: 0
  5512  002FDC  C06C  F066         	movff	___awdiv@quotient,?___awdiv
  5513  002FE0  C06D  F067         	movff	___awdiv@quotient+1,?___awdiv+1
  5514  002FE4                     
  5515                           ; BSR set to: 0
  5516  002FE4  0012               	return		;funcret
  5517  002FE6                     __end_of___awdiv:
  5518                           	callstack 0
  5519                           
  5520 ;; *************** function _EnviaDato *****************
  5521 ;; Defined at:
  5522 ;;		line 60 in file "./LibLCDXC8.h"
  5523 ;; Parameters:    Size  Location     Type
  5524 ;;  a               1    wreg     unsigned char 
  5525 ;; Auto vars:     Size  Location     Type
  5526 ;;  a               1    4[BANK0 ] unsigned char 
  5527 ;; Return value:  Size  Location     Type
  5528 ;;                  1    wreg      void 
  5529 ;; Registers used:
  5530 ;;		wreg, status,2, status,0, cstack
  5531 ;; Tracked objects:
  5532 ;;		On entry : 0/0
  5533 ;;		On exit  : 0/0
  5534 ;;		Unchanged: 0/0
  5535 ;; Data sizes:     COMRAM   BANK0   BANK1   BANK2   BANK3   BANK4   BANK5   BANK6   BANK7
  5536 ;;      Params:         0       0       0       0       0       0       0       0       0
  5537 ;;      Locals:         0       1       0       0       0       0       0       0       0
  5538 ;;      Temps:          0       1       0       0       0       0       0       0       0
  5539 ;;      Totals:         0       2       0       0       0       0       0       0       0
  5540 ;;Total ram usage:        2 bytes
  5541 ;; Hardware stack levels used: 1
  5542 ;; Hardware stack levels required when called: 5
  5543 ;; This function calls:
  5544 ;;		_HabilitaLCD
  5545 ;;		_RetardoLCD
  5546 ;; This function is called by:
  5547 ;;		_InicializaLCD
  5548 ;;		_BorraLCD
  5549 ;;		_EscribeLCD_n8
  5550 ;;		_ComandoLCD
  5551 ;;		_EscribeLCD_c
  5552 ;;		_DireccionaLCD
  5553 ;;		_DesplazaPantallaD
  5554 ;;		_DesplazaCursorI
  5555 ;; This function uses a non-reentrant model
  5556 ;;
  5557                           
  5558                           	psect	text17
  5559  003120                     __ptext17:
  5560                           	callstack 0
  5561  003120                     _EnviaDato:
  5562                           	callstack 24
  5563                           
  5564                           ; BSR set to: 0
  5565                           ;incstack = 0
  5566                           ;EnviaDato@a stored from wreg
  5567  003120  0100               	movlb	0	; () banked
  5568  003122  6F64               	movwf	EnviaDato@a& (0+255),b
  5569  003124                     
  5570                           ;./LibLCDXC8.h: 61:  if(interfaz==4){
  5571  003124  0E04               	movlw	4
  5572  003126  184C               	xorwf	_interfaz^0,w,c
  5573  003128  A4D8               	btfss	status,2,c
  5574  00312A  EF99  F018         	goto	u3391
  5575  00312E  EF9B  F018         	goto	u3390
  5576  003132                     u3391:
  5577  003132  EFB5  F018         	goto	l3271
  5578  003136                     u3390:
  5579  003136                     
  5580                           ;./LibLCDXC8.h: 62:   LATD=(LATD & 0b00001111) | (a & 0b11110000);
  5581  003136  C064  F063         	movff	EnviaDato@a,??_EnviaDato
  5582  00313A  0EF0               	movlw	240
  5583  00313C  0100               	movlb	0	; () banked
  5584  00313E  1763               	andwf	??_EnviaDato& (0+255),f,b
  5585  003140  508C               	movf	140,w,c	;volatile
  5586  003142  0B0F               	andlw	15
  5587  003144  1163               	iorwf	??_EnviaDato& (0+255),w,b
  5588  003146  6E8C               	movwf	140,c	;volatile
  5589  003148                     
  5590                           ; BSR set to: 0
  5591                           ;./LibLCDXC8.h: 63:   HabilitaLCD();
  5592  003148  EC91  F019         	call	_HabilitaLCD	;wreg free
  5593  00314C                     
  5594                           ;./LibLCDXC8.h: 64:   RetardoLCD(1);
  5595  00314C  0E01               	movlw	1
  5596  00314E  EC4C  F018         	call	_RetardoLCD
  5597  003152                     
  5598                           ;./LibLCDXC8.h: 65:   LATD=(LATD & 0b00001111) | (a<<4);
  5599  003152  C064  F063         	movff	EnviaDato@a,??_EnviaDato
  5600  003156  0100               	movlb	0	; () banked
  5601  003158  3B63               	swapf	??_EnviaDato& (0+255),f,b
  5602  00315A  0EF0               	movlw	240
  5603  00315C  1763               	andwf	??_EnviaDato& (0+255),f,b
  5604  00315E  508C               	movf	140,w,c	;volatile
  5605  003160  0B0F               	andlw	15
  5606  003162  1163               	iorwf	??_EnviaDato& (0+255),w,b
  5607  003164  6E8C               	movwf	140,c	;volatile
  5608                           
  5609                           ;./LibLCDXC8.h: 68:  }else if(interfaz==8){
  5610  003166  EFC0  F018         	goto	l106
  5611  00316A                     l3271:
  5612  00316A  0E08               	movlw	8
  5613  00316C  184C               	xorwf	_interfaz^0,w,c
  5614  00316E  A4D8               	btfss	status,2,c
  5615  003170  EFBC  F018         	goto	u3401
  5616  003174  EFBE  F018         	goto	u3400
  5617  003178                     u3401:
  5618  003178  EFC0  F018         	goto	l106
  5619  00317C                     u3400:
  5620  00317C                     
  5621                           ;./LibLCDXC8.h: 69:   LATD=a;
  5622  00317C  C064  FF8C         	movff	EnviaDato@a,3980	;volatile
  5623  003180                     l106:
  5624  003180  0012               	return		;funcret
  5625  003182                     __end_of_EnviaDato:
  5626                           	callstack 0
  5627                           
  5628 ;; *************** function _RetardoLCD *****************
  5629 ;; Defined at:
  5630 ;;		line 403 in file "./LibLCDXC8.h"
  5631 ;; Parameters:    Size  Location     Type
  5632 ;;  a               1    wreg     unsigned char 
  5633 ;; Auto vars:     Size  Location     Type
  5634 ;;  a               1    2[BANK0 ] unsigned char 
  5635 ;; Return value:  Size  Location     Type
  5636 ;;                  1    wreg      void 
  5637 ;; Registers used:
  5638 ;;		wreg, status,2, status,0
  5639 ;; Tracked objects:
  5640 ;;		On entry : 0/0
  5641 ;;		On exit  : 0/0
  5642 ;;		Unchanged: 0/0
  5643 ;; Data sizes:     COMRAM   BANK0   BANK1   BANK2   BANK3   BANK4   BANK5   BANK6   BANK7
  5644 ;;      Params:         0       0       0       0       0       0       0       0       0
  5645 ;;      Locals:         0       1       0       0       0       0       0       0       0
  5646 ;;      Temps:          0       2       0       0       0       0       0       0       0
  5647 ;;      Totals:         0       3       0       0       0       0       0       0       0
  5648 ;;Total ram usage:        3 bytes
  5649 ;; Hardware stack levels used: 1
  5650 ;; Hardware stack levels required when called: 4
  5651 ;; This function calls:
  5652 ;;		Nothing
  5653 ;; This function is called by:
  5654 ;;		_EnviaDato
  5655 ;;		_InicializaLCD
  5656 ;;		_BorraLCD
  5657 ;;		_EscribeLCD_n8
  5658 ;;		_ComandoLCD
  5659 ;;		_EscribeLCD_c
  5660 ;;		_DireccionaLCD
  5661 ;;		_DesplazaPantallaD
  5662 ;;		_DesplazaCursorI
  5663 ;; This function uses a non-reentrant model
  5664 ;;
  5665                           
  5666                           	psect	text18
  5667  003098                     __ptext18:
  5668                           	callstack 0
  5669  003098                     _RetardoLCD:
  5670                           	callstack 25
  5671                           
  5672                           ;incstack = 0
  5673                           ;RetardoLCD@a stored from wreg
  5674  003098  0100               	movlb	0	; () banked
  5675  00309A  6F62               	movwf	RetardoLCD@a& (0+255),b
  5676  00309C                     
  5677                           ;./LibLCDXC8.h: 404:  switch(a){
  5678  00309C  EF71  F018         	goto	l3053
  5679  0030A0                     l3043:
  5680                           
  5681                           ; BSR set to: 0
  5682  0030A0  0E05               	movlw	5
  5683  0030A2  0100               	movlb	0	; () banked
  5684  0030A4  6F60               	movwf	??_RetardoLCD& (0+255),b
  5685  0030A6  0EDD               	movlw	221
  5686  0030A8                     u6027:
  5687  0030A8  2EE8               	decfsz	wreg,f,c
  5688  0030AA  D7FE               	bra	u6027
  5689  0030AC  2F60               	decfsz	??_RetardoLCD& (0+255),f,b
  5690  0030AE  D7FC               	bra	u6027
  5691  0030B0  D000               	nop2	
  5692                           
  5693                           ;./LibLCDXC8.h: 407:     break;
  5694  0030B2  EF8F  F018         	goto	l213
  5695  0030B6                     l3045:
  5696                           
  5697                           ; BSR set to: 0
  5698  0030B6  0E53               	movlw	83
  5699  0030B8                     u6037:
  5700  0030B8  2EE8               	decfsz	wreg,f,c
  5701  0030BA  D7FE               	bra	u6037
  5702  0030BC  F000               	nop	
  5703                           
  5704                           ;./LibLCDXC8.h: 409:                 _delay((unsigned long)((640)*(1000000/4000000.0)));
  5705  0030BE  0E35               	movlw	53
  5706  0030C0                     u6047:
  5707  0030C0  2EE8               	decfsz	wreg,f,c
  5708  0030C2  D7FE               	bra	u6047
  5709  0030C4  F000               	nop	
  5710                           
  5711                           ;./LibLCDXC8.h: 411:     break;
  5712  0030C6  EF8F  F018         	goto	l213
  5713  0030CA                     l3047:
  5714                           
  5715                           ; BSR set to: 0
  5716  0030CA  0E08               	movlw	8
  5717  0030CC                     u6057:
  5718  0030CC  2EE8               	decfsz	wreg,f,c
  5719  0030CE  D7FE               	bra	u6057
  5720  0030D0  F000               	nop	
  5721                           
  5722                           ;./LibLCDXC8.h: 414:     break;
  5723  0030D2  EF8F  F018         	goto	l213
  5724  0030D6                     l3049:
  5725                           
  5726                           ; BSR set to: 0
  5727  0030D6  0E03               	movlw	3
  5728  0030D8                     u6067:
  5729  0030D8  2EE8               	decfsz	wreg,f,c
  5730  0030DA  D7FE               	bra	u6067
  5731  0030DC  F000               	nop	
  5732                           
  5733                           ;./LibLCDXC8.h: 417:     break;
  5734  0030DE  EF8F  F018         	goto	l213
  5735  0030E2                     l3053:
  5736  0030E2  0100               	movlb	0	; () banked
  5737  0030E4  5162               	movf	RetardoLCD@a& (0+255),w,b
  5738  0030E6  6F60               	movwf	??_RetardoLCD& (0+255),b
  5739  0030E8  6B61               	clrf	(??_RetardoLCD+1)& (0+255),b
  5740                           
  5741                           ; Switch on 2 bytes has been partitioned into a top level switch of size 1, and 1 sub-sw
      +                          itches
  5742                           ; Switch size 1, requested type "simple"
  5743                           ; Number of cases is 1, Range of values is 0 to 0
  5744                           ; switch strategies available:
  5745                           ; Name         Instructions Cycles
  5746                           ; simple_byte            4     3 (average)
  5747                           ;	Chosen strategy is simple_byte
  5748  0030EA  5161               	movf	(??_RetardoLCD+1)& (0+255),w,b
  5749  0030EC  0A00               	xorlw	0	; case 0
  5750  0030EE  B4D8               	btfsc	status,2,c
  5751  0030F0  EF7C  F018         	goto	l5059
  5752  0030F4  EF8F  F018         	goto	l213
  5753  0030F8                     l5059:
  5754                           
  5755                           ; BSR set to: 0
  5756                           ; Switch size 1, requested type "simple"
  5757                           ; Number of cases is 4, Range of values is 1 to 4
  5758                           ; switch strategies available:
  5759                           ; Name         Instructions Cycles
  5760                           ; simple_byte           13     7 (average)
  5761                           ;	Chosen strategy is simple_byte
  5762  0030F8  5160               	movf	??_RetardoLCD& (0+255),w,b
  5763  0030FA  0A01               	xorlw	1	; case 1
  5764  0030FC  B4D8               	btfsc	status,2,c
  5765  0030FE  EF50  F018         	goto	l3043
  5766  003102  0A03               	xorlw	3	; case 2
  5767  003104  B4D8               	btfsc	status,2,c
  5768  003106  EF5B  F018         	goto	l3045
  5769  00310A  0A01               	xorlw	1	; case 3
  5770  00310C  B4D8               	btfsc	status,2,c
  5771  00310E  EF65  F018         	goto	l3047
  5772  003112  0A07               	xorlw	7	; case 4
  5773  003114  B4D8               	btfsc	status,2,c
  5774  003116  EF6B  F018         	goto	l3049
  5775  00311A  EF8F  F018         	goto	l213
  5776  00311E                     l213:
  5777  00311E  0012               	return		;funcret
  5778  003120                     __end_of_RetardoLCD:
  5779                           	callstack 0
  5780                           
  5781 ;; *************** function _HabilitaLCD *****************
  5782 ;; Defined at:
  5783 ;;		line 106 in file "./LibLCDXC8.h"
  5784 ;; Parameters:    Size  Location     Type
  5785 ;;		None
  5786 ;; Auto vars:     Size  Location     Type
  5787 ;;		None
  5788 ;; Return value:  Size  Location     Type
  5789 ;;                  1    wreg      void 
  5790 ;; Registers used:
  5791 ;;		wreg
  5792 ;; Tracked objects:
  5793 ;;		On entry : 0/0
  5794 ;;		On exit  : 0/0
  5795 ;;		Unchanged: 0/0
  5796 ;; Data sizes:     COMRAM   BANK0   BANK1   BANK2   BANK3   BANK4   BANK5   BANK6   BANK7
  5797 ;;      Params:         0       0       0       0       0       0       0       0       0
  5798 ;;      Locals:         0       0       0       0       0       0       0       0       0
  5799 ;;      Temps:          0       0       0       0       0       0       0       0       0
  5800 ;;      Totals:         0       0       0       0       0       0       0       0       0
  5801 ;;Total ram usage:        0 bytes
  5802 ;; Hardware stack levels used: 1
  5803 ;; Hardware stack levels required when called: 4
  5804 ;; This function calls:
  5805 ;;		Nothing
  5806 ;; This function is called by:
  5807 ;;		_EnviaDato
  5808 ;;		_InicializaLCD
  5809 ;;		_BorraLCD
  5810 ;;		_EscribeLCD_n8
  5811 ;;		_ComandoLCD
  5812 ;;		_EscribeLCD_c
  5813 ;;		_DireccionaLCD
  5814 ;;		_DesplazaPantallaD
  5815 ;;		_DesplazaCursorI
  5816 ;; This function uses a non-reentrant model
  5817 ;;
  5818                           
  5819                           	psect	text19
  5820  003322                     __ptext19:
  5821                           	callstack 0
  5822  003322                     _HabilitaLCD:
  5823                           	callstack 25
  5824  003322                     
  5825                           ;./LibLCDXC8.h: 108:  LATD1=1;
  5826  003322  828C               	bsf	3980,1,c	;volatile
  5827  003324                     
  5828                           ;./LibLCDXC8.h: 109:  _delay((unsigned long)((40)*(1000000/4000000.0)));
  5829  003324  0E03               	movlw	3
  5830  003326                     u6077:
  5831  003326  2EE8               	decfsz	wreg,f,c
  5832  003328  D7FE               	bra	u6077
  5833  00332A  F000               	nop	
  5834  00332C                     
  5835                           ;./LibLCDXC8.h: 111:  LATD1=0;
  5836  00332C  928C               	bcf	3980,1,c	;volatile
  5837  00332E  0012               	return		;funcret
  5838  003330                     __end_of_HabilitaLCD:
  5839                           	callstack 0
  5840                           
  5841 ;; *************** function _ConfiguraLCD *****************
  5842 ;; Defined at:
  5843 ;;		line 56 in file "./LibLCDXC8.h"
  5844 ;; Parameters:    Size  Location     Type
  5845 ;;  a               1    wreg     unsigned char 
  5846 ;; Auto vars:     Size  Location     Type
  5847 ;;  a               1    0[BANK0 ] unsigned char 
  5848 ;; Return value:  Size  Location     Type
  5849 ;;                  1    wreg      void 
  5850 ;; Registers used:
  5851 ;;		wreg, status,2, status,0
  5852 ;; Tracked objects:
  5853 ;;		On entry : 0/0
  5854 ;;		On exit  : 0/0
  5855 ;;		Unchanged: 0/0
  5856 ;; Data sizes:     COMRAM   BANK0   BANK1   BANK2   BANK3   BANK4   BANK5   BANK6   BANK7
  5857 ;;      Params:         0       0       0       0       0       0       0       0       0
  5858 ;;      Locals:         0       1       0       0       0       0       0       0       0
  5859 ;;      Temps:          0       0       0       0       0       0       0       0       0
  5860 ;;      Totals:         0       1       0       0       0       0       0       0       0
  5861 ;;Total ram usage:        1 bytes
  5862 ;; Hardware stack levels used: 1
  5863 ;; Hardware stack levels required when called: 4
  5864 ;; This function calls:
  5865 ;;		Nothing
  5866 ;; This function is called by:
  5867 ;;		_main
  5868 ;; This function uses a non-reentrant model
  5869 ;;
  5870                           
  5871                           	psect	text20
  5872  0032B0                     __ptext20:
  5873                           	callstack 0
  5874  0032B0                     _ConfiguraLCD:
  5875                           	callstack 26
  5876                           
  5877                           ;incstack = 0
  5878                           ;ConfiguraLCD@a stored from wreg
  5879  0032B0  0100               	movlb	0	; () banked
  5880  0032B2  6F60               	movwf	ConfiguraLCD@a& (0+255),b
  5881  0032B4                     
  5882                           ;./LibLCDXC8.h: 57:  if(a==4 | a ==8)
  5883  0032B4  0E04               	movlw	4
  5884  0032B6  0100               	movlb	0	; () banked
  5885  0032B8  1960               	xorwf	ConfiguraLCD@a& (0+255),w,b
  5886  0032BA  B4D8               	btfsc	status,2,c
  5887  0032BC  EF62  F019         	goto	u5301
  5888  0032C0  EF64  F019         	goto	u5300
  5889  0032C4                     u5301:
  5890  0032C4  EF6D  F019         	goto	l99
  5891  0032C8                     u5300:
  5892  0032C8                     
  5893                           ; BSR set to: 0
  5894  0032C8  0E08               	movlw	8
  5895  0032CA  1960               	xorwf	ConfiguraLCD@a& (0+255),w,b
  5896  0032CC  A4D8               	btfss	status,2,c
  5897  0032CE  EF6B  F019         	goto	u5311
  5898  0032D2  EF6D  F019         	goto	u5310
  5899  0032D6                     u5311:
  5900  0032D6  EF6F  F019         	goto	l100
  5901  0032DA                     u5310:
  5902  0032DA                     l99:
  5903                           
  5904                           ; BSR set to: 0
  5905                           ;./LibLCDXC8.h: 58:   interfaz=a;
  5906  0032DA  C060  F04C         	movff	ConfiguraLCD@a,_interfaz
  5907  0032DE                     l100:
  5908                           
  5909                           ; BSR set to: 0
  5910  0032DE  0012               	return		;funcret
  5911  0032E0                     __end_of_ConfiguraLCD:
  5912                           	callstack 0
  5913                           
  5914 ;; *************** function _ISR *****************
  5915 ;; Defined at:
  5916 ;;		line 167 in file "Lab6.c"
  5917 ;; Parameters:    Size  Location     Type
  5918 ;;		None
  5919 ;; Auto vars:     Size  Location     Type
  5920 ;;		None
  5921 ;; Return value:  Size  Location     Type
  5922 ;;                  1    wreg      void 
  5923 ;; Registers used:
  5924 ;;		wreg, status,2, status,0, prodl, prodh, cstack
  5925 ;; Tracked objects:
  5926 ;;		On entry : 0/0
  5927 ;;		On exit  : 0/0
  5928 ;;		Unchanged: 0/0
  5929 ;; Data sizes:     COMRAM   BANK0   BANK1   BANK2   BANK3   BANK4   BANK5   BANK6   BANK7
  5930 ;;      Params:         0       0       0       0       0       0       0       0       0
  5931 ;;      Locals:         0       0       0       0       0       0       0       0       0
  5932 ;;      Temps:          4       0       0       0       0       0       0       0       0
  5933 ;;      Totals:         4       0       0       0       0       0       0       0       0
  5934 ;;Total ram usage:        4 bytes
  5935 ;; Hardware stack levels used: 1
  5936 ;; Hardware stack levels required when called: 3
  5937 ;; This function calls:
  5938 ;;		i2_Transmitir
  5939 ;;		i2_desaceleracion
  5940 ;; This function is called by:
  5941 ;;		Interrupt level 2
  5942 ;; This function uses a non-reentrant model
  5943 ;;
  5944                           
  5945                           	psect	intcode
  5946  000008                     __pintcode:
  5947                           	callstack 0
  5948  000008                     _ISR:
  5949                           	callstack 23
  5950                           
  5951                           ; BSR set to: 0
  5952                           ;incstack = 0
  5953  000008  824D               	bsf	int$flags,1,c	;set compiler interrupt flag (level 2)
  5954  00000A  EDF5  F008         	call	int_func,f	;refresh shadow registers
  5955                           
  5956                           	psect	intcode_body
  5957  0011EA                     __pintcode_body:
  5958                           	callstack 23
  5959  0011EA                     int_func:
  5960                           	callstack 23
  5961  0011EA  0006               	pop		; remove dummy address from shadow register refresh
  5962  0011EC  CFF3 F049          	movff	prodl,??_ISR+2
  5963  0011F0  CFF4 F04A          	movff	prodh,??_ISR+3
  5964  0011F4                     
  5965                           ;Lab6.c: 168:       if(lectura=='M' || lectura=='m')PWM=PWM/2;
  5966  0011F4  AA9E               	btfss	3998,5,c	;volatile
  5967  0011F6  EFFF  F008         	goto	i2u554_41
  5968  0011FA  EF01  F009         	goto	i2u554_40
  5969  0011FE                     i2u554_41:
  5970  0011FE  EFC3  F00A         	goto	i2l4995
  5971  001202                     i2u554_40:
  5972  001202                     
  5973                           ;Lab6.c: 169:       if(lectura=='N' || lectura=='n')PWM=PWM*2;
  5974  001202  CFAE F04B          	movff	4014,_lectura	;volatile
  5975                           
  5976                           ;Lab6.c: 170:       if(lectura=='W' || lectura=='w')estado=2;
  5977  001206  B68C               	btfsc	3980,3,c	;volatile
  5978  001208  EF08  F009         	goto	i2u555_41
  5979  00120C  EF0A  F009         	goto	i2u555_40
  5980  001210                     i2u555_41:
  5981  001210  EFC2  F00A         	goto	i2l4993
  5982  001214                     i2u555_40:
  5983  001214                     
  5984                           ;Lab6.c: 171:       if(lectura=='X' || lectura=='x')estado=3;
  5985  001214  0E41               	movlw	65
  5986  001216  184B               	xorwf	_lectura^0,w,c
  5987  001218  B4D8               	btfsc	status,2,c
  5988  00121A  EF11  F009         	goto	i2u556_41
  5989  00121E  EF13  F009         	goto	i2u556_40
  5990  001222                     i2u556_41:
  5991  001222  EF1C  F009         	goto	i2l4885
  5992  001226                     i2u556_40:
  5993  001226  0E61               	movlw	97
  5994  001228  184B               	xorwf	_lectura^0,w,c
  5995  00122A  A4D8               	btfss	status,2,c
  5996  00122C  EF1A  F009         	goto	i2u557_41
  5997  001230  EF1C  F009         	goto	i2u557_40
  5998  001234                     i2u557_41:
  5999  001234  EF21  F009         	goto	i2l4887
  6000  001238                     i2u557_40:
  6001  001238                     i2l4885:
  6002  001238  0E00               	movlw	0
  6003  00123A  0100               	movlb	0	; () banked
  6004  00123C  6FB7               	movwf	(_PWM+1)& (0+255),b
  6005  00123E  0E00               	movlw	0
  6006  001240  6FB6               	movwf	_PWM& (0+255),b
  6007  001242                     i2l4887:
  6008                           
  6009                           ;Lab6.c: 172:       if(lectura=='Y' || lectura=='y')tiempo=4;
  6010  001242  0E42               	movlw	66
  6011  001244  184B               	xorwf	_lectura^0,w,c
  6012  001246  B4D8               	btfsc	status,2,c
  6013  001248  EF28  F009         	goto	i2u558_41
  6014  00124C  EF2A  F009         	goto	i2u558_40
  6015  001250                     i2u558_41:
  6016  001250  EF33  F009         	goto	i2l4891
  6017  001254                     i2u558_40:
  6018  001254  0E62               	movlw	98
  6019  001256  184B               	xorwf	_lectura^0,w,c
  6020  001258  A4D8               	btfss	status,2,c
  6021  00125A  EF31  F009         	goto	i2u559_41
  6022  00125E  EF33  F009         	goto	i2u559_40
  6023  001262                     i2u559_41:
  6024  001262  EF38  F009         	goto	i2l4893
  6025  001266                     i2u559_40:
  6026  001266                     i2l4891:
  6027  001266  0E00               	movlw	0
  6028  001268  0100               	movlb	0	; () banked
  6029  00126A  6FB7               	movwf	(_PWM+1)& (0+255),b
  6030  00126C  0E19               	movlw	25
  6031  00126E  6FB6               	movwf	_PWM& (0+255),b
  6032  001270                     i2l4893:
  6033                           
  6034                           ;Lab6.c: 173:       if(lectura=='Z' || lectura=='z')tiempo=10;
  6035  001270  0E43               	movlw	67
  6036  001272  184B               	xorwf	_lectura^0,w,c
  6037  001274  B4D8               	btfsc	status,2,c
  6038  001276  EF3F  F009         	goto	i2u560_41
  6039  00127A  EF41  F009         	goto	i2u560_40
  6040  00127E                     i2u560_41:
  6041  00127E  EF4A  F009         	goto	i2l4897
  6042  001282                     i2u560_40:
  6043  001282  0E63               	movlw	99
  6044  001284  184B               	xorwf	_lectura^0,w,c
  6045  001286  A4D8               	btfss	status,2,c
  6046  001288  EF48  F009         	goto	i2u561_41
  6047  00128C  EF4A  F009         	goto	i2u561_40
  6048  001290                     i2u561_41:
  6049  001290  EF4F  F009         	goto	i2l4899
  6050  001294                     i2u561_40:
  6051  001294                     i2l4897:
  6052  001294  0E00               	movlw	0
  6053  001296  0100               	movlb	0	; () banked
  6054  001298  6FB7               	movwf	(_PWM+1)& (0+255),b
  6055  00129A  0E32               	movlw	50
  6056  00129C  6FB6               	movwf	_PWM& (0+255),b
  6057  00129E                     i2l4899:
  6058                           
  6059                           ;Lab6.c: 174:       if(estado==0) estado=4;
  6060  00129E  0E44               	movlw	68
  6061  0012A0  184B               	xorwf	_lectura^0,w,c
  6062  0012A2  B4D8               	btfsc	status,2,c
  6063  0012A4  EF56  F009         	goto	i2u562_41
  6064  0012A8  EF58  F009         	goto	i2u562_40
  6065  0012AC                     i2u562_41:
  6066  0012AC  EF61  F009         	goto	i2l4903
  6067  0012B0                     i2u562_40:
  6068  0012B0  0E64               	movlw	100
  6069  0012B2  184B               	xorwf	_lectura^0,w,c
  6070  0012B4  A4D8               	btfss	status,2,c
  6071  0012B6  EF5F  F009         	goto	i2u563_41
  6072  0012BA  EF61  F009         	goto	i2u563_40
  6073  0012BE                     i2u563_41:
  6074  0012BE  EF66  F009         	goto	i2l4905
  6075  0012C2                     i2u563_40:
  6076  0012C2                     i2l4903:
  6077  0012C2  0E00               	movlw	0
  6078  0012C4  0100               	movlb	0	; () banked
  6079  0012C6  6FB7               	movwf	(_PWM+1)& (0+255),b
  6080  0012C8  0E4B               	movlw	75
  6081  0012CA  6FB6               	movwf	_PWM& (0+255),b
  6082  0012CC                     i2l4905:
  6083                           
  6084                           ;Lab6.c: 175: 
  6085  0012CC  0E45               	movlw	69
  6086  0012CE  184B               	xorwf	_lectura^0,w,c
  6087  0012D0  B4D8               	btfsc	status,2,c
  6088  0012D2  EF6D  F009         	goto	i2u564_41
  6089  0012D6  EF6F  F009         	goto	i2u564_40
  6090  0012DA                     i2u564_41:
  6091  0012DA  EF78  F009         	goto	i2l4909
  6092  0012DE                     i2u564_40:
  6093  0012DE  0E65               	movlw	101
  6094  0012E0  184B               	xorwf	_lectura^0,w,c
  6095  0012E2  A4D8               	btfss	status,2,c
  6096  0012E4  EF76  F009         	goto	i2u565_41
  6097  0012E8  EF78  F009         	goto	i2u565_40
  6098  0012EC                     i2u565_41:
  6099  0012EC  EF7D  F009         	goto	i2l4911
  6100  0012F0                     i2u565_40:
  6101  0012F0                     i2l4909:
  6102  0012F0  0E00               	movlw	0
  6103  0012F2  0100               	movlb	0	; () banked
  6104  0012F4  6FB7               	movwf	(_PWM+1)& (0+255),b
  6105  0012F6  0E64               	movlw	100
  6106  0012F8  6FB6               	movwf	_PWM& (0+255),b
  6107  0012FA                     i2l4911:
  6108                           
  6109                           ;Lab6.c: 176: 
  6110  0012FA  0E46               	movlw	70
  6111  0012FC  184B               	xorwf	_lectura^0,w,c
  6112  0012FE  B4D8               	btfsc	status,2,c
  6113  001300  EF84  F009         	goto	i2u566_41
  6114  001304  EF86  F009         	goto	i2u566_40
  6115  001308                     i2u566_41:
  6116  001308  EF8F  F009         	goto	i2l4915
  6117  00130C                     i2u566_40:
  6118  00130C  0E66               	movlw	102
  6119  00130E  184B               	xorwf	_lectura^0,w,c
  6120  001310  A4D8               	btfss	status,2,c
  6121  001312  EF8D  F009         	goto	i2u567_41
  6122  001316  EF8F  F009         	goto	i2u567_40
  6123  00131A                     i2u567_41:
  6124  00131A  EF94  F009         	goto	i2l4917
  6125  00131E                     i2u567_40:
  6126  00131E                     i2l4915:
  6127  00131E  0E00               	movlw	0
  6128  001320  0100               	movlb	0	; () banked
  6129  001322  6FB7               	movwf	(_PWM+1)& (0+255),b
  6130  001324  0E7D               	movlw	125
  6131  001326  6FB6               	movwf	_PWM& (0+255),b
  6132  001328                     i2l4917:
  6133                           
  6134                           ;Lab6.c: 177: 
  6135  001328  0E47               	movlw	71
  6136  00132A  184B               	xorwf	_lectura^0,w,c
  6137  00132C  B4D8               	btfsc	status,2,c
  6138  00132E  EF9B  F009         	goto	i2u568_41
  6139  001332  EF9D  F009         	goto	i2u568_40
  6140  001336                     i2u568_41:
  6141  001336  EFA6  F009         	goto	i2l4921
  6142  00133A                     i2u568_40:
  6143  00133A  0E67               	movlw	103
  6144  00133C  184B               	xorwf	_lectura^0,w,c
  6145  00133E  A4D8               	btfss	status,2,c
  6146  001340  EFA4  F009         	goto	i2u569_41
  6147  001344  EFA6  F009         	goto	i2u569_40
  6148  001348                     i2u569_41:
  6149  001348  EFAB  F009         	goto	i2l4923
  6150  00134C                     i2u569_40:
  6151  00134C                     i2l4921:
  6152  00134C  0E00               	movlw	0
  6153  00134E  0100               	movlb	0	; () banked
  6154  001350  6FB7               	movwf	(_PWM+1)& (0+255),b
  6155  001352  0E96               	movlw	150
  6156  001354  6FB6               	movwf	_PWM& (0+255),b
  6157  001356                     i2l4923:
  6158                           
  6159                           ;Lab6.c: 178:       Transmitir(lectura);
  6160  001356  0E48               	movlw	72
  6161  001358  184B               	xorwf	_lectura^0,w,c
  6162  00135A  B4D8               	btfsc	status,2,c
  6163  00135C  EFB2  F009         	goto	i2u570_41
  6164  001360  EFB4  F009         	goto	i2u570_40
  6165  001364                     i2u570_41:
  6166  001364  EFBD  F009         	goto	i2l4927
  6167  001368                     i2u570_40:
  6168  001368  0E68               	movlw	104
  6169  00136A  184B               	xorwf	_lectura^0,w,c
  6170  00136C  A4D8               	btfss	status,2,c
  6171  00136E  EFBB  F009         	goto	i2u571_41
  6172  001372  EFBD  F009         	goto	i2u571_40
  6173  001376                     i2u571_41:
  6174  001376  EFC2  F009         	goto	i2l4929
  6175  00137A                     i2u571_40:
  6176  00137A                     i2l4927:
  6177  00137A  0E00               	movlw	0
  6178  00137C  0100               	movlb	0	; () banked
  6179  00137E  6FB7               	movwf	(_PWM+1)& (0+255),b
  6180  001380  0EAF               	movlw	175
  6181  001382  6FB6               	movwf	_PWM& (0+255),b
  6182  001384                     i2l4929:
  6183                           
  6184                           ;Lab6.c: 179:       Transmitir(estado+48);
  6185  001384  0E49               	movlw	73
  6186  001386  184B               	xorwf	_lectura^0,w,c
  6187  001388  B4D8               	btfsc	status,2,c
  6188  00138A  EFC9  F009         	goto	i2u572_41
  6189  00138E  EFCB  F009         	goto	i2u572_40
  6190  001392                     i2u572_41:
  6191  001392  EFD4  F009         	goto	i2l4933
  6192  001396                     i2u572_40:
  6193  001396  0E69               	movlw	105
  6194  001398  184B               	xorwf	_lectura^0,w,c
  6195  00139A  A4D8               	btfss	status,2,c
  6196  00139C  EFD2  F009         	goto	i2u573_41
  6197  0013A0  EFD4  F009         	goto	i2u573_40
  6198  0013A4                     i2u573_41:
  6199  0013A4  EFD9  F009         	goto	i2l4935
  6200  0013A8                     i2u573_40:
  6201  0013A8                     i2l4933:
  6202  0013A8  0E00               	movlw	0
  6203  0013AA  0100               	movlb	0	; () banked
  6204  0013AC  6FB7               	movwf	(_PWM+1)& (0+255),b
  6205  0013AE  0EC8               	movlw	200
  6206  0013B0  6FB6               	movwf	_PWM& (0+255),b
  6207  0013B2                     i2l4935:
  6208                           
  6209                           ;Lab6.c: 180:       }
  6210  0013B2  0E4A               	movlw	74
  6211  0013B4  184B               	xorwf	_lectura^0,w,c
  6212  0013B6  B4D8               	btfsc	status,2,c
  6213  0013B8  EFE0  F009         	goto	i2u574_41
  6214  0013BC  EFE2  F009         	goto	i2u574_40
  6215  0013C0                     i2u574_41:
  6216  0013C0  EFEB  F009         	goto	i2l4939
  6217  0013C4                     i2u574_40:
  6218  0013C4  0E6A               	movlw	106
  6219  0013C6  184B               	xorwf	_lectura^0,w,c
  6220  0013C8  A4D8               	btfss	status,2,c
  6221  0013CA  EFE9  F009         	goto	i2u575_41
  6222  0013CE  EFEB  F009         	goto	i2u575_40
  6223  0013D2                     i2u575_41:
  6224  0013D2  EFF0  F009         	goto	i2l4941
  6225  0013D6                     i2u575_40:
  6226  0013D6                     i2l4939:
  6227  0013D6  0E00               	movlw	0
  6228  0013D8  0100               	movlb	0	; () banked
  6229  0013DA  6FB7               	movwf	(_PWM+1)& (0+255),b
  6230  0013DC  0EE1               	movlw	225
  6231  0013DE  6FB6               	movwf	_PWM& (0+255),b
  6232  0013E0                     i2l4941:
  6233                           
  6234                           ;Lab6.c: 181:       RCIF=0;
  6235  0013E0  0E4B               	movlw	75
  6236  0013E2  184B               	xorwf	_lectura^0,w,c
  6237  0013E4  B4D8               	btfsc	status,2,c
  6238  0013E6  EFF7  F009         	goto	i2u576_41
  6239  0013EA  EFF9  F009         	goto	i2u576_40
  6240  0013EE                     i2u576_41:
  6241  0013EE  EF02  F00A         	goto	i2l4945
  6242  0013F2                     i2u576_40:
  6243  0013F2  0E6B               	movlw	107
  6244  0013F4  184B               	xorwf	_lectura^0,w,c
  6245  0013F6  A4D8               	btfss	status,2,c
  6246  0013F8  EF00  F00A         	goto	i2u577_41
  6247  0013FC  EF02  F00A         	goto	i2u577_40
  6248  001400                     i2u577_41:
  6249  001400  EF07  F00A         	goto	i2l4947
  6250  001404                     i2u577_40:
  6251  001404                     i2l4945:
  6252  001404  0E00               	movlw	0
  6253  001406  0100               	movlb	0	; () banked
  6254  001408  6FB7               	movwf	(_PWM+1)& (0+255),b
  6255  00140A  0EFA               	movlw	250
  6256  00140C  6FB6               	movwf	_PWM& (0+255),b
  6257  00140E                     i2l4947:
  6258                           
  6259                           ;Lab6.c: 182:     }
  6260  00140E  0E4C               	movlw	76
  6261  001410  184B               	xorwf	_lectura^0,w,c
  6262  001412  B4D8               	btfsc	status,2,c
  6263  001414  EF0E  F00A         	goto	i2u578_41
  6264  001418  EF10  F00A         	goto	i2u578_40
  6265  00141C                     i2u578_41:
  6266  00141C  EF19  F00A         	goto	i2l4951
  6267  001420                     i2u578_40:
  6268  001420  0E6C               	movlw	108
  6269  001422  184B               	xorwf	_lectura^0,w,c
  6270  001424  A4D8               	btfss	status,2,c
  6271  001426  EF17  F00A         	goto	i2u579_41
  6272  00142A  EF19  F00A         	goto	i2u579_40
  6273  00142E                     i2u579_41:
  6274  00142E  EF1E  F00A         	goto	i2l4953
  6275  001432                     i2u579_40:
  6276  001432                     i2l4951:
  6277  001432  0E00               	movlw	0
  6278  001434  0100               	movlb	0	; () banked
  6279  001436  6FB5               	movwf	(_estado+1)& (0+255),b
  6280  001438  0E01               	movlw	1
  6281  00143A  6FB4               	movwf	_estado& (0+255),b
  6282  00143C                     i2l4953:
  6283                           
  6284                           ;Lab6.c: 183:     if(INT0IF==1){
  6285  00143C  0E4D               	movlw	77
  6286  00143E  184B               	xorwf	_lectura^0,w,c
  6287  001440  B4D8               	btfsc	status,2,c
  6288  001442  EF25  F00A         	goto	i2u580_41
  6289  001446  EF27  F00A         	goto	i2u580_40
  6290  00144A                     i2u580_41:
  6291  00144A  EF30  F00A         	goto	i2l4957
  6292  00144E                     i2u580_40:
  6293  00144E  0E6D               	movlw	109
  6294  001450  184B               	xorwf	_lectura^0,w,c
  6295  001452  A4D8               	btfss	status,2,c
  6296  001454  EF2E  F00A         	goto	i2u581_41
  6297  001458  EF30  F00A         	goto	i2u581_40
  6298  00145C                     i2u581_41:
  6299  00145C  EF38  F00A         	goto	i2l316
  6300  001460                     i2u581_40:
  6301  001460                     i2l4957:
  6302  001460  90D8               	bcf	status,0,c
  6303  001462  0100               	movlb	0	; () banked
  6304  001464  31B7               	rrcf	(_PWM+1)& (0+255),w,b
  6305  001466  6E47               	movwf	??_ISR^0,c
  6306  001468  31B6               	rrcf	_PWM& (0+255),w,b
  6307  00146A  6FB6               	movwf	_PWM& (0+255),b
  6308  00146C  C047  F0B7         	movff	??_ISR,_PWM+1
  6309  001470                     i2l316:
  6310                           
  6311                           ;Lab6.c: 184: 
  6312  001470  0E4E               	movlw	78
  6313  001472  184B               	xorwf	_lectura^0,w,c
  6314  001474  B4D8               	btfsc	status,2,c
  6315  001476  EF3F  F00A         	goto	i2u582_41
  6316  00147A  EF41  F00A         	goto	i2u582_40
  6317  00147E                     i2u582_41:
  6318  00147E  EF4A  F00A         	goto	i2l4961
  6319  001482                     i2u582_40:
  6320  001482  0E6E               	movlw	110
  6321  001484  184B               	xorwf	_lectura^0,w,c
  6322  001486  A4D8               	btfss	status,2,c
  6323  001488  EF48  F00A         	goto	i2u583_41
  6324  00148C  EF4A  F00A         	goto	i2u583_40
  6325  001490                     i2u583_41:
  6326  001490  EF50  F00A         	goto	i2l319
  6327  001494                     i2u583_40:
  6328  001494                     i2l4961:
  6329  001494  90D8               	bcf	status,0,c
  6330  001496  0100               	movlb	0	; () banked
  6331  001498  35B6               	rlcf	_PWM& (0+255),w,b
  6332  00149A  6FB6               	movwf	_PWM& (0+255),b
  6333  00149C  35B7               	rlcf	(_PWM+1)& (0+255),w,b
  6334  00149E  6FB7               	movwf	(_PWM+1)& (0+255),b
  6335  0014A0                     i2l319:
  6336                           
  6337                           ;Lab6.c: 185:        LATD3=!LATD3;
  6338  0014A0  0E57               	movlw	87
  6339  0014A2  184B               	xorwf	_lectura^0,w,c
  6340  0014A4  B4D8               	btfsc	status,2,c
  6341  0014A6  EF57  F00A         	goto	i2u584_41
  6342  0014AA  EF59  F00A         	goto	i2u584_40
  6343  0014AE                     i2u584_41:
  6344  0014AE  EF62  F00A         	goto	i2l4965
  6345  0014B2                     i2u584_40:
  6346  0014B2  0E77               	movlw	119
  6347  0014B4  184B               	xorwf	_lectura^0,w,c
  6348  0014B6  A4D8               	btfss	status,2,c
  6349  0014B8  EF60  F00A         	goto	i2u585_41
  6350  0014BC  EF62  F00A         	goto	i2u585_40
  6351  0014C0                     i2u585_41:
  6352  0014C0  EF67  F00A         	goto	i2l4967
  6353  0014C4                     i2u585_40:
  6354  0014C4                     i2l4965:
  6355  0014C4  0E00               	movlw	0
  6356  0014C6  0100               	movlb	0	; () banked
  6357  0014C8  6FB5               	movwf	(_estado+1)& (0+255),b
  6358  0014CA  0E02               	movlw	2
  6359  0014CC  6FB4               	movwf	_estado& (0+255),b
  6360  0014CE                     i2l4967:
  6361                           
  6362                           ;Lab6.c: 186:        Transmitir('P');
  6363  0014CE  0E58               	movlw	88
  6364  0014D0  184B               	xorwf	_lectura^0,w,c
  6365  0014D2  B4D8               	btfsc	status,2,c
  6366  0014D4  EF6E  F00A         	goto	i2u586_41
  6367  0014D8  EF70  F00A         	goto	i2u586_40
  6368  0014DC                     i2u586_41:
  6369  0014DC  EF79  F00A         	goto	i2l4971
  6370  0014E0                     i2u586_40:
  6371  0014E0  0E78               	movlw	120
  6372  0014E2  184B               	xorwf	_lectura^0,w,c
  6373  0014E4  A4D8               	btfss	status,2,c
  6374  0014E6  EF77  F00A         	goto	i2u587_41
  6375  0014EA  EF79  F00A         	goto	i2u587_40
  6376  0014EE                     i2u587_41:
  6377  0014EE  EF7E  F00A         	goto	i2l4973
  6378  0014F2                     i2u587_40:
  6379  0014F2                     i2l4971:
  6380  0014F2  0E00               	movlw	0
  6381  0014F4  0100               	movlb	0	; () banked
  6382  0014F6  6FB5               	movwf	(_estado+1)& (0+255),b
  6383  0014F8  0E03               	movlw	3
  6384  0014FA  6FB4               	movwf	_estado& (0+255),b
  6385  0014FC                     i2l4973:
  6386                           
  6387                           ;Lab6.c: 187:        Transmitir(RCIE+48);
  6388  0014FC  0E59               	movlw	89
  6389  0014FE  184B               	xorwf	_lectura^0,w,c
  6390  001500  B4D8               	btfsc	status,2,c
  6391  001502  EF85  F00A         	goto	i2u588_41
  6392  001506  EF87  F00A         	goto	i2u588_40
  6393  00150A                     i2u588_41:
  6394  00150A  EF90  F00A         	goto	i2l4977
  6395  00150E                     i2u588_40:
  6396  00150E  0E79               	movlw	121
  6397  001510  184B               	xorwf	_lectura^0,w,c
  6398  001512  A4D8               	btfss	status,2,c
  6399  001514  EF8E  F00A         	goto	i2u589_41
  6400  001518  EF90  F00A         	goto	i2u589_40
  6401  00151C                     i2u589_41:
  6402  00151C  EF95  F00A         	goto	i2l4979
  6403  001520                     i2u589_40:
  6404  001520                     i2l4977:
  6405  001520  0E00               	movlw	0
  6406  001522  0100               	movlb	0	; () banked
  6407  001524  6FB9               	movwf	(_tiempo+1)& (0+255),b
  6408  001526  0E04               	movlw	4
  6409  001528  6FB8               	movwf	_tiempo& (0+255),b
  6410  00152A                     i2l4979:
  6411                           
  6412                           ;Lab6.c: 188:        desaceleracion(0,tiempo);
  6413  00152A  0E5A               	movlw	90
  6414  00152C  184B               	xorwf	_lectura^0,w,c
  6415  00152E  B4D8               	btfsc	status,2,c
  6416  001530  EF9C  F00A         	goto	i2u590_41
  6417  001534  EF9E  F00A         	goto	i2u590_40
  6418  001538                     i2u590_41:
  6419  001538  EFA7  F00A         	goto	i2l4983
  6420  00153C                     i2u590_40:
  6421  00153C  0E7A               	movlw	122
  6422  00153E  184B               	xorwf	_lectura^0,w,c
  6423  001540  A4D8               	btfss	status,2,c
  6424  001542  EFA5  F00A         	goto	i2u591_41
  6425  001546  EFA7  F00A         	goto	i2u591_40
  6426  00154A                     i2u591_41:
  6427  00154A  EFAC  F00A         	goto	i2l4985
  6428  00154E                     i2u591_40:
  6429  00154E                     i2l4983:
  6430  00154E  0E00               	movlw	0
  6431  001550  0100               	movlb	0	; () banked
  6432  001552  6FB9               	movwf	(_tiempo+1)& (0+255),b
  6433  001554  0E0A               	movlw	10
  6434  001556  6FB8               	movwf	_tiempo& (0+255),b
  6435  001558                     i2l4985:
  6436                           
  6437                           ;Lab6.c: 189:        estado=0;
  6438  001558  0100               	movlb	0	; () banked
  6439  00155A  51B4               	movf	_estado& (0+255),w,b
  6440  00155C  11B5               	iorwf	(_estado+1)& (0+255),w,b
  6441  00155E  A4D8               	btfss	status,2,c
  6442  001560  EFB4  F00A         	goto	i2u592_41
  6443  001564  EFB6  F00A         	goto	i2u592_40
  6444  001568                     i2u592_41:
  6445  001568  EFBA  F00A         	goto	i2l4989
  6446  00156C                     i2u592_40:
  6447  00156C                     
  6448                           ; BSR set to: 0
  6449  00156C  0E00               	movlw	0
  6450  00156E  6FB5               	movwf	(_estado+1)& (0+255),b
  6451  001570  0E04               	movlw	4
  6452  001572  6FB4               	movwf	_estado& (0+255),b
  6453  001574                     i2l4989:
  6454                           
  6455                           ; BSR set to: 0
  6456                           ;Lab6.c: 193:         LATD2=!LATD2;
  6457  001574  504B               	movf	_lectura^0,w,c
  6458  001576  EC7C  F019         	call	i2_Transmitir
  6459  00157A                     
  6460                           ;Lab6.c: 194:         TMR0=3036;
  6461  00157A  0100               	movlb	0	; () banked
  6462  00157C  51B4               	movf	_estado& (0+255),w,b
  6463  00157E  0F30               	addlw	48
  6464  001580  EC7C  F019         	call	i2_Transmitir
  6465  001584                     i2l4993:
  6466                           
  6467                           ;Lab6.c: 196:     }
  6468  001584  9A9E               	bcf	3998,5,c	;volatile
  6469  001586                     i2l4995:
  6470  001586  A2F2               	btfss	4082,1,c	;volatile
  6471  001588  EFC8  F00A         	goto	i2u593_41
  6472  00158C  EFCA  F00A         	goto	i2u593_40
  6473  001590                     i2u593_41:
  6474  001590  EFEB  F00A         	goto	i2l5009
  6475  001594                     i2u593_40:
  6476  001594  A68C               	btfss	3980,3,c	;volatile
  6477  001596  EFCF  F00A         	goto	i2u594_41
  6478  00159A  EFD2  F00A         	goto	i2u594_40
  6479  00159E                     i2u594_41:
  6480  00159E  868C               	bsf	3980,3,c	;volatile
  6481  0015A0  EFD3  F00A         	goto	i2u595_45
  6482  0015A4                     i2u594_40:
  6483  0015A4  968C               	bcf	3980,3,c	;volatile
  6484  0015A6                     i2u595_45:
  6485  0015A6  0E50               	movlw	80
  6486  0015A8  EC7C  F019         	call	i2_Transmitir
  6487  0015AC  0E30               	movlw	48
  6488  0015AE  BA9D               	btfsc	3997,5,c	;volatile
  6489  0015B0  0F01               	addlw	1
  6490  0015B2  EC7C  F019         	call	i2_Transmitir
  6491  0015B6  0E00               	movlw	0
  6492  0015B8  6E42               	movwf	(i2desaceleracion@objetivo+1)^0,c
  6493  0015BA  0E00               	movlw	0
  6494  0015BC  6E41               	movwf	i2desaceleracion@objetivo^0,c
  6495  0015BE  C0B8  F043         	movff	_tiempo,i2desaceleracion@t
  6496  0015C2  C0B9  F044         	movff	_tiempo+1,i2desaceleracion@t+1
  6497  0015C6  ECB0  F011         	call	i2_desaceleracion	;wreg free
  6498  0015CA  0E00               	movlw	0
  6499  0015CC  0100               	movlb	0	; () banked
  6500  0015CE  6FB5               	movwf	(_estado+1)& (0+255),b
  6501  0015D0  0E00               	movlw	0
  6502  0015D2  6FB4               	movwf	_estado& (0+255),b
  6503  0015D4                     
  6504                           ; BSR set to: 0
  6505  0015D4  92F2               	bcf	4082,1,c	;volatile
  6506  0015D6                     i2l5009:
  6507  0015D6  A4F2               	btfss	4082,2,c	;volatile
  6508  0015D8  EFF0  F00A         	goto	i2u596_41
  6509  0015DC  EFF2  F00A         	goto	i2u596_40
  6510  0015E0                     i2u596_41:
  6511  0015E0  EF00  F00B         	goto	i2l337
  6512  0015E4                     i2u596_40:
  6513  0015E4  A48C               	btfss	3980,2,c	;volatile
  6514  0015E6  EFF7  F00A         	goto	i2u597_41
  6515  0015EA  EFFA  F00A         	goto	i2u597_40
  6516  0015EE                     i2u597_41:
  6517  0015EE  848C               	bsf	3980,2,c	;volatile
  6518  0015F0  EFFB  F00A         	goto	i2u598_45
  6519  0015F4                     i2u597_40:
  6520  0015F4  948C               	bcf	3980,2,c	;volatile
  6521  0015F6                     i2u598_45:
  6522  0015F6  0E0B               	movlw	11
  6523  0015F8  6ED7               	movwf	215,c	;volatile
  6524  0015FA  0EDC               	movlw	220
  6525  0015FC  6ED6               	movwf	214,c	;volatile
  6526  0015FE  94F2               	bcf	4082,2,c	;volatile
  6527  001600                     i2l337:
  6528  001600  C04A  FFF4         	movff	??_ISR+3,prodh
  6529  001604  C049  FFF3         	movff	??_ISR+2,prodl
  6530  001608  924D               	bcf	int$flags,1,c	;clear compiler interrupt flag (level 2)
  6531  00160A  0011               	retfie		f
  6532  00160C                     __end_of_ISR:
  6533                           	callstack 0
  6534                           
  6535 ;; *************** function i2_desaceleracion *****************
  6536 ;; Defined at:
  6537 ;;		line 142 in file "Lab6.c"
  6538 ;; Parameters:    Size  Location     Type
  6539 ;;  objetivo        2   64[COMRAM] int 
  6540 ;;  t               2   66[COMRAM] int 
  6541 ;; Auto vars:     Size  Location     Type
  6542 ;;		None
  6543 ;; Return value:  Size  Location     Type
  6544 ;;                  1    wreg      void 
  6545 ;; Registers used:
  6546 ;;		wreg, status,2, status,0, prodl, prodh, cstack
  6547 ;; Tracked objects:
  6548 ;;		On entry : 0/0
  6549 ;;		On exit  : 0/0
  6550 ;;		Unchanged: 0/0
  6551 ;; Data sizes:     COMRAM   BANK0   BANK1   BANK2   BANK3   BANK4   BANK5   BANK6   BANK7
  6552 ;;      Params:         4       0       0       0       0       0       0       0       0
  6553 ;;      Locals:         0       0       0       0       0       0       0       0       0
  6554 ;;      Temps:          2       0       0       0       0       0       0       0       0
  6555 ;;      Totals:         6       0       0       0       0       0       0       0       0
  6556 ;;Total ram usage:        6 bytes
  6557 ;; Hardware stack levels used: 1
  6558 ;; Hardware stack levels required when called: 2
  6559 ;; This function calls:
  6560 ;;		i2_Transmitir
  6561 ;;		i2___fldiv
  6562 ;;		i2___flge
  6563 ;;		i2___flmul
  6564 ;;		i2___flsub
  6565 ;;		i2___fltol
  6566 ;;		i2___xxtofl
  6567 ;; This function is called by:
  6568 ;;		_ISR
  6569 ;; This function uses a non-reentrant model
  6570 ;;
  6571                           
  6572                           	psect	text22
  6573  002360                     __ptext22:
  6574                           	callstack 0
  6575  002360                     i2_desaceleracion:
  6576                           	callstack 23
  6577  002360                     
  6578                           ;Lab6.c: 143:        LATC2=0;
  6579  002360  0E64               	movlw	100
  6580  002362  EC7C  F019         	call	i2_Transmitir
  6581  002366                     
  6582                           ;Lab6.c: 144:     }
  6583  002366  50BD               	movf	189,w,c	;volatile
  6584  002368  A4D8               	btfss	status,2,c
  6585  00236A  EFB9  F011         	goto	i2u537_41
  6586  00236E  EFBB  F011         	goto	i2u537_40
  6587  002372                     i2u537_41:
  6588  002372  EFBD  F011         	goto	i2l4537
  6589  002376                     i2u537_40:
  6590  002376                     
  6591                           ;Lab6.c: 145:      PWM=CCPR1L;
  6592  002376  0E0C               	movlw	12
  6593  002378  6EBD               	movwf	189,c	;volatile
  6594  00237A                     i2l4537:
  6595                           
  6596                           ;Lab6.c: 147: void Transmitir(unsigned char dato){
  6597  00237A  BE42               	btfsc	(i2desaceleracion@objetivo+1)^0,7,c
  6598  00237C  EFCB  F011         	goto	i2u538_40
  6599  002380  5042               	movf	(i2desaceleracion@objetivo+1)^0,w,c
  6600  002382  E107               	bnz	i2u538_41
  6601  002384  0E0B               	movlw	11
  6602  002386  5C41               	subwf	i2desaceleracion@objetivo^0,w,c
  6603  002388  B0D8               	btfsc	status,0,c
  6604  00238A  EFC9  F011         	goto	i2u538_41
  6605  00238E  EFCB  F011         	goto	i2u538_40
  6606  002392                     i2u538_41:
  6607  002392  EFCF  F011         	goto	i2l4541
  6608  002396                     i2u538_40:
  6609  002396  0E00               	movlw	0
  6610  002398  6E42               	movwf	(i2desaceleracion@objetivo+1)^0,c
  6611  00239A  0E0A               	movlw	10
  6612  00239C  6E41               	movwf	i2desaceleracion@objetivo^0,c
  6613  00239E                     i2l4541:
  6614                           
  6615                           ;Lab6.c: 148: 
  6616  00239E  0E00               	movlw	0
  6617  0023A0  6E13               	movwf	i2___flmul@a^0,c
  6618  0023A2  0E00               	movlw	0
  6619  0023A4  6E14               	movwf	(i2___flmul@a+1)^0,c
  6620  0023A6  0E48               	movlw	72
  6621  0023A8  6E15               	movwf	(i2___flmul@a+2)^0,c
  6622  0023AA  0E42               	movlw	66
  6623  0023AC  6E16               	movwf	(i2___flmul@a+3)^0,c
  6624  0023AE  50BE               	movf	190,w,c	;volatile
  6625  0023B0  6E45               	movwf	??i2_desaceleracion^0,c
  6626  0023B2  6A46               	clrf	(??i2_desaceleracion+1)^0,c
  6627  0023B4  5041               	movf	i2desaceleracion@objetivo^0,w,c
  6628  0023B6  5E45               	subwf	??i2_desaceleracion^0,f,c
  6629  0023B8  5042               	movf	(i2desaceleracion@objetivo+1)^0,w,c
  6630  0023BA  5A46               	subwfb	(??i2_desaceleracion+1)^0,f,c
  6631  0023BC  C045  F001         	movff	??i2_desaceleracion,i2___xxtofl@val
  6632  0023C0  C046  F002         	movff	??i2_desaceleracion+1,i2___xxtofl@val+1
  6633  0023C4  0E00               	movlw	0
  6634  0023C6  BE02               	btfsc	(i2___xxtofl@val+1)^0,7,c
  6635  0023C8  0EFF               	movlw	-1
  6636  0023CA  6E03               	movwf	(i2___xxtofl@val+2)^0,c
  6637  0023CC  6E04               	movwf	(i2___xxtofl@val+3)^0,c
  6638  0023CE  0E01               	movlw	1
  6639  0023D0  EC85  F013         	call	i2___xxtofl
  6640  0023D4  C001  F00F         	movff	?i2___xxtofl,i2___flmul@b
  6641  0023D8  C002  F010         	movff	?i2___xxtofl+1,i2___flmul@b+1
  6642  0023DC  C003  F011         	movff	?i2___xxtofl+2,i2___flmul@b+2
  6643  0023E0  C004  F012         	movff	?i2___xxtofl+3,i2___flmul@b+3
  6644  0023E4  ECE0  F006         	call	i2___flmul	;wreg free
  6645  0023E8  C00F  F028         	movff	?i2___flmul,i2___fldiv@b
  6646  0023EC  C010  F029         	movff	?i2___flmul+1,i2___fldiv@b+1
  6647  0023F0  C011  F02A         	movff	?i2___flmul+2,i2___fldiv@b+2
  6648  0023F4  C012  F02B         	movff	?i2___flmul+3,i2___fldiv@b+3
  6649  0023F8  0E00               	movlw	0
  6650  0023FA  6E13               	movwf	i2___flmul@a^0,c
  6651  0023FC  0E00               	movlw	0
  6652  0023FE  6E14               	movwf	(i2___flmul@a+1)^0,c
  6653  002400  0E7A               	movlw	122
  6654  002402  6E15               	movwf	(i2___flmul@a+2)^0,c
  6655  002404  0E44               	movlw	68
  6656  002406  6E16               	movwf	(i2___flmul@a+3)^0,c
  6657  002408  C043  F001         	movff	i2desaceleracion@t,i2___xxtofl@val
  6658  00240C  C044  F002         	movff	i2desaceleracion@t+1,i2___xxtofl@val+1
  6659  002410  0E00               	movlw	0
  6660  002412  BE02               	btfsc	(i2___xxtofl@val+1)^0,7,c
  6661  002414  0EFF               	movlw	-1
  6662  002416  6E03               	movwf	(i2___xxtofl@val+2)^0,c
  6663  002418  6E04               	movwf	(i2___xxtofl@val+3)^0,c
  6664  00241A  0E01               	movlw	1
  6665  00241C  EC85  F013         	call	i2___xxtofl
  6666  002420  C001  F00F         	movff	?i2___xxtofl,i2___flmul@b
  6667  002424  C002  F010         	movff	?i2___xxtofl+1,i2___flmul@b+1
  6668  002428  C003  F011         	movff	?i2___xxtofl+2,i2___flmul@b+2
  6669  00242C  C004  F012         	movff	?i2___xxtofl+3,i2___flmul@b+3
  6670  002430  ECE0  F006         	call	i2___flmul	;wreg free
  6671  002434  C00F  F02C         	movff	?i2___flmul,i2___fldiv@a
  6672  002438  C010  F02D         	movff	?i2___flmul+1,i2___fldiv@a+1
  6673  00243C  C011  F02E         	movff	?i2___flmul+2,i2___fldiv@a+2
  6674  002440  C012  F02F         	movff	?i2___flmul+3,i2___fldiv@a+3
  6675  002444  ECD4  F00C         	call	i2___fldiv	;wreg free
  6676  002448  C028  F0AA         	movff	?i2___fldiv,_calc
  6677  00244C  C029  F0AB         	movff	?i2___fldiv+1,_calc+1
  6678  002450  C02A  F0AC         	movff	?i2___fldiv+2,_calc+2
  6679  002454  C02B  F0AD         	movff	?i2___fldiv+3,_calc+3
  6680  002458                     
  6681                           ;Lab6.c: 149:     while(TRMT==0);
  6682  002458  50BE               	movf	190,w,c	;volatile
  6683  00245A  6E01               	movwf	i2___xxtofl@val^0,c
  6684  00245C  6A02               	clrf	(i2___xxtofl@val+1)^0,c
  6685  00245E  6A03               	clrf	(i2___xxtofl@val+2)^0,c
  6686  002460  6A04               	clrf	(i2___xxtofl@val+3)^0,c
  6687  002462  0E00               	movlw	0
  6688  002464  EC85  F013         	call	i2___xxtofl
  6689  002468  C001  F0AE         	movff	?i2___xxtofl,_var1
  6690  00246C  C002  F0AF         	movff	?i2___xxtofl+1,_var1+1
  6691  002470  C003  F0B0         	movff	?i2___xxtofl+2,_var1+2
  6692  002474  C004  F0B1         	movff	?i2___xxtofl+3,_var1+3
  6693                           
  6694                           ;Lab6.c: 150:     TXREG=dato;
  6695  002478  EF6C  F012         	goto	i2l4549
  6696  00247C                     i2l4545:
  6697                           
  6698                           ;Lab6.c: 151: }
  6699  00247C  C0AE  F011         	movff	_var1,i2___flsub@b
  6700  002480  C0AF  F012         	movff	_var1+1,i2___flsub@b+1
  6701  002484  C0B0  F013         	movff	_var1+2,i2___flsub@b+2
  6702  002488  C0B1  F014         	movff	_var1+3,i2___flsub@b+3
  6703  00248C  C0AA  F015         	movff	_calc,i2___flsub@a
  6704  002490  C0AB  F016         	movff	_calc+1,i2___flsub@a+1
  6705  002494  C0AC  F017         	movff	_calc+2,i2___flsub@a+2
  6706  002498  C0AD  F018         	movff	_calc+3,i2___flsub@a+3
  6707  00249C  EC35  F019         	call	i2___flsub	;wreg free
  6708  0024A0  C011  F0AE         	movff	?i2___flsub,_var1
  6709  0024A4  C012  F0AF         	movff	?i2___flsub+1,_var1+1
  6710  0024A8  C013  F0B0         	movff	?i2___flsub+2,_var1+2
  6711  0024AC  C014  F0B1         	movff	?i2___flsub+3,_var1+3
  6712                           
  6713                           ;Lab6.c: 152: void __attribute__((picinterrupt(("")))) ISR(void){
  6714  0024B0  C0AE  F001         	movff	_var1,i2___fltol@f1
  6715  0024B4  C0AF  F002         	movff	_var1+1,i2___fltol@f1+1
  6716  0024B8  C0B0  F003         	movff	_var1+2,i2___fltol@f1+2
  6717  0024BC  C0B1  F004         	movff	_var1+3,i2___fltol@f1+3
  6718  0024C0  EC23  F016         	call	i2___fltol	;wreg free
  6719  0024C4  5001               	movf	?i2___fltol^0,w,c
  6720  0024C6  6EBE               	movwf	190,c	;volatile
  6721  0024C8                     
  6722                           ;Lab6.c: 153:     if(RCIF==1){
  6723  0024C8  0E11               	movlw	17
  6724  0024CA  6E45               	movwf	??i2_desaceleracion^0,c
  6725  0024CC  0E3A               	movlw	58
  6726  0024CE                     i2u608_47:
  6727  0024CE  2EE8               	decfsz	wreg,f,c
  6728  0024D0  D7FE               	bra	i2u608_47
  6729  0024D2  2E45               	decfsz	??i2_desaceleracion^0,f,c
  6730  0024D4  D7FC               	bra	i2u608_47
  6731  0024D6  D000               	nop2	
  6732  0024D8                     i2l4549:
  6733                           
  6734                           ;Lab6.c: 150:     TXREG=dato;
  6735  0024D8  C041  F001         	movff	i2desaceleracion@objetivo,i2___xxtofl@val
  6736  0024DC  C042  F002         	movff	i2desaceleracion@objetivo+1,i2___xxtofl@val+1
  6737  0024E0  0E00               	movlw	0
  6738  0024E2  BE02               	btfsc	(i2___xxtofl@val+1)^0,7,c
  6739  0024E4  0EFF               	movlw	-1
  6740  0024E6  6E03               	movwf	(i2___xxtofl@val+2)^0,c
  6741  0024E8  6E04               	movwf	(i2___xxtofl@val+3)^0,c
  6742  0024EA  0E01               	movlw	1
  6743  0024EC  EC85  F013         	call	i2___xxtofl
  6744  0024F0  C001  F00F         	movff	?i2___xxtofl,i2___flge@ff1
  6745  0024F4  C002  F010         	movff	?i2___xxtofl+1,i2___flge@ff1+1
  6746  0024F8  C003  F011         	movff	?i2___xxtofl+2,i2___flge@ff1+2
  6747  0024FC  C004  F012         	movff	?i2___xxtofl+3,i2___flge@ff1+3
  6748  002500  C0AE  F013         	movff	_var1,i2___flge@ff2
  6749  002504  C0AF  F014         	movff	_var1+1,i2___flge@ff2+1
  6750  002508  C0B0  F015         	movff	_var1+2,i2___flge@ff2+2
  6751  00250C  C0B1  F016         	movff	_var1+3,i2___flge@ff2+3
  6752  002510  ECA6  F016         	call	i2___flge	;wreg free
  6753  002514  A0D8               	btfss	status,0,c
  6754  002516  EF8F  F012         	goto	i2u539_41
  6755  00251A  EF91  F012         	goto	i2u539_40
  6756  00251E                     i2u539_41:
  6757  00251E  EF3E  F012         	goto	i2l4545
  6758  002522                     i2u539_40:
  6759  002522                     
  6760                           ;Lab6.c: 155:       if(LATD3==0){
  6761  002522  C041  FFBE         	movff	i2desaceleracion@objetivo,4030	;volatile
  6762  002526                     
  6763                           ;Lab6.c: 156:       if(lectura=='A' || lectura=='a')PWM=0;
  6764  002526  BE42               	btfsc	(i2desaceleracion@objetivo+1)^0,7,c
  6765  002528  EFA1  F012         	goto	i2u540_40
  6766  00252C  5042               	movf	(i2desaceleracion@objetivo+1)^0,w,c
  6767  00252E  E107               	bnz	i2u540_41
  6768  002530  0E0B               	movlw	11
  6769  002532  5C41               	subwf	i2desaceleracion@objetivo^0,w,c
  6770  002534  B0D8               	btfsc	status,0,c
  6771  002536  EF9F  F012         	goto	i2u540_41
  6772  00253A  EFA1  F012         	goto	i2u540_40
  6773  00253E                     i2u540_41:
  6774  00253E  EFA4  F012         	goto	i2l4557
  6775  002542                     i2u540_40:
  6776  002542                     
  6777                           ;Lab6.c: 157:       if(lectura=='B' || lectura=='b')PWM=25;
  6778  002542  0E00               	movlw	0
  6779  002544  6EBD               	movwf	189,c	;volatile
  6780  002546                     
  6781                           ;Lab6.c: 158:       if(lectura=='C' || lectura=='c')PWM=50;
  6782  002546  948B               	bcf	3979,2,c	;volatile
  6783  002548                     i2l4557:
  6784                           
  6785                           ;Lab6.c: 160:       if(lectura=='E' || lectura=='e')PWM=100;
  6786  002548  CFBE F0B6          	movff	4030,_PWM	;volatile
  6787  00254C  0100               	movlb	0	; () banked
  6788  00254E  6BB7               	clrf	(_PWM+1)& (0+255),b
  6789  002550                     
  6790                           ; BSR set to: 0
  6791  002550  0012               	return		;funcret
  6792  002552                     __end_ofi2_desaceleracion:
  6793                           	callstack 0
  6794                           
  6795 ;; *************** function i2___xxtofl *****************
  6796 ;; Defined at:
  6797 ;;		line 10 in file "C:\Program Files\Microchip\xc8\v2.36\pic\sources\c99\common\xxtofl.c"
  6798 ;; Parameters:    Size  Location     Type
  6799 ;;  sign            1    wreg     unsigned char 
  6800 ;;  val             4    0[COMRAM] long 
  6801 ;; Auto vars:     Size  Location     Type
  6802 ;;  sign            1    8[COMRAM] unsigned char 
  6803 ;;  arg             4   10[COMRAM] unsigned long 
  6804 ;;  exp             1    9[COMRAM] unsigned char 
  6805 ;; Return value:  Size  Location     Type
  6806 ;;                  4    0[COMRAM] unsigned char 
  6807 ;; Registers used:
  6808 ;;		wreg, status,2, status,0
  6809 ;; Tracked objects:
  6810 ;;		On entry : 0/0
  6811 ;;		On exit  : 0/0
  6812 ;;		Unchanged: 0/0
  6813 ;; Data sizes:     COMRAM   BANK0   BANK1   BANK2   BANK3   BANK4   BANK5   BANK6   BANK7
  6814 ;;      Params:         4       0       0       0       0       0       0       0       0
  6815 ;;      Locals:         6       0       0       0       0       0       0       0       0
  6816 ;;      Temps:          4       0       0       0       0       0       0       0       0
  6817 ;;      Totals:        14       0       0       0       0       0       0       0       0
  6818 ;;Total ram usage:       14 bytes
  6819 ;; Hardware stack levels used: 1
  6820 ;; This function calls:
  6821 ;;		Nothing
  6822 ;; This function is called by:
  6823 ;;		i2_desaceleracion
  6824 ;; This function uses a non-reentrant model
  6825 ;;
  6826                           
  6827                           	psect	text23
  6828  00270A                     __ptext23:
  6829                           	callstack 0
  6830  00270A                     i2___xxtofl:
  6831                           	callstack 24
  6832                           
  6833                           ; BSR set to: 0
  6834                           ;incstack = 0
  6835                           ;i2___xxtofl@sign stored from wreg
  6836  00270A  6E09               	movwf	i2___xxtofl@sign^0,c
  6837  00270C  5009               	movf	i2___xxtofl@sign^0,w,c
  6838  00270E  B4D8               	btfsc	status,2,c
  6839  002710  EF8C  F013         	goto	i2u520_41
  6840  002714  EF8E  F013         	goto	i2u520_40
  6841  002718                     i2u520_41:
  6842  002718  EFB0  F013         	goto	i2l995
  6843  00271C                     i2u520_40:
  6844  00271C  BE04               	btfsc	(i2___xxtofl@val+3)^0,7,c
  6845  00271E  EF95  F013         	goto	i2u521_40
  6846  002722  EF93  F013         	goto	i2u521_41
  6847  002726                     i2u521_41:
  6848  002726  EFB0  F013         	goto	i2l995
  6849  00272A                     i2u521_40:
  6850  00272A  C001  F005         	movff	i2___xxtofl@val,??i2___xxtofl
  6851  00272E  C002  F006         	movff	i2___xxtofl@val+1,??i2___xxtofl+1
  6852  002732  C003  F007         	movff	i2___xxtofl@val+2,??i2___xxtofl+2
  6853  002736  C004  F008         	movff	i2___xxtofl@val+3,??i2___xxtofl+3
  6854  00273A  1E05               	comf	??i2___xxtofl^0,f,c
  6855  00273C  1E06               	comf	(??i2___xxtofl+1)^0,f,c
  6856  00273E  1E07               	comf	(??i2___xxtofl+2)^0,f,c
  6857  002740  1E08               	comf	(??i2___xxtofl+3)^0,f,c
  6858  002742  2A05               	incf	??i2___xxtofl^0,f,c
  6859  002744  0E00               	movlw	0
  6860  002746  2206               	addwfc	(??i2___xxtofl+1)^0,f,c
  6861  002748  2207               	addwfc	(??i2___xxtofl+2)^0,f,c
  6862  00274A  2208               	addwfc	(??i2___xxtofl+3)^0,f,c
  6863  00274C  C005  F00B         	movff	??i2___xxtofl,i2___xxtofl@arg
  6864  002750  C006  F00C         	movff	??i2___xxtofl+1,i2___xxtofl@arg+1
  6865  002754  C007  F00D         	movff	??i2___xxtofl+2,i2___xxtofl@arg+2
  6866  002758  C008  F00E         	movff	??i2___xxtofl+3,i2___xxtofl@arg+3
  6867  00275C  EFB8  F013         	goto	i2l4361
  6868  002760                     i2l995:
  6869  002760  C001  F00B         	movff	i2___xxtofl@val,i2___xxtofl@arg
  6870  002764  C002  F00C         	movff	i2___xxtofl@val+1,i2___xxtofl@arg+1
  6871  002768  C003  F00D         	movff	i2___xxtofl@val+2,i2___xxtofl@arg+2
  6872  00276C  C004  F00E         	movff	i2___xxtofl@val+3,i2___xxtofl@arg+3
  6873  002770                     i2l4361:
  6874  002770  5001               	movf	i2___xxtofl@val^0,w,c
  6875  002772  1002               	iorwf	(i2___xxtofl@val+1)^0,w,c
  6876  002774  1003               	iorwf	(i2___xxtofl@val+2)^0,w,c
  6877  002776  1004               	iorwf	(i2___xxtofl@val+3)^0,w,c
  6878  002778  A4D8               	btfss	status,2,c
  6879  00277A  EFC1  F013         	goto	i2u522_41
  6880  00277E  EFC3  F013         	goto	i2u522_40
  6881  002782                     i2u522_41:
  6882  002782  EFCD  F013         	goto	i2l4367
  6883  002786                     i2u522_40:
  6884  002786  0E00               	movlw	0
  6885  002788  6E01               	movwf	?i2___xxtofl^0,c
  6886  00278A  0E00               	movlw	0
  6887  00278C  6E02               	movwf	(?i2___xxtofl+1)^0,c
  6888  00278E  0E00               	movlw	0
  6889  002790  6E03               	movwf	(?i2___xxtofl+2)^0,c
  6890  002792  0E00               	movlw	0
  6891  002794  6E04               	movwf	(?i2___xxtofl+3)^0,c
  6892  002796  EF5E  F014         	goto	i2l998
  6893  00279A                     i2l4367:
  6894  00279A  0E96               	movlw	150
  6895  00279C  6E0A               	movwf	i2___xxtofl@exp^0,c
  6896  00279E  EFD7  F013         	goto	i2l4371
  6897  0027A2                     i2l4369:
  6898  0027A2  2A0A               	incf	i2___xxtofl@exp^0,f,c
  6899  0027A4  90D8               	bcf	status,0,c
  6900  0027A6  320E               	rrcf	(i2___xxtofl@arg+3)^0,f,c
  6901  0027A8  320D               	rrcf	(i2___xxtofl@arg+2)^0,f,c
  6902  0027AA  320C               	rrcf	(i2___xxtofl@arg+1)^0,f,c
  6903  0027AC  320B               	rrcf	i2___xxtofl@arg^0,f,c
  6904  0027AE                     i2l4371:
  6905  0027AE  0E00               	movlw	0
  6906  0027B0  140B               	andwf	i2___xxtofl@arg^0,w,c
  6907  0027B2  6E05               	movwf	??i2___xxtofl^0,c
  6908  0027B4  0E00               	movlw	0
  6909  0027B6  140C               	andwf	(i2___xxtofl@arg+1)^0,w,c
  6910  0027B8  6E06               	movwf	(??i2___xxtofl+1)^0,c
  6911  0027BA  0E00               	movlw	0
  6912  0027BC  140D               	andwf	(i2___xxtofl@arg+2)^0,w,c
  6913  0027BE  6E07               	movwf	(??i2___xxtofl+2)^0,c
  6914  0027C0  0EFE               	movlw	254
  6915  0027C2  140E               	andwf	(i2___xxtofl@arg+3)^0,w,c
  6916  0027C4  6E08               	movwf	(??i2___xxtofl+3)^0,c
  6917  0027C6  5005               	movf	??i2___xxtofl^0,w,c
  6918  0027C8  1006               	iorwf	(??i2___xxtofl+1)^0,w,c
  6919  0027CA  1007               	iorwf	(??i2___xxtofl+2)^0,w,c
  6920  0027CC  1008               	iorwf	(??i2___xxtofl+3)^0,w,c
  6921  0027CE  A4D8               	btfss	status,2,c
  6922  0027D0  EFEC  F013         	goto	i2u523_41
  6923  0027D4  EFEE  F013         	goto	i2u523_40
  6924  0027D8                     i2u523_41:
  6925  0027D8  EFD1  F013         	goto	i2l4369
  6926  0027DC                     i2u523_40:
  6927  0027DC  EFFC  F013         	goto	i2l1002
  6928  0027E0                     i2l4373:
  6929  0027E0  2A0A               	incf	i2___xxtofl@exp^0,f,c
  6930  0027E2  0E01               	movlw	1
  6931  0027E4  260B               	addwf	i2___xxtofl@arg^0,f,c
  6932  0027E6  0E00               	movlw	0
  6933  0027E8  220C               	addwfc	(i2___xxtofl@arg+1)^0,f,c
  6934  0027EA  220D               	addwfc	(i2___xxtofl@arg+2)^0,f,c
  6935  0027EC  220E               	addwfc	(i2___xxtofl@arg+3)^0,f,c
  6936  0027EE  90D8               	bcf	status,0,c
  6937  0027F0  320E               	rrcf	(i2___xxtofl@arg+3)^0,f,c
  6938  0027F2  320D               	rrcf	(i2___xxtofl@arg+2)^0,f,c
  6939  0027F4  320C               	rrcf	(i2___xxtofl@arg+1)^0,f,c
  6940  0027F6  320B               	rrcf	i2___xxtofl@arg^0,f,c
  6941  0027F8                     i2l1002:
  6942  0027F8  0E00               	movlw	0
  6943  0027FA  140B               	andwf	i2___xxtofl@arg^0,w,c
  6944  0027FC  6E05               	movwf	??i2___xxtofl^0,c
  6945  0027FE  0E00               	movlw	0
  6946  002800  140C               	andwf	(i2___xxtofl@arg+1)^0,w,c
  6947  002802  6E06               	movwf	(??i2___xxtofl+1)^0,c
  6948  002804  0E00               	movlw	0
  6949  002806  140D               	andwf	(i2___xxtofl@arg+2)^0,w,c
  6950  002808  6E07               	movwf	(??i2___xxtofl+2)^0,c
  6951  00280A  0EFF               	movlw	255
  6952  00280C  140E               	andwf	(i2___xxtofl@arg+3)^0,w,c
  6953  00280E  6E08               	movwf	(??i2___xxtofl+3)^0,c
  6954  002810  5005               	movf	??i2___xxtofl^0,w,c
  6955  002812  1006               	iorwf	(??i2___xxtofl+1)^0,w,c
  6956  002814  1007               	iorwf	(??i2___xxtofl+2)^0,w,c
  6957  002816  1008               	iorwf	(??i2___xxtofl+3)^0,w,c
  6958  002818  A4D8               	btfss	status,2,c
  6959  00281A  EF11  F014         	goto	i2u524_41
  6960  00281E  EF13  F014         	goto	i2u524_40
  6961  002822                     i2u524_41:
  6962  002822  EFF0  F013         	goto	i2l4373
  6963  002826                     i2u524_40:
  6964  002826  EF1B  F014         	goto	i2l4381
  6965  00282A                     i2l4379:
  6966  00282A  060A               	decf	i2___xxtofl@exp^0,f,c
  6967  00282C  90D8               	bcf	status,0,c
  6968  00282E  360B               	rlcf	i2___xxtofl@arg^0,f,c
  6969  002830  360C               	rlcf	(i2___xxtofl@arg+1)^0,f,c
  6970  002832  360D               	rlcf	(i2___xxtofl@arg+2)^0,f,c
  6971  002834  360E               	rlcf	(i2___xxtofl@arg+3)^0,f,c
  6972  002836                     i2l4381:
  6973  002836  BE0D               	btfsc	(i2___xxtofl@arg+2)^0,7,c
  6974  002838  EF20  F014         	goto	i2u525_41
  6975  00283C  EF22  F014         	goto	i2u525_40
  6976  002840                     i2u525_41:
  6977  002840  EF2A  F014         	goto	i2l1009
  6978  002844                     i2u525_40:
  6979  002844  0E02               	movlw	2
  6980  002846  600A               	cpfslt	i2___xxtofl@exp^0,c
  6981  002848  EF28  F014         	goto	i2u526_41
  6982  00284C  EF2A  F014         	goto	i2u526_40
  6983  002850                     i2u526_41:
  6984  002850  EF15  F014         	goto	i2l4379
  6985  002854                     i2u526_40:
  6986  002854                     i2l1009:
  6987  002854  B00A               	btfsc	i2___xxtofl@exp^0,0,c
  6988  002856  EF2F  F014         	goto	i2u527_41
  6989  00285A  EF31  F014         	goto	i2u527_40
  6990  00285E                     i2u527_41:
  6991  00285E  EF32  F014         	goto	i2l4387
  6992  002862                     i2u527_40:
  6993  002862  9E0D               	bcf	(i2___xxtofl@arg+2)^0,7,c
  6994  002864                     i2l4387:
  6995  002864  90D8               	bcf	status,0,c
  6996  002866  320A               	rrcf	i2___xxtofl@exp^0,f,c
  6997  002868  C00A  F005         	movff	i2___xxtofl@exp,??i2___xxtofl
  6998  00286C  6A06               	clrf	(??i2___xxtofl+1)^0,c
  6999  00286E  6A07               	clrf	(??i2___xxtofl+2)^0,c
  7000  002870  6A08               	clrf	(??i2___xxtofl+3)^0,c
  7001  002872  C005  F008         	movff	??i2___xxtofl,??i2___xxtofl+3
  7002  002876  6A07               	clrf	(??i2___xxtofl+2)^0,c
  7003  002878  6A06               	clrf	(??i2___xxtofl+1)^0,c
  7004  00287A  6A05               	clrf	??i2___xxtofl^0,c
  7005  00287C  5005               	movf	??i2___xxtofl^0,w,c
  7006  00287E  120B               	iorwf	i2___xxtofl@arg^0,f,c
  7007  002880  5006               	movf	(??i2___xxtofl+1)^0,w,c
  7008  002882  120C               	iorwf	(i2___xxtofl@arg+1)^0,f,c
  7009  002884  5007               	movf	(??i2___xxtofl+2)^0,w,c
  7010  002886  120D               	iorwf	(i2___xxtofl@arg+2)^0,f,c
  7011  002888  5008               	movf	(??i2___xxtofl+3)^0,w,c
  7012  00288A  120E               	iorwf	(i2___xxtofl@arg+3)^0,f,c
  7013  00288C  5009               	movf	i2___xxtofl@sign^0,w,c
  7014  00288E  B4D8               	btfsc	status,2,c
  7015  002890  EF4C  F014         	goto	i2u528_41
  7016  002894  EF4E  F014         	goto	i2u528_40
  7017  002898                     i2u528_41:
  7018  002898  EF56  F014         	goto	i2l4397
  7019  00289C                     i2u528_40:
  7020  00289C  BE04               	btfsc	(i2___xxtofl@val+3)^0,7,c
  7021  00289E  EF55  F014         	goto	i2u529_40
  7022  0028A2  EF53  F014         	goto	i2u529_41
  7023  0028A6                     i2u529_41:
  7024  0028A6  EF56  F014         	goto	i2l4397
  7025  0028AA                     i2u529_40:
  7026  0028AA  8E0E               	bsf	(i2___xxtofl@arg+3)^0,7,c
  7027  0028AC                     i2l4397:
  7028  0028AC  C00B  F001         	movff	i2___xxtofl@arg,?i2___xxtofl
  7029  0028B0  C00C  F002         	movff	i2___xxtofl@arg+1,?i2___xxtofl+1
  7030  0028B4  C00D  F003         	movff	i2___xxtofl@arg+2,?i2___xxtofl+2
  7031  0028B8  C00E  F004         	movff	i2___xxtofl@arg+3,?i2___xxtofl+3
  7032  0028BC                     i2l998:
  7033  0028BC  0012               	return		;funcret
  7034  0028BE                     __end_ofi2___xxtofl:
  7035                           	callstack 0
  7036                           
  7037 ;; *************** function i2___fltol *****************
  7038 ;; Defined at:
  7039 ;;		line 43 in file "C:\Program Files\Microchip\xc8\v2.36\pic\sources\c99\common\fltol.c"
  7040 ;; Parameters:    Size  Location     Type
  7041 ;;  f1              4    0[COMRAM] unsigned char 
  7042 ;; Auto vars:     Size  Location     Type
  7043 ;;  exp1            1    9[COMRAM] unsigned char 
  7044 ;;  sign1           1    8[COMRAM] unsigned char 
  7045 ;; Return value:  Size  Location     Type
  7046 ;;                  4    0[COMRAM] long 
  7047 ;; Registers used:
  7048 ;;		wreg, status,2, status,0
  7049 ;; Tracked objects:
  7050 ;;		On entry : 0/0
  7051 ;;		On exit  : 0/0
  7052 ;;		Unchanged: 0/0
  7053 ;; Data sizes:     COMRAM   BANK0   BANK1   BANK2   BANK3   BANK4   BANK5   BANK6   BANK7
  7054 ;;      Params:         4       0       0       0       0       0       0       0       0
  7055 ;;      Locals:         2       0       0       0       0       0       0       0       0
  7056 ;;      Temps:          4       0       0       0       0       0       0       0       0
  7057 ;;      Totals:        10       0       0       0       0       0       0       0       0
  7058 ;;Total ram usage:       10 bytes
  7059 ;; Hardware stack levels used: 1
  7060 ;; This function calls:
  7061 ;;		Nothing
  7062 ;; This function is called by:
  7063 ;;		i2_desaceleracion
  7064 ;; This function uses a non-reentrant model
  7065 ;;
  7066                           
  7067                           	psect	text24
  7068  002C46                     __ptext24:
  7069                           	callstack 0
  7070  002C46                     i2___fltol:
  7071                           	callstack 24
  7072  002C46  3403               	rlcf	(i2___fltol@f1+2)^0,w,c
  7073  002C48  3404               	rlcf	(i2___fltol@f1+3)^0,w,c
  7074  002C4A  6E0A               	movwf	i2___fltol@exp1^0,c
  7075  002C4C  500A               	movf	i2___fltol@exp1^0,w,c
  7076  002C4E  A4D8               	btfss	status,2,c
  7077  002C50  EF2C  F016         	goto	i2u471_41
  7078  002C54  EF2E  F016         	goto	i2u471_40
  7079  002C58                     i2u471_41:
  7080  002C58  EF38  F016         	goto	i2l4043
  7081  002C5C                     i2u471_40:
  7082  002C5C                     i2l4039:
  7083  002C5C  0E00               	movlw	0
  7084  002C5E  6E01               	movwf	?i2___fltol^0,c
  7085  002C60  0E00               	movlw	0
  7086  002C62  6E02               	movwf	(?i2___fltol+1)^0,c
  7087  002C64  0E00               	movlw	0
  7088  002C66  6E03               	movwf	(?i2___fltol+2)^0,c
  7089  002C68  0E00               	movlw	0
  7090  002C6A  6E04               	movwf	(?i2___fltol+3)^0,c
  7091  002C6C  EFA5  F016         	goto	i2l637
  7092  002C70                     i2l4043:
  7093  002C70  C001  F005         	movff	i2___fltol@f1,??i2___fltol
  7094  002C74  C002  F006         	movff	i2___fltol@f1+1,??i2___fltol+1
  7095  002C78  C003  F007         	movff	i2___fltol@f1+2,??i2___fltol+2
  7096  002C7C  C004  F008         	movff	i2___fltol@f1+3,??i2___fltol+3
  7097  002C80  0E20               	movlw	32
  7098  002C82  EF48  F016         	goto	i2u472_40
  7099  002C86                     i2u472_45:
  7100  002C86  90D8               	bcf	status,0,c
  7101  002C88  3208               	rrcf	(??i2___fltol+3)^0,f,c
  7102  002C8A  3207               	rrcf	(??i2___fltol+2)^0,f,c
  7103  002C8C  3206               	rrcf	(??i2___fltol+1)^0,f,c
  7104  002C8E  3205               	rrcf	??i2___fltol^0,f,c
  7105  002C90                     i2u472_40:
  7106  002C90  2EE8               	decfsz	wreg,f,c
  7107  002C92  EF43  F016         	goto	i2u472_45
  7108  002C96  5005               	movf	??i2___fltol^0,w,c
  7109  002C98  6E09               	movwf	i2___fltol@sign1^0,c
  7110  002C9A  8E03               	bsf	(i2___fltol@f1+2)^0,7,c
  7111  002C9C  0EFF               	movlw	255
  7112  002C9E  1601               	andwf	i2___fltol@f1^0,f,c
  7113  002CA0  0EFF               	movlw	255
  7114  002CA2  1602               	andwf	(i2___fltol@f1+1)^0,f,c
  7115  002CA4  0EFF               	movlw	255
  7116  002CA6  1603               	andwf	(i2___fltol@f1+2)^0,f,c
  7117  002CA8  0E00               	movlw	0
  7118  002CAA  1604               	andwf	(i2___fltol@f1+3)^0,f,c
  7119  002CAC  0E96               	movlw	150
  7120  002CAE  5E0A               	subwf	i2___fltol@exp1^0,f,c
  7121  002CB0  BE0A               	btfsc	i2___fltol@exp1^0,7,c
  7122  002CB2  EF5F  F016         	goto	i2u473_40
  7123  002CB6  EF5D  F016         	goto	i2u473_41
  7124  002CBA                     i2u473_41:
  7125  002CBA  EF75  F016         	goto	i2l4063
  7126  002CBE                     i2u473_40:
  7127  002CBE  500A               	movf	i2___fltol@exp1^0,w,c
  7128  002CC0  0A80               	xorlw	128
  7129  002CC2  0F97               	addlw	151
  7130  002CC4  B0D8               	btfsc	status,0,c
  7131  002CC6  EF67  F016         	goto	i2u474_41
  7132  002CCA  EF69  F016         	goto	i2u474_40
  7133  002CCE                     i2u474_41:
  7134  002CCE  EF6B  F016         	goto	i2l4059
  7135  002CD2                     i2u474_40:
  7136  002CD2  EF2E  F016         	goto	i2l4039
  7137  002CD6                     i2l4059:
  7138  002CD6  90D8               	bcf	status,0,c
  7139  002CD8  3204               	rrcf	(i2___fltol@f1+3)^0,f,c
  7140  002CDA  3203               	rrcf	(i2___fltol@f1+2)^0,f,c
  7141  002CDC  3202               	rrcf	(i2___fltol@f1+1)^0,f,c
  7142  002CDE  3201               	rrcf	i2___fltol@f1^0,f,c
  7143  002CE0  3E0A               	incfsz	i2___fltol@exp1^0,f,c
  7144  002CE2  EF6B  F016         	goto	i2l4059
  7145  002CE6  EF8D  F016         	goto	i2l4073
  7146  002CEA                     i2l4063:
  7147  002CEA  0E1F               	movlw	31
  7148  002CEC  640A               	cpfsgt	i2___fltol@exp1^0,c
  7149  002CEE  EF7B  F016         	goto	i2u475_41
  7150  002CF2  EF7D  F016         	goto	i2u475_40
  7151  002CF6                     i2u475_41:
  7152  002CF6  EF85  F016         	goto	i2l4071
  7153  002CFA                     i2u475_40:
  7154  002CFA  EF2E  F016         	goto	i2l4039
  7155  002CFE                     i2l4069:
  7156  002CFE  90D8               	bcf	status,0,c
  7157  002D00  3601               	rlcf	i2___fltol@f1^0,f,c
  7158  002D02  3602               	rlcf	(i2___fltol@f1+1)^0,f,c
  7159  002D04  3603               	rlcf	(i2___fltol@f1+2)^0,f,c
  7160  002D06  3604               	rlcf	(i2___fltol@f1+3)^0,f,c
  7161  002D08  060A               	decf	i2___fltol@exp1^0,f,c
  7162  002D0A                     i2l4071:
  7163  002D0A  500A               	movf	i2___fltol@exp1^0,w,c
  7164  002D0C  A4D8               	btfss	status,2,c
  7165  002D0E  EF8B  F016         	goto	i2u476_41
  7166  002D12  EF8D  F016         	goto	i2u476_40
  7167  002D16                     i2u476_41:
  7168  002D16  EF7F  F016         	goto	i2l4069
  7169  002D1A                     i2u476_40:
  7170  002D1A                     i2l4073:
  7171  002D1A  5009               	movf	i2___fltol@sign1^0,w,c
  7172  002D1C  B4D8               	btfsc	status,2,c
  7173  002D1E  EF93  F016         	goto	i2u477_41
  7174  002D22  EF95  F016         	goto	i2u477_40
  7175  002D26                     i2u477_41:
  7176  002D26  EF9D  F016         	goto	i2l4077
  7177  002D2A                     i2u477_40:
  7178  002D2A  1E04               	comf	(i2___fltol@f1+3)^0,f,c
  7179  002D2C  1E03               	comf	(i2___fltol@f1+2)^0,f,c
  7180  002D2E  1E02               	comf	(i2___fltol@f1+1)^0,f,c
  7181  002D30  6C01               	negf	i2___fltol@f1^0,c
  7182  002D32  0E00               	movlw	0
  7183  002D34  2202               	addwfc	(i2___fltol@f1+1)^0,f,c
  7184  002D36  2203               	addwfc	(i2___fltol@f1+2)^0,f,c
  7185  002D38  2204               	addwfc	(i2___fltol@f1+3)^0,f,c
  7186  002D3A                     i2l4077:
  7187  002D3A  C001  F001         	movff	i2___fltol@f1,?i2___fltol
  7188  002D3E  C002  F002         	movff	i2___fltol@f1+1,?i2___fltol+1
  7189  002D42  C003  F003         	movff	i2___fltol@f1+2,?i2___fltol+2
  7190  002D46  C004  F004         	movff	i2___fltol@f1+3,?i2___fltol+3
  7191  002D4A                     i2l637:
  7192  002D4A  0012               	return		;funcret
  7193  002D4C                     __end_ofi2___fltol:
  7194                           	callstack 0
  7195                           
  7196 ;; *************** function i2___flsub *****************
  7197 ;; Defined at:
  7198 ;;		line 245 in file "C:\Program Files\Microchip\xc8\v2.36\pic\sources\c99\common\sprcadd.c"
  7199 ;; Parameters:    Size  Location     Type
  7200 ;;  b               4   16[COMRAM] long 
  7201 ;;  a               4   20[COMRAM] long 
  7202 ;; Auto vars:     Size  Location     Type
  7203 ;;		None
  7204 ;; Return value:  Size  Location     Type
  7205 ;;                  4   16[COMRAM] long 
  7206 ;; Registers used:
  7207 ;;		wreg, status,2, status,0, cstack
  7208 ;; Tracked objects:
  7209 ;;		On entry : 0/0
  7210 ;;		On exit  : 0/0
  7211 ;;		Unchanged: 0/0
  7212 ;; Data sizes:     COMRAM   BANK0   BANK1   BANK2   BANK3   BANK4   BANK5   BANK6   BANK7
  7213 ;;      Params:         8       0       0       0       0       0       0       0       0
  7214 ;;      Locals:         0       0       0       0       0       0       0       0       0
  7215 ;;      Temps:          0       0       0       0       0       0       0       0       0
  7216 ;;      Totals:         8       0       0       0       0       0       0       0       0
  7217 ;;Total ram usage:        8 bytes
  7218 ;; Hardware stack levels used: 1
  7219 ;; Hardware stack levels required when called: 1
  7220 ;; This function calls:
  7221 ;;		i2___fladd
  7222 ;; This function is called by:
  7223 ;;		i2_desaceleracion
  7224 ;; This function uses a non-reentrant model
  7225 ;;
  7226                           
  7227                           	psect	text25
  7228  00326A                     __ptext25:
  7229                           	callstack 0
  7230  00326A                     i2___flsub:
  7231                           	callstack 23
  7232  00326A  0E00               	movlw	0
  7233  00326C  1A15               	xorwf	i2___flsub@a^0,f,c
  7234  00326E  0E00               	movlw	0
  7235  003270  1A16               	xorwf	(i2___flsub@a+1)^0,f,c
  7236  003272  0E00               	movlw	0
  7237  003274  1A17               	xorwf	(i2___flsub@a+2)^0,f,c
  7238  003276  0E80               	movlw	128
  7239  003278  1A18               	xorwf	(i2___flsub@a+3)^0,f,c
  7240  00327A  C011  F001         	movff	i2___flsub@b,i2___fladd@b
  7241  00327E  C012  F002         	movff	i2___flsub@b+1,i2___fladd@b+1
  7242  003282  C013  F003         	movff	i2___flsub@b+2,i2___fladd@b+2
  7243  003286  C014  F004         	movff	i2___flsub@b+3,i2___fladd@b+3
  7244  00328A  C015  F005         	movff	i2___flsub@a,i2___fladd@a
  7245  00328E  C016  F006         	movff	i2___flsub@a+1,i2___fladd@a+1
  7246  003292  C017  F007         	movff	i2___flsub@a+2,i2___fladd@a+2
  7247  003296  C018  F008         	movff	i2___flsub@a+3,i2___fladd@a+3
  7248  00329A  EC6A  F002         	call	i2___fladd	;wreg free
  7249  00329E  C001  F011         	movff	?i2___fladd,?i2___flsub
  7250  0032A2  C002  F012         	movff	?i2___fladd+1,?i2___flsub+1
  7251  0032A6  C003  F013         	movff	?i2___fladd+2,?i2___flsub+2
  7252  0032AA  C004  F014         	movff	?i2___fladd+3,?i2___flsub+3
  7253  0032AE  0012               	return		;funcret
  7254  0032B0                     __end_ofi2___flsub:
  7255                           	callstack 0
  7256                           
  7257 ;; *************** function i2___fladd *****************
  7258 ;; Defined at:
  7259 ;;		line 10 in file "C:\Program Files\Microchip\xc8\v2.36\pic\sources\c99\common\sprcadd.c"
  7260 ;; Parameters:    Size  Location     Type
  7261 ;;  b               4    0[COMRAM] long 
  7262 ;;  a               4    4[COMRAM] long 
  7263 ;; Auto vars:     Size  Location     Type
  7264 ;;  grs             1   15[COMRAM] unsigned char 
  7265 ;;  bexp            1   14[COMRAM] unsigned char 
  7266 ;;  aexp            1   13[COMRAM] unsigned char 
  7267 ;;  signs           1   12[COMRAM] unsigned char 
  7268 ;; Return value:  Size  Location     Type
  7269 ;;                  4    0[COMRAM] unsigned char 
  7270 ;; Registers used:
  7271 ;;		wreg, status,2, status,0
  7272 ;; Tracked objects:
  7273 ;;		On entry : 0/0
  7274 ;;		On exit  : 0/0
  7275 ;;		Unchanged: 0/0
  7276 ;; Data sizes:     COMRAM   BANK0   BANK1   BANK2   BANK3   BANK4   BANK5   BANK6   BANK7
  7277 ;;      Params:         8       0       0       0       0       0       0       0       0
  7278 ;;      Locals:         4       0       0       0       0       0       0       0       0
  7279 ;;      Temps:          4       0       0       0       0       0       0       0       0
  7280 ;;      Totals:        16       0       0       0       0       0       0       0       0
  7281 ;;Total ram usage:       16 bytes
  7282 ;; Hardware stack levels used: 1
  7283 ;; This function calls:
  7284 ;;		Nothing
  7285 ;; This function is called by:
  7286 ;;		i2___flsub
  7287 ;; This function uses a non-reentrant model
  7288 ;;
  7289                           
  7290                           	psect	text26
  7291  0004D4                     __ptext26:
  7292                           	callstack 0
  7293  0004D4                     i2___fladd:
  7294                           	callstack 23
  7295  0004D4  5004               	movf	(i2___fladd@b+3)^0,w,c
  7296  0004D6  0B80               	andlw	128
  7297  0004D8  6E0D               	movwf	i2___fladd@signs^0,c
  7298  0004DA  5004               	movf	(i2___fladd@b+3)^0,w,c
  7299  0004DC  2404               	addwf	(i2___fladd@b+3)^0,w,c
  7300  0004DE  6E0F               	movwf	i2___fladd@bexp^0,c
  7301  0004E0  AE03               	btfss	(i2___fladd@b+2)^0,7,c
  7302  0004E2  EF75  F002         	goto	i2u406_41
  7303  0004E6  EF77  F002         	goto	i2u406_40
  7304  0004EA                     i2u406_41:
  7305  0004EA  EF78  F002         	goto	i2l3671
  7306  0004EE                     i2u406_40:
  7307  0004EE  800F               	bsf	i2___fladd@bexp^0,0,c
  7308  0004F0                     i2l3671:
  7309  0004F0  500F               	movf	i2___fladd@bexp^0,w,c
  7310  0004F2  B4D8               	btfsc	status,2,c
  7311  0004F4  EF7E  F002         	goto	i2u407_41
  7312  0004F8  EF80  F002         	goto	i2u407_40
  7313  0004FC                     i2u407_41:
  7314  0004FC  EF95  F002         	goto	i2l3681
  7315  000500                     i2u407_40:
  7316  000500  280F               	incf	i2___fladd@bexp^0,w,c
  7317  000502  A4D8               	btfss	status,2,c
  7318  000504  EF86  F002         	goto	i2u408_41
  7319  000508  EF88  F002         	goto	i2u408_40
  7320  00050C                     i2u408_41:
  7321  00050C  EF90  F002         	goto	i2l3677
  7322  000510                     i2u408_40:
  7323  000510  0E00               	movlw	0
  7324  000512  6E01               	movwf	i2___fladd@b^0,c
  7325  000514  0E00               	movlw	0
  7326  000516  6E02               	movwf	(i2___fladd@b+1)^0,c
  7327  000518  0E00               	movlw	0
  7328  00051A  6E03               	movwf	(i2___fladd@b+2)^0,c
  7329  00051C  0E00               	movlw	0
  7330  00051E  6E04               	movwf	(i2___fladd@b+3)^0,c
  7331  000520                     i2l3677:
  7332  000520  8E03               	bsf	(i2___fladd@b+2)^0,7,c
  7333  000522  0E00               	movlw	0
  7334  000524  6E04               	movwf	(i2___fladd@b+3)^0,c
  7335  000526  EF9D  F002         	goto	i2l3683
  7336  00052A                     i2l3681:
  7337  00052A  0E00               	movlw	0
  7338  00052C  6E01               	movwf	i2___fladd@b^0,c
  7339  00052E  0E00               	movlw	0
  7340  000530  6E02               	movwf	(i2___fladd@b+1)^0,c
  7341  000532  0E00               	movlw	0
  7342  000534  6E03               	movwf	(i2___fladd@b+2)^0,c
  7343  000536  0E00               	movlw	0
  7344  000538  6E04               	movwf	(i2___fladd@b+3)^0,c
  7345  00053A                     i2l3683:
  7346  00053A  5008               	movf	(i2___fladd@a+3)^0,w,c
  7347  00053C  0B80               	andlw	128
  7348  00053E  6E0E               	movwf	i2___fladd@aexp^0,c
  7349  000540  500D               	movf	i2___fladd@signs^0,w,c
  7350  000542  180E               	xorwf	i2___fladd@aexp^0,w,c
  7351  000544  B4D8               	btfsc	status,2,c
  7352  000546  EFA7  F002         	goto	i2u409_41
  7353  00054A  EFA9  F002         	goto	i2u409_40
  7354  00054E                     i2u409_41:
  7355  00054E  EFAA  F002         	goto	i2l3689
  7356  000552                     i2u409_40:
  7357  000552  8C0D               	bsf	i2___fladd@signs^0,6,c
  7358  000554                     i2l3689:
  7359  000554  5008               	movf	(i2___fladd@a+3)^0,w,c
  7360  000556  2408               	addwf	(i2___fladd@a+3)^0,w,c
  7361  000558  6E0E               	movwf	i2___fladd@aexp^0,c
  7362  00055A  AE07               	btfss	(i2___fladd@a+2)^0,7,c
  7363  00055C  EFB2  F002         	goto	i2u410_41
  7364  000560  EFB4  F002         	goto	i2u410_40
  7365  000564                     i2u410_41:
  7366  000564  EFB5  F002         	goto	i2l3695
  7367  000568                     i2u410_40:
  7368  000568  800E               	bsf	i2___fladd@aexp^0,0,c
  7369  00056A                     i2l3695:
  7370  00056A  500E               	movf	i2___fladd@aexp^0,w,c
  7371  00056C  B4D8               	btfsc	status,2,c
  7372  00056E  EFBB  F002         	goto	i2u411_41
  7373  000572  EFBD  F002         	goto	i2u411_40
  7374  000576                     i2u411_41:
  7375  000576  EFD2  F002         	goto	i2l3705
  7376  00057A                     i2u411_40:
  7377  00057A  280E               	incf	i2___fladd@aexp^0,w,c
  7378  00057C  A4D8               	btfss	status,2,c
  7379  00057E  EFC3  F002         	goto	i2u412_41
  7380  000582  EFC5  F002         	goto	i2u412_40
  7381  000586                     i2u412_41:
  7382  000586  EFCD  F002         	goto	i2l3701
  7383  00058A                     i2u412_40:
  7384  00058A  0E00               	movlw	0
  7385  00058C  6E05               	movwf	i2___fladd@a^0,c
  7386  00058E  0E00               	movlw	0
  7387  000590  6E06               	movwf	(i2___fladd@a+1)^0,c
  7388  000592  0E00               	movlw	0
  7389  000594  6E07               	movwf	(i2___fladd@a+2)^0,c
  7390  000596  0E00               	movlw	0
  7391  000598  6E08               	movwf	(i2___fladd@a+3)^0,c
  7392  00059A                     i2l3701:
  7393  00059A  8E07               	bsf	(i2___fladd@a+2)^0,7,c
  7394  00059C  0E00               	movlw	0
  7395  00059E  6E08               	movwf	(i2___fladd@a+3)^0,c
  7396  0005A0  EFDA  F002         	goto	i2l3707
  7397  0005A4                     i2l3705:
  7398  0005A4  0E00               	movlw	0
  7399  0005A6  6E05               	movwf	i2___fladd@a^0,c
  7400  0005A8  0E00               	movlw	0
  7401  0005AA  6E06               	movwf	(i2___fladd@a+1)^0,c
  7402  0005AC  0E00               	movlw	0
  7403  0005AE  6E07               	movwf	(i2___fladd@a+2)^0,c
  7404  0005B0  0E00               	movlw	0
  7405  0005B2  6E08               	movwf	(i2___fladd@a+3)^0,c
  7406  0005B4                     i2l3707:
  7407  0005B4  500F               	movf	i2___fladd@bexp^0,w,c
  7408  0005B6  5C0E               	subwf	i2___fladd@aexp^0,w,c
  7409  0005B8  B0D8               	btfsc	status,0,c
  7410  0005BA  EFE1  F002         	goto	i2u413_41
  7411  0005BE  EFE3  F002         	goto	i2u413_40
  7412  0005C2                     i2u413_41:
  7413  0005C2  EF0A  F003         	goto	i2l3743
  7414  0005C6                     i2u413_40:
  7415  0005C6  AC0D               	btfss	i2___fladd@signs^0,6,c
  7416  0005C8  EFE8  F002         	goto	i2u414_41
  7417  0005CC  EFEA  F002         	goto	i2u414_40
  7418  0005D0                     i2u414_41:
  7419  0005D0  EFEC  F002         	goto	i2l3713
  7420  0005D4                     i2u414_40:
  7421  0005D4  0E80               	movlw	128
  7422  0005D6  1A0D               	xorwf	i2___fladd@signs^0,f,c
  7423  0005D8                     i2l3713:
  7424  0005D8  C00F  F010         	movff	i2___fladd@bexp,i2___fladd@grs
  7425  0005DC  C00E  F00F         	movff	i2___fladd@aexp,i2___fladd@bexp
  7426  0005E0  C010  F00E         	movff	i2___fladd@grs,i2___fladd@aexp
  7427  0005E4  C001  F010         	movff	i2___fladd@b,i2___fladd@grs
  7428  0005E8  C005  F001         	movff	i2___fladd@a,i2___fladd@b
  7429  0005EC  C010  F005         	movff	i2___fladd@grs,i2___fladd@a
  7430  0005F0  C002  F010         	movff	i2___fladd@b+1,i2___fladd@grs
  7431  0005F4  C006  F002         	movff	i2___fladd@a+1,i2___fladd@b+1
  7432  0005F8  C010  F006         	movff	i2___fladd@grs,i2___fladd@a+1
  7433  0005FC  C003  F010         	movff	i2___fladd@b+2,i2___fladd@grs
  7434  000600  C007  F003         	movff	i2___fladd@a+2,i2___fladd@b+2
  7435  000604  C010  F007         	movff	i2___fladd@grs,i2___fladd@a+2
  7436  000608  C004  F010         	movff	i2___fladd@b+3,i2___fladd@grs
  7437  00060C  C008  F004         	movff	i2___fladd@a+3,i2___fladd@b+3
  7438  000610  C010  F008         	movff	i2___fladd@grs,i2___fladd@a+3
  7439  000614                     i2l3743:
  7440  000614  0E00               	movlw	0
  7441  000616  6E10               	movwf	i2___fladd@grs^0,c
  7442  000618  500F               	movf	i2___fladd@bexp^0,w,c
  7443  00061A  C00E  F009         	movff	i2___fladd@aexp,??i2___fladd
  7444  00061E  6A0A               	clrf	(??i2___fladd+1)^0,c
  7445  000620  5E09               	subwf	??i2___fladd^0,f,c
  7446  000622  0E00               	movlw	0
  7447  000624  5A0A               	subwfb	(??i2___fladd+1)^0,f,c
  7448  000626  BE0A               	btfsc	(??i2___fladd+1)^0,7,c
  7449  000628  EF1F  F003         	goto	i2u415_41
  7450  00062C  500A               	movf	(??i2___fladd+1)^0,w,c
  7451  00062E  E109               	bnz	i2u415_40
  7452  000630  0E1A               	movlw	26
  7453  000632  5C09               	subwf	??i2___fladd^0,w,c
  7454  000634  A0D8               	btfss	status,0,c
  7455  000636  EF1F  F003         	goto	i2u415_41
  7456  00063A  EF21  F003         	goto	i2u415_40
  7457  00063E                     i2u415_41:
  7458  00063E  EF58  F003         	goto	i2l869
  7459  000642                     i2u415_40:
  7460  000642  5001               	movf	i2___fladd@b^0,w,c
  7461  000644  1002               	iorwf	(i2___fladd@b+1)^0,w,c
  7462  000646  1003               	iorwf	(i2___fladd@b+2)^0,w,c
  7463  000648  1004               	iorwf	(i2___fladd@b+3)^0,w,c
  7464  00064A  A4D8               	btfss	status,2,c
  7465  00064C  EF2A  F003         	goto	i2u416_41
  7466  000650  EF2D  F003         	goto	i2u416_40
  7467  000654                     i2u416_41:
  7468  000654  0E01               	movlw	1
  7469  000656  EF2E  F003         	goto	i2u417_40
  7470  00065A                     i2u416_40:
  7471  00065A  0E00               	movlw	0
  7472  00065C                     i2u417_40:
  7473  00065C  6E10               	movwf	i2___fladd@grs^0,c
  7474  00065E  0E00               	movlw	0
  7475  000660  6E01               	movwf	i2___fladd@b^0,c
  7476  000662  0E00               	movlw	0
  7477  000664  6E02               	movwf	(i2___fladd@b+1)^0,c
  7478  000666  0E00               	movlw	0
  7479  000668  6E03               	movwf	(i2___fladd@b+2)^0,c
  7480  00066A  0E00               	movlw	0
  7481  00066C  6E04               	movwf	(i2___fladd@b+3)^0,c
  7482  00066E  C00E  F00F         	movff	i2___fladd@aexp,i2___fladd@bexp
  7483  000672  EF61  F003         	goto	i2l868
  7484  000676                     i2l870:
  7485  000676  A010               	btfss	i2___fladd@grs^0,0,c
  7486  000678  EF40  F003         	goto	i2u418_41
  7487  00067C  EF42  F003         	goto	i2u418_40
  7488  000680                     i2u418_41:
  7489  000680  EF48  F003         	goto	i2l3755
  7490  000684                     i2u418_40:
  7491  000684  90D8               	bcf	status,0,c
  7492  000686  3010               	rrcf	i2___fladd@grs^0,w,c
  7493  000688  0901               	iorlw	1
  7494  00068A  6E10               	movwf	i2___fladd@grs^0,c
  7495  00068C  EF4A  F003         	goto	i2l3757
  7496  000690                     i2l3755:
  7497  000690  90D8               	bcf	status,0,c
  7498  000692  3210               	rrcf	i2___fladd@grs^0,f,c
  7499  000694                     i2l3757:
  7500  000694  A001               	btfss	i2___fladd@b^0,0,c
  7501  000696  EF4F  F003         	goto	i2u419_41
  7502  00069A  EF51  F003         	goto	i2u419_40
  7503  00069E                     i2u419_41:
  7504  00069E  EF52  F003         	goto	i2l3761
  7505  0006A2                     i2u419_40:
  7506  0006A2  8E10               	bsf	i2___fladd@grs^0,7,c
  7507  0006A4                     i2l3761:
  7508  0006A4  3404               	rlcf	(i2___fladd@b+3)^0,w,c
  7509  0006A6  3204               	rrcf	(i2___fladd@b+3)^0,f,c
  7510  0006A8  3203               	rrcf	(i2___fladd@b+2)^0,f,c
  7511  0006AA  3202               	rrcf	(i2___fladd@b+1)^0,f,c
  7512  0006AC  3201               	rrcf	i2___fladd@b^0,f,c
  7513  0006AE  2A0F               	incf	i2___fladd@bexp^0,f,c
  7514  0006B0                     i2l869:
  7515  0006B0  500E               	movf	i2___fladd@aexp^0,w,c
  7516  0006B2  5C0F               	subwf	i2___fladd@bexp^0,w,c
  7517  0006B4  A0D8               	btfss	status,0,c
  7518  0006B6  EF5F  F003         	goto	i2u420_41
  7519  0006BA  EF61  F003         	goto	i2u420_40
  7520  0006BE                     i2u420_41:
  7521  0006BE  EF3B  F003         	goto	i2l870
  7522  0006C2                     i2u420_40:
  7523  0006C2                     i2l868:
  7524  0006C2  BC0D               	btfsc	i2___fladd@signs^0,6,c
  7525  0006C4  EF66  F003         	goto	i2u421_41
  7526  0006C8  EF68  F003         	goto	i2u421_40
  7527  0006CC                     i2u421_41:
  7528  0006CC  EFA8  F003         	goto	i2l3789
  7529  0006D0                     i2u421_40:
  7530  0006D0  500F               	movf	i2___fladd@bexp^0,w,c
  7531  0006D2  A4D8               	btfss	status,2,c
  7532  0006D4  EF6E  F003         	goto	i2u422_41
  7533  0006D8  EF70  F003         	goto	i2u422_40
  7534  0006DC                     i2u422_41:
  7535  0006DC  EF7A  F003         	goto	i2l3771
  7536  0006E0                     i2u422_40:
  7537  0006E0  0E00               	movlw	0
  7538  0006E2  6E01               	movwf	?i2___fladd^0,c
  7539  0006E4  0E00               	movlw	0
  7540  0006E6  6E02               	movwf	(?i2___fladd+1)^0,c
  7541  0006E8  0E00               	movlw	0
  7542  0006EA  6E03               	movwf	(?i2___fladd+2)^0,c
  7543  0006EC  0E00               	movlw	0
  7544  0006EE  6E04               	movwf	(?i2___fladd+3)^0,c
  7545  0006F0  EFC9  F004         	goto	i2l877
  7546  0006F4                     i2l3771:
  7547  0006F4  5005               	movf	i2___fladd@a^0,w,c
  7548  0006F6  2601               	addwf	i2___fladd@b^0,f,c
  7549  0006F8  5006               	movf	(i2___fladd@a+1)^0,w,c
  7550  0006FA  2202               	addwfc	(i2___fladd@b+1)^0,f,c
  7551  0006FC  5007               	movf	(i2___fladd@a+2)^0,w,c
  7552  0006FE  2203               	addwfc	(i2___fladd@b+2)^0,f,c
  7553  000700  5008               	movf	(i2___fladd@a+3)^0,w,c
  7554  000702  2204               	addwfc	(i2___fladd@b+3)^0,f,c
  7555  000704  A004               	btfss	(i2___fladd@b+3)^0,0,c
  7556  000706  EF87  F003         	goto	i2u423_41
  7557  00070A  EF89  F003         	goto	i2u423_40
  7558  00070E                     i2u423_41:
  7559  00070E  EF35  F004         	goto	i2l3825
  7560  000712                     i2u423_40:
  7561  000712  A010               	btfss	i2___fladd@grs^0,0,c
  7562  000714  EF8E  F003         	goto	i2u424_41
  7563  000718  EF90  F003         	goto	i2u424_40
  7564  00071C                     i2u424_41:
  7565  00071C  EF96  F003         	goto	i2l3779
  7566  000720                     i2u424_40:
  7567  000720  90D8               	bcf	status,0,c
  7568  000722  3010               	rrcf	i2___fladd@grs^0,w,c
  7569  000724  0901               	iorlw	1
  7570  000726  6E10               	movwf	i2___fladd@grs^0,c
  7571  000728  EF98  F003         	goto	i2l3781
  7572  00072C                     i2l3779:
  7573  00072C  90D8               	bcf	status,0,c
  7574  00072E  3210               	rrcf	i2___fladd@grs^0,f,c
  7575  000730                     i2l3781:
  7576  000730  A001               	btfss	i2___fladd@b^0,0,c
  7577  000732  EF9D  F003         	goto	i2u425_41
  7578  000736  EF9F  F003         	goto	i2u425_40
  7579  00073A                     i2u425_41:
  7580  00073A  EFA0  F003         	goto	i2l3785
  7581  00073E                     i2u425_40:
  7582  00073E  8E10               	bsf	i2___fladd@grs^0,7,c
  7583  000740                     i2l3785:
  7584  000740  3404               	rlcf	(i2___fladd@b+3)^0,w,c
  7585  000742  3204               	rrcf	(i2___fladd@b+3)^0,f,c
  7586  000744  3203               	rrcf	(i2___fladd@b+2)^0,f,c
  7587  000746  3202               	rrcf	(i2___fladd@b+1)^0,f,c
  7588  000748  3201               	rrcf	i2___fladd@b^0,f,c
  7589  00074A  2A0F               	incf	i2___fladd@bexp^0,f,c
  7590  00074C  EF35  F004         	goto	i2l3825
  7591  000750                     i2l3789:
  7592  000750  5005               	movf	i2___fladd@a^0,w,c
  7593  000752  5C01               	subwf	i2___fladd@b^0,w,c
  7594  000754  5006               	movf	(i2___fladd@a+1)^0,w,c
  7595  000756  5802               	subwfb	(i2___fladd@b+1)^0,w,c
  7596  000758  5007               	movf	(i2___fladd@a+2)^0,w,c
  7597  00075A  5803               	subwfb	(i2___fladd@b+2)^0,w,c
  7598  00075C  5004               	movf	(i2___fladd@b+3)^0,w,c
  7599  00075E  0A80               	xorlw	128
  7600  000760  6E09               	movwf	??i2___fladd^0,c
  7601  000762  5008               	movf	(i2___fladd@a+3)^0,w,c
  7602  000764  0A80               	xorlw	128
  7603  000766  5809               	subwfb	??i2___fladd^0,w,c
  7604  000768  B0D8               	btfsc	status,0,c
  7605  00076A  EFB9  F003         	goto	i2u426_41
  7606  00076E  EFBB  F003         	goto	i2u426_40
  7607  000772                     i2u426_41:
  7608  000772  EFE6  F003         	goto	i2l3799
  7609  000776                     i2u426_40:
  7610  000776  5001               	movf	i2___fladd@b^0,w,c
  7611  000778  5C05               	subwf	i2___fladd@a^0,w,c
  7612  00077A  6E09               	movwf	??i2___fladd^0,c
  7613  00077C  5002               	movf	(i2___fladd@b+1)^0,w,c
  7614  00077E  5806               	subwfb	(i2___fladd@a+1)^0,w,c
  7615  000780  6E0A               	movwf	(??i2___fladd+1)^0,c
  7616  000782  5003               	movf	(i2___fladd@b+2)^0,w,c
  7617  000784  5807               	subwfb	(i2___fladd@a+2)^0,w,c
  7618  000786  6E0B               	movwf	(??i2___fladd+2)^0,c
  7619  000788  5004               	movf	(i2___fladd@b+3)^0,w,c
  7620  00078A  5808               	subwfb	(i2___fladd@a+3)^0,w,c
  7621  00078C  6E0C               	movwf	(??i2___fladd+3)^0,c
  7622  00078E  0EFF               	movlw	255
  7623  000790  2409               	addwf	??i2___fladd^0,w,c
  7624  000792  6E01               	movwf	i2___fladd@b^0,c
  7625  000794  0EFF               	movlw	255
  7626  000796  200A               	addwfc	(??i2___fladd+1)^0,w,c
  7627  000798  6E02               	movwf	(i2___fladd@b+1)^0,c
  7628  00079A  0EFF               	movlw	255
  7629  00079C  200B               	addwfc	(??i2___fladd+2)^0,w,c
  7630  00079E  6E03               	movwf	(i2___fladd@b+2)^0,c
  7631  0007A0  0EFF               	movlw	255
  7632  0007A2  200C               	addwfc	(??i2___fladd+3)^0,w,c
  7633  0007A4  6E04               	movwf	(i2___fladd@b+3)^0,c
  7634  0007A6  0E80               	movlw	128
  7635  0007A8  1A0D               	xorwf	i2___fladd@signs^0,f,c
  7636  0007AA  6C10               	negf	i2___fladd@grs^0,c
  7637  0007AC  5010               	movf	i2___fladd@grs^0,w,c
  7638  0007AE  A4D8               	btfss	status,2,c
  7639  0007B0  EFDC  F003         	goto	i2u427_41
  7640  0007B4  EFDE  F003         	goto	i2u427_40
  7641  0007B8                     i2u427_41:
  7642  0007B8  EFEE  F003         	goto	i2l885
  7643  0007BC                     i2u427_40:
  7644  0007BC  0E01               	movlw	1
  7645  0007BE  2601               	addwf	i2___fladd@b^0,f,c
  7646  0007C0  0E00               	movlw	0
  7647  0007C2  2202               	addwfc	(i2___fladd@b+1)^0,f,c
  7648  0007C4  2203               	addwfc	(i2___fladd@b+2)^0,f,c
  7649  0007C6  2204               	addwfc	(i2___fladd@b+3)^0,f,c
  7650  0007C8  EFEE  F003         	goto	i2l885
  7651  0007CC                     i2l3799:
  7652  0007CC  5005               	movf	i2___fladd@a^0,w,c
  7653  0007CE  5E01               	subwf	i2___fladd@b^0,f,c
  7654  0007D0  5006               	movf	(i2___fladd@a+1)^0,w,c
  7655  0007D2  5A02               	subwfb	(i2___fladd@b+1)^0,f,c
  7656  0007D4  5007               	movf	(i2___fladd@a+2)^0,w,c
  7657  0007D6  5A03               	subwfb	(i2___fladd@b+2)^0,f,c
  7658  0007D8  5008               	movf	(i2___fladd@a+3)^0,w,c
  7659  0007DA  5A04               	subwfb	(i2___fladd@b+3)^0,f,c
  7660  0007DC                     i2l885:
  7661  0007DC  5001               	movf	i2___fladd@b^0,w,c
  7662  0007DE  1002               	iorwf	(i2___fladd@b+1)^0,w,c
  7663  0007E0  1003               	iorwf	(i2___fladd@b+2)^0,w,c
  7664  0007E2  1004               	iorwf	(i2___fladd@b+3)^0,w,c
  7665  0007E4  A4D8               	btfss	status,2,c
  7666  0007E6  EFF7  F003         	goto	i2u428_41
  7667  0007EA  EFF9  F003         	goto	i2u428_40
  7668  0007EE                     i2u428_41:
  7669  0007EE  EF2E  F004         	goto	i2l3823
  7670  0007F2                     i2u428_40:
  7671  0007F2  5010               	movf	i2___fladd@grs^0,w,c
  7672  0007F4  A4D8               	btfss	status,2,c
  7673  0007F6  EFFF  F003         	goto	i2u429_41
  7674  0007FA  EF01  F004         	goto	i2u429_40
  7675  0007FE                     i2u429_41:
  7676  0007FE  EF2E  F004         	goto	i2l3823
  7677  000802                     i2u429_40:
  7678  000802  0E00               	movlw	0
  7679  000804  6E01               	movwf	?i2___fladd^0,c
  7680  000806  0E00               	movlw	0
  7681  000808  6E02               	movwf	(?i2___fladd+1)^0,c
  7682  00080A  0E00               	movlw	0
  7683  00080C  6E03               	movwf	(?i2___fladd+2)^0,c
  7684  00080E  0E00               	movlw	0
  7685  000810  6E04               	movwf	(?i2___fladd+3)^0,c
  7686  000812  EFC9  F004         	goto	i2l877
  7687  000816                     i2l3807:
  7688  000816  90D8               	bcf	status,0,c
  7689  000818  3601               	rlcf	i2___fladd@b^0,f,c
  7690  00081A  3602               	rlcf	(i2___fladd@b+1)^0,f,c
  7691  00081C  3603               	rlcf	(i2___fladd@b+2)^0,f,c
  7692  00081E  3604               	rlcf	(i2___fladd@b+3)^0,f,c
  7693  000820  AE10               	btfss	i2___fladd@grs^0,7,c
  7694  000822  EF15  F004         	goto	i2u430_41
  7695  000826  EF17  F004         	goto	i2u430_40
  7696  00082A                     i2u430_41:
  7697  00082A  EF18  F004         	goto	i2l3813
  7698  00082E                     i2u430_40:
  7699  00082E  8001               	bsf	i2___fladd@b^0,0,c
  7700  000830                     i2l3813:
  7701  000830  A010               	btfss	i2___fladd@grs^0,0,c
  7702  000832  EF1D  F004         	goto	i2u431_41
  7703  000836  EF1F  F004         	goto	i2u431_40
  7704  00083A                     i2u431_41:
  7705  00083A  EF23  F004         	goto	i2l3817
  7706  00083E                     i2u431_40:
  7707  00083E  80D8               	bsf	status,0,c
  7708  000840  3610               	rlcf	i2___fladd@grs^0,f,c
  7709  000842  EF25  F004         	goto	i2l3819
  7710  000846                     i2l3817:
  7711  000846  90D8               	bcf	status,0,c
  7712  000848  3610               	rlcf	i2___fladd@grs^0,f,c
  7713  00084A                     i2l3819:
  7714  00084A  500F               	movf	i2___fladd@bexp^0,w,c
  7715  00084C  B4D8               	btfsc	status,2,c
  7716  00084E  EF2B  F004         	goto	i2u432_41
  7717  000852  EF2D  F004         	goto	i2u432_40
  7718  000856                     i2u432_41:
  7719  000856  EF2E  F004         	goto	i2l3823
  7720  00085A                     i2u432_40:
  7721  00085A  060F               	decf	i2___fladd@bexp^0,f,c
  7722  00085C                     i2l3823:
  7723  00085C  AE03               	btfss	(i2___fladd@b+2)^0,7,c
  7724  00085E  EF33  F004         	goto	i2u433_41
  7725  000862  EF35  F004         	goto	i2u433_40
  7726  000866                     i2u433_41:
  7727  000866  EF0B  F004         	goto	i2l3807
  7728  00086A                     i2u433_40:
  7729  00086A                     i2l3825:
  7730  00086A  0E00               	movlw	0
  7731  00086C  6E0E               	movwf	i2___fladd@aexp^0,c
  7732  00086E  AE10               	btfss	i2___fladd@grs^0,7,c
  7733  000870  EF3C  F004         	goto	i2u434_41
  7734  000874  EF3E  F004         	goto	i2u434_40
  7735  000878                     i2u434_41:
  7736  000878  EF56  F004         	goto	i2l894
  7737  00087C                     i2u434_40:
  7738  00087C  C010  F009         	movff	i2___fladd@grs,??i2___fladd
  7739  000880  0E7F               	movlw	127
  7740  000882  1609               	andwf	??i2___fladd^0,f,c
  7741  000884  B4D8               	btfsc	status,2,c
  7742  000886  EF47  F004         	goto	i2u435_41
  7743  00088A  EF49  F004         	goto	i2u435_40
  7744  00088E                     i2u435_41:
  7745  00088E  EF4D  F004         	goto	i2l895
  7746  000892                     i2u435_40:
  7747  000892                     i2l3831:
  7748  000892  0E01               	movlw	1
  7749  000894  6E0E               	movwf	i2___fladd@aexp^0,c
  7750  000896  EF56  F004         	goto	i2l894
  7751  00089A                     i2l895:
  7752  00089A  A001               	btfss	i2___fladd@b^0,0,c
  7753  00089C  EF52  F004         	goto	i2u436_41
  7754  0008A0  EF54  F004         	goto	i2u436_40
  7755  0008A4                     i2u436_41:
  7756  0008A4  EF56  F004         	goto	i2l894
  7757  0008A8                     i2u436_40:
  7758  0008A8  EF49  F004         	goto	i2l3831
  7759  0008AC                     i2l894:
  7760  0008AC  500E               	movf	i2___fladd@aexp^0,w,c
  7761  0008AE  B4D8               	btfsc	status,2,c
  7762  0008B0  EF5C  F004         	goto	i2u437_41
  7763  0008B4  EF5E  F004         	goto	i2u437_40
  7764  0008B8                     i2u437_41:
  7765  0008B8  EF89  F004         	goto	i2l3843
  7766  0008BC                     i2u437_40:
  7767  0008BC  0E01               	movlw	1
  7768  0008BE  2601               	addwf	i2___fladd@b^0,f,c
  7769  0008C0  0E00               	movlw	0
  7770  0008C2  2202               	addwfc	(i2___fladd@b+1)^0,f,c
  7771  0008C4  2203               	addwfc	(i2___fladd@b+2)^0,f,c
  7772  0008C6  2204               	addwfc	(i2___fladd@b+3)^0,f,c
  7773  0008C8  A004               	btfss	(i2___fladd@b+3)^0,0,c
  7774  0008CA  EF69  F004         	goto	i2u438_41
  7775  0008CE  EF6B  F004         	goto	i2u438_40
  7776  0008D2                     i2u438_41:
  7777  0008D2  EF89  F004         	goto	i2l3843
  7778  0008D6                     i2u438_40:
  7779  0008D6  C001  F009         	movff	i2___fladd@b,??i2___fladd
  7780  0008DA  C002  F00A         	movff	i2___fladd@b+1,??i2___fladd+1
  7781  0008DE  C003  F00B         	movff	i2___fladd@b+2,??i2___fladd+2
  7782  0008E2  C004  F00C         	movff	i2___fladd@b+3,??i2___fladd+3
  7783  0008E6  340C               	rlcf	(??i2___fladd+3)^0,w,c
  7784  0008E8  320C               	rrcf	(??i2___fladd+3)^0,f,c
  7785  0008EA  320B               	rrcf	(??i2___fladd+2)^0,f,c
  7786  0008EC  320A               	rrcf	(??i2___fladd+1)^0,f,c
  7787  0008EE  3209               	rrcf	??i2___fladd^0,f,c
  7788  0008F0  C009  F001         	movff	??i2___fladd,i2___fladd@b
  7789  0008F4  C00A  F002         	movff	??i2___fladd+1,i2___fladd@b+1
  7790  0008F8  C00B  F003         	movff	??i2___fladd+2,i2___fladd@b+2
  7791  0008FC  C00C  F004         	movff	??i2___fladd+3,i2___fladd@b+3
  7792  000900  280F               	incf	i2___fladd@bexp^0,w,c
  7793  000902  B4D8               	btfsc	status,2,c
  7794  000904  EF86  F004         	goto	i2u439_41
  7795  000908  EF88  F004         	goto	i2u439_40
  7796  00090C                     i2u439_41:
  7797  00090C  EF89  F004         	goto	i2l3843
  7798  000910                     i2u439_40:
  7799  000910  2A0F               	incf	i2___fladd@bexp^0,f,c
  7800  000912                     i2l3843:
  7801  000912  280F               	incf	i2___fladd@bexp^0,w,c
  7802  000914  B4D8               	btfsc	status,2,c
  7803  000916  EF8F  F004         	goto	i2u440_41
  7804  00091A  EF91  F004         	goto	i2u440_40
  7805  00091E                     i2u440_41:
  7806  00091E  EF99  F004         	goto	i2l3847
  7807  000922                     i2u440_40:
  7808  000922  500F               	movf	i2___fladd@bexp^0,w,c
  7809  000924  A4D8               	btfss	status,2,c
  7810  000926  EF97  F004         	goto	i2u441_41
  7811  00092A  EF99  F004         	goto	i2u441_40
  7812  00092E                     i2u441_41:
  7813  00092E  EFAB  F004         	goto	i2l3851
  7814  000932                     i2u441_40:
  7815  000932                     i2l3847:
  7816  000932  0E00               	movlw	0
  7817  000934  6E01               	movwf	i2___fladd@b^0,c
  7818  000936  0E00               	movlw	0
  7819  000938  6E02               	movwf	(i2___fladd@b+1)^0,c
  7820  00093A  0E00               	movlw	0
  7821  00093C  6E03               	movwf	(i2___fladd@b+2)^0,c
  7822  00093E  0E00               	movlw	0
  7823  000940  6E04               	movwf	(i2___fladd@b+3)^0,c
  7824  000942  500F               	movf	i2___fladd@bexp^0,w,c
  7825  000944  A4D8               	btfss	status,2,c
  7826  000946  EFA7  F004         	goto	i2u442_41
  7827  00094A  EFA9  F004         	goto	i2u442_40
  7828  00094E                     i2u442_41:
  7829  00094E  EFAB  F004         	goto	i2l3851
  7830  000952                     i2u442_40:
  7831  000952  0E00               	movlw	0
  7832  000954  6E0D               	movwf	i2___fladd@signs^0,c
  7833  000956                     i2l3851:
  7834  000956  A00F               	btfss	i2___fladd@bexp^0,0,c
  7835  000958  EFB0  F004         	goto	i2u443_41
  7836  00095C  EFB2  F004         	goto	i2u443_40
  7837  000960                     i2u443_41:
  7838  000960  EFB5  F004         	goto	i2l3855
  7839  000964                     i2u443_40:
  7840  000964  8E03               	bsf	(i2___fladd@b+2)^0,7,c
  7841  000966  EFB6  F004         	goto	i2l3857
  7842  00096A                     i2l3855:
  7843  00096A  9E03               	bcf	(i2___fladd@b+2)^0,7,c
  7844  00096C                     i2l3857:
  7845  00096C  90D8               	bcf	status,0,c
  7846  00096E  300F               	rrcf	i2___fladd@bexp^0,w,c
  7847  000970  6E04               	movwf	(i2___fladd@b+3)^0,c
  7848  000972  AE0D               	btfss	i2___fladd@signs^0,7,c
  7849  000974  EFBE  F004         	goto	i2u444_41
  7850  000978  EFC0  F004         	goto	i2u444_40
  7851  00097C                     i2u444_41:
  7852  00097C  EFC1  F004         	goto	i2l3863
  7853  000980                     i2u444_40:
  7854  000980  8E04               	bsf	(i2___fladd@b+3)^0,7,c
  7855  000982                     i2l3863:
  7856  000982  C001  F001         	movff	i2___fladd@b,?i2___fladd
  7857  000986  C002  F002         	movff	i2___fladd@b+1,?i2___fladd+1
  7858  00098A  C003  F003         	movff	i2___fladd@b+2,?i2___fladd+2
  7859  00098E  C004  F004         	movff	i2___fladd@b+3,?i2___fladd+3
  7860  000992                     i2l877:
  7861  000992  0012               	return		;funcret
  7862  000994                     __end_ofi2___fladd:
  7863                           	callstack 0
  7864                           
  7865 ;; *************** function i2___flmul *****************
  7866 ;; Defined at:
  7867 ;;		line 8 in file "C:\Program Files\Microchip\xc8\v2.36\pic\sources\c99\common\sprcmul.c"
  7868 ;; Parameters:    Size  Location     Type
  7869 ;;  b               4   14[COMRAM] unsigned char 
  7870 ;;  a               4   18[COMRAM] unsigned char 
  7871 ;; Auto vars:     Size  Location     Type
  7872 ;;  prod            4   33[COMRAM] struct .
  7873 ;;  grs             4   27[COMRAM] unsigned long 
  7874 ;;  temp            2   37[COMRAM] struct .
  7875 ;;  bexp            1   32[COMRAM] unsigned char 
  7876 ;;  aexp            1   31[COMRAM] unsigned char 
  7877 ;;  sign            1   26[COMRAM] unsigned char 
  7878 ;; Return value:  Size  Location     Type
  7879 ;;                  4   14[COMRAM] unsigned char 
  7880 ;; Registers used:
  7881 ;;		wreg, status,2, status,0, prodl, prodh
  7882 ;; Tracked objects:
  7883 ;;		On entry : 0/0
  7884 ;;		On exit  : 0/0
  7885 ;;		Unchanged: 0/0
  7886 ;; Data sizes:     COMRAM   BANK0   BANK1   BANK2   BANK3   BANK4   BANK5   BANK6   BANK7
  7887 ;;      Params:         8       0       0       0       0       0       0       0       0
  7888 ;;      Locals:        13       0       0       0       0       0       0       0       0
  7889 ;;      Temps:          4       0       0       0       0       0       0       0       0
  7890 ;;      Totals:        25       0       0       0       0       0       0       0       0
  7891 ;;Total ram usage:       25 bytes
  7892 ;; Hardware stack levels used: 1
  7893 ;; This function calls:
  7894 ;;		Nothing
  7895 ;; This function is called by:
  7896 ;;		i2_desaceleracion
  7897 ;; This function uses a non-reentrant model
  7898 ;;
  7899                           
  7900                           	psect	text27
  7901  000DC0                     __ptext27:
  7902                           	callstack 0
  7903  000DC0                     i2___flmul:
  7904                           	callstack 24
  7905  000DC0  5012               	movf	(i2___flmul@b+3)^0,w,c
  7906  000DC2  0B80               	andlw	128
  7907  000DC4  6E1B               	movwf	i2___flmul@sign^0,c
  7908  000DC6  5012               	movf	(i2___flmul@b+3)^0,w,c
  7909  000DC8  2412               	addwf	(i2___flmul@b+3)^0,w,c
  7910  000DCA  6E21               	movwf	i2___flmul@bexp^0,c
  7911  000DCC  AE11               	btfss	(i2___flmul@b+2)^0,7,c
  7912  000DCE  EFEB  F006         	goto	i2u501_41
  7913  000DD2  EFED  F006         	goto	i2u501_40
  7914  000DD6                     i2u501_41:
  7915  000DD6  EFEE  F006         	goto	i2l4231
  7916  000DDA                     i2u501_40:
  7917  000DDA  8021               	bsf	i2___flmul@bexp^0,0,c
  7918  000DDC                     i2l4231:
  7919  000DDC  5021               	movf	i2___flmul@bexp^0,w,c
  7920  000DDE  B4D8               	btfsc	status,2,c
  7921  000DE0  EFF4  F006         	goto	i2u502_41
  7922  000DE4  EFF6  F006         	goto	i2u502_40
  7923  000DE8                     i2u502_41:
  7924  000DE8  EF09  F007         	goto	i2l4239
  7925  000DEC                     i2u502_40:
  7926  000DEC  2821               	incf	i2___flmul@bexp^0,w,c
  7927  000DEE  A4D8               	btfss	status,2,c
  7928  000DF0  EFFC  F006         	goto	i2u503_41
  7929  000DF4  EFFE  F006         	goto	i2u503_40
  7930  000DF8                     i2u503_41:
  7931  000DF8  EF06  F007         	goto	i2l4237
  7932  000DFC                     i2u503_40:
  7933  000DFC  0E00               	movlw	0
  7934  000DFE  6E0F               	movwf	i2___flmul@b^0,c
  7935  000E00  0E00               	movlw	0
  7936  000E02  6E10               	movwf	(i2___flmul@b+1)^0,c
  7937  000E04  0E00               	movlw	0
  7938  000E06  6E11               	movwf	(i2___flmul@b+2)^0,c
  7939  000E08  0E00               	movlw	0
  7940  000E0A  6E12               	movwf	(i2___flmul@b+3)^0,c
  7941  000E0C                     i2l4237:
  7942  000E0C  8E11               	bsf	(i2___flmul@b+2)^0,7,c
  7943  000E0E  EF11  F007         	goto	i2l4241
  7944  000E12                     i2l4239:
  7945  000E12  0E00               	movlw	0
  7946  000E14  6E0F               	movwf	i2___flmul@b^0,c
  7947  000E16  0E00               	movlw	0
  7948  000E18  6E10               	movwf	(i2___flmul@b+1)^0,c
  7949  000E1A  0E00               	movlw	0
  7950  000E1C  6E11               	movwf	(i2___flmul@b+2)^0,c
  7951  000E1E  0E00               	movlw	0
  7952  000E20  6E12               	movwf	(i2___flmul@b+3)^0,c
  7953  000E22                     i2l4241:
  7954  000E22  5016               	movf	(i2___flmul@a+3)^0,w,c
  7955  000E24  0B80               	andlw	128
  7956  000E26  1A1B               	xorwf	i2___flmul@sign^0,f,c
  7957  000E28  5016               	movf	(i2___flmul@a+3)^0,w,c
  7958  000E2A  2416               	addwf	(i2___flmul@a+3)^0,w,c
  7959  000E2C  6E20               	movwf	i2___flmul@aexp^0,c
  7960  000E2E  AE15               	btfss	(i2___flmul@a+2)^0,7,c
  7961  000E30  EF1C  F007         	goto	i2u504_41
  7962  000E34  EF1E  F007         	goto	i2u504_40
  7963  000E38                     i2u504_41:
  7964  000E38  EF1F  F007         	goto	i2l4249
  7965  000E3C                     i2u504_40:
  7966  000E3C  8020               	bsf	i2___flmul@aexp^0,0,c
  7967  000E3E                     i2l4249:
  7968  000E3E  5020               	movf	i2___flmul@aexp^0,w,c
  7969  000E40  B4D8               	btfsc	status,2,c
  7970  000E42  EF25  F007         	goto	i2u505_41
  7971  000E46  EF27  F007         	goto	i2u505_40
  7972  000E4A                     i2u505_41:
  7973  000E4A  EF3A  F007         	goto	i2l4257
  7974  000E4E                     i2u505_40:
  7975  000E4E  2820               	incf	i2___flmul@aexp^0,w,c
  7976  000E50  A4D8               	btfss	status,2,c
  7977  000E52  EF2D  F007         	goto	i2u506_41
  7978  000E56  EF2F  F007         	goto	i2u506_40
  7979  000E5A                     i2u506_41:
  7980  000E5A  EF37  F007         	goto	i2l4255
  7981  000E5E                     i2u506_40:
  7982  000E5E  0E00               	movlw	0
  7983  000E60  6E13               	movwf	i2___flmul@a^0,c
  7984  000E62  0E00               	movlw	0
  7985  000E64  6E14               	movwf	(i2___flmul@a+1)^0,c
  7986  000E66  0E00               	movlw	0
  7987  000E68  6E15               	movwf	(i2___flmul@a+2)^0,c
  7988  000E6A  0E00               	movlw	0
  7989  000E6C  6E16               	movwf	(i2___flmul@a+3)^0,c
  7990  000E6E                     i2l4255:
  7991  000E6E  8E15               	bsf	(i2___flmul@a+2)^0,7,c
  7992  000E70  EF42  F007         	goto	i2l954
  7993  000E74                     i2l4257:
  7994  000E74  0E00               	movlw	0
  7995  000E76  6E13               	movwf	i2___flmul@a^0,c
  7996  000E78  0E00               	movlw	0
  7997  000E7A  6E14               	movwf	(i2___flmul@a+1)^0,c
  7998  000E7C  0E00               	movlw	0
  7999  000E7E  6E15               	movwf	(i2___flmul@a+2)^0,c
  8000  000E80  0E00               	movlw	0
  8001  000E82  6E16               	movwf	(i2___flmul@a+3)^0,c
  8002  000E84                     i2l954:
  8003  000E84  5020               	movf	i2___flmul@aexp^0,w,c
  8004  000E86  B4D8               	btfsc	status,2,c
  8005  000E88  EF48  F007         	goto	i2u507_41
  8006  000E8C  EF4A  F007         	goto	i2u507_40
  8007  000E90                     i2u507_41:
  8008  000E90  EF52  F007         	goto	i2l4261
  8009  000E94                     i2u507_40:
  8010  000E94  5021               	movf	i2___flmul@bexp^0,w,c
  8011  000E96  A4D8               	btfss	status,2,c
  8012  000E98  EF50  F007         	goto	i2u508_41
  8013  000E9C  EF52  F007         	goto	i2u508_40
  8014  000EA0                     i2u508_41:
  8015  000EA0  EF5C  F007         	goto	i2l4265
  8016  000EA4                     i2u508_40:
  8017  000EA4                     i2l4261:
  8018  000EA4  0E00               	movlw	0
  8019  000EA6  6E0F               	movwf	?i2___flmul^0,c
  8020  000EA8  0E00               	movlw	0
  8021  000EAA  6E10               	movwf	(?i2___flmul+1)^0,c
  8022  000EAC  0E00               	movlw	0
  8023  000EAE  6E11               	movwf	(?i2___flmul+2)^0,c
  8024  000EB0  0E00               	movlw	0
  8025  000EB2  6E12               	movwf	(?i2___flmul+3)^0,c
  8026  000EB4  EFF4  F008         	goto	i2l958
  8027  000EB8                     i2l4265:
  8028  000EB8  5015               	movf	(i2___flmul@a+2)^0,w,c
  8029  000EBA  020F               	mulwf	i2___flmul@b^0,c
  8030  000EBC  CFF3 F026          	movff	prodl,i2___flmul@temp
  8031  000EC0  CFF4 F027          	movff	prodh,i2___flmul@temp+1
  8032  000EC4  5026               	movf	i2___flmul@temp^0,w,c
  8033  000EC6  6E1C               	movwf	i2___flmul@grs^0,c
  8034  000EC8  6A1D               	clrf	(i2___flmul@grs+1)^0,c
  8035  000ECA  6A1E               	clrf	(i2___flmul@grs+2)^0,c
  8036  000ECC  6A1F               	clrf	(i2___flmul@grs+3)^0,c
  8037  000ECE  5027               	movf	(i2___flmul@temp+1)^0,w,c
  8038  000ED0  6E22               	movwf	i2___flmul@prod^0,c
  8039  000ED2  6A23               	clrf	(i2___flmul@prod+1)^0,c
  8040  000ED4  6A24               	clrf	(i2___flmul@prod+2)^0,c
  8041  000ED6  6A25               	clrf	(i2___flmul@prod+3)^0,c
  8042  000ED8  5014               	movf	(i2___flmul@a+1)^0,w,c
  8043  000EDA  0210               	mulwf	(i2___flmul@b+1)^0,c
  8044  000EDC  CFF3 F026          	movff	prodl,i2___flmul@temp
  8045  000EE0  CFF4 F027          	movff	prodh,i2___flmul@temp+1
  8046  000EE4  5026               	movf	i2___flmul@temp^0,w,c
  8047  000EE6  261C               	addwf	i2___flmul@grs^0,f,c
  8048  000EE8  0E00               	movlw	0
  8049  000EEA  221D               	addwfc	(i2___flmul@grs+1)^0,f,c
  8050  000EEC  221E               	addwfc	(i2___flmul@grs+2)^0,f,c
  8051  000EEE  221F               	addwfc	(i2___flmul@grs+3)^0,f,c
  8052  000EF0  5027               	movf	(i2___flmul@temp+1)^0,w,c
  8053  000EF2  2622               	addwf	i2___flmul@prod^0,f,c
  8054  000EF4  0E00               	movlw	0
  8055  000EF6  2223               	addwfc	(i2___flmul@prod+1)^0,f,c
  8056  000EF8  2224               	addwfc	(i2___flmul@prod+2)^0,f,c
  8057  000EFA  2225               	addwfc	(i2___flmul@prod+3)^0,f,c
  8058  000EFC  5013               	movf	i2___flmul@a^0,w,c
  8059  000EFE  0211               	mulwf	(i2___flmul@b+2)^0,c
  8060  000F00  CFF3 F026          	movff	prodl,i2___flmul@temp
  8061  000F04  CFF4 F027          	movff	prodh,i2___flmul@temp+1
  8062  000F08  5026               	movf	i2___flmul@temp^0,w,c
  8063  000F0A  261C               	addwf	i2___flmul@grs^0,f,c
  8064  000F0C  0E00               	movlw	0
  8065  000F0E  221D               	addwfc	(i2___flmul@grs+1)^0,f,c
  8066  000F10  221E               	addwfc	(i2___flmul@grs+2)^0,f,c
  8067  000F12  221F               	addwfc	(i2___flmul@grs+3)^0,f,c
  8068  000F14  5027               	movf	(i2___flmul@temp+1)^0,w,c
  8069  000F16  2622               	addwf	i2___flmul@prod^0,f,c
  8070  000F18  0E00               	movlw	0
  8071  000F1A  2223               	addwfc	(i2___flmul@prod+1)^0,f,c
  8072  000F1C  2224               	addwfc	(i2___flmul@prod+2)^0,f,c
  8073  000F1E  2225               	addwfc	(i2___flmul@prod+3)^0,f,c
  8074  000F20  C01E  F01F         	movff	i2___flmul@grs+2,i2___flmul@grs+3
  8075  000F24  C01D  F01E         	movff	i2___flmul@grs+1,i2___flmul@grs+2
  8076  000F28  C01C  F01D         	movff	i2___flmul@grs,i2___flmul@grs+1
  8077  000F2C  6A1C               	clrf	i2___flmul@grs^0,c
  8078  000F2E  5013               	movf	i2___flmul@a^0,w,c
  8079  000F30  0210               	mulwf	(i2___flmul@b+1)^0,c
  8080  000F32  CFF3 F026          	movff	prodl,i2___flmul@temp
  8081  000F36  CFF4 F027          	movff	prodh,i2___flmul@temp+1
  8082  000F3A  5026               	movf	i2___flmul@temp^0,w,c
  8083  000F3C  261C               	addwf	i2___flmul@grs^0,f,c
  8084  000F3E  5027               	movf	(i2___flmul@temp+1)^0,w,c
  8085  000F40  221D               	addwfc	(i2___flmul@grs+1)^0,f,c
  8086  000F42  0E00               	movlw	0
  8087  000F44  221E               	addwfc	(i2___flmul@grs+2)^0,f,c
  8088  000F46  0E00               	movlw	0
  8089  000F48  221F               	addwfc	(i2___flmul@grs+3)^0,f,c
  8090  000F4A  5014               	movf	(i2___flmul@a+1)^0,w,c
  8091  000F4C  020F               	mulwf	i2___flmul@b^0,c
  8092  000F4E  CFF3 F026          	movff	prodl,i2___flmul@temp
  8093  000F52  CFF4 F027          	movff	prodh,i2___flmul@temp+1
  8094  000F56  5026               	movf	i2___flmul@temp^0,w,c
  8095  000F58  261C               	addwf	i2___flmul@grs^0,f,c
  8096  000F5A  5027               	movf	(i2___flmul@temp+1)^0,w,c
  8097  000F5C  221D               	addwfc	(i2___flmul@grs+1)^0,f,c
  8098  000F5E  0E00               	movlw	0
  8099  000F60  221E               	addwfc	(i2___flmul@grs+2)^0,f,c
  8100  000F62  0E00               	movlw	0
  8101  000F64  221F               	addwfc	(i2___flmul@grs+3)^0,f,c
  8102  000F66  C01E  F01F         	movff	i2___flmul@grs+2,i2___flmul@grs+3
  8103  000F6A  C01D  F01E         	movff	i2___flmul@grs+1,i2___flmul@grs+2
  8104  000F6E  C01C  F01D         	movff	i2___flmul@grs,i2___flmul@grs+1
  8105  000F72  6A1C               	clrf	i2___flmul@grs^0,c
  8106  000F74  5013               	movf	i2___flmul@a^0,w,c
  8107  000F76  020F               	mulwf	i2___flmul@b^0,c
  8108  000F78  CFF3 F026          	movff	prodl,i2___flmul@temp
  8109  000F7C  CFF4 F027          	movff	prodh,i2___flmul@temp+1
  8110  000F80  5026               	movf	i2___flmul@temp^0,w,c
  8111  000F82  261C               	addwf	i2___flmul@grs^0,f,c
  8112  000F84  5027               	movf	(i2___flmul@temp+1)^0,w,c
  8113  000F86  221D               	addwfc	(i2___flmul@grs+1)^0,f,c
  8114  000F88  0E00               	movlw	0
  8115  000F8A  221E               	addwfc	(i2___flmul@grs+2)^0,f,c
  8116  000F8C  0E00               	movlw	0
  8117  000F8E  221F               	addwfc	(i2___flmul@grs+3)^0,f,c
  8118  000F90  5015               	movf	(i2___flmul@a+2)^0,w,c
  8119  000F92  0210               	mulwf	(i2___flmul@b+1)^0,c
  8120  000F94  CFF3 F026          	movff	prodl,i2___flmul@temp
  8121  000F98  CFF4 F027          	movff	prodh,i2___flmul@temp+1
  8122  000F9C  5026               	movf	i2___flmul@temp^0,w,c
  8123  000F9E  2622               	addwf	i2___flmul@prod^0,f,c
  8124  000FA0  5027               	movf	(i2___flmul@temp+1)^0,w,c
  8125  000FA2  2223               	addwfc	(i2___flmul@prod+1)^0,f,c
  8126  000FA4  0E00               	movlw	0
  8127  000FA6  2224               	addwfc	(i2___flmul@prod+2)^0,f,c
  8128  000FA8  0E00               	movlw	0
  8129  000FAA  2225               	addwfc	(i2___flmul@prod+3)^0,f,c
  8130  000FAC  5014               	movf	(i2___flmul@a+1)^0,w,c
  8131  000FAE  0211               	mulwf	(i2___flmul@b+2)^0,c
  8132  000FB0  CFF3 F026          	movff	prodl,i2___flmul@temp
  8133  000FB4  CFF4 F027          	movff	prodh,i2___flmul@temp+1
  8134  000FB8  5026               	movf	i2___flmul@temp^0,w,c
  8135  000FBA  2622               	addwf	i2___flmul@prod^0,f,c
  8136  000FBC  5027               	movf	(i2___flmul@temp+1)^0,w,c
  8137  000FBE  2223               	addwfc	(i2___flmul@prod+1)^0,f,c
  8138  000FC0  0E00               	movlw	0
  8139  000FC2  2224               	addwfc	(i2___flmul@prod+2)^0,f,c
  8140  000FC4  0E00               	movlw	0
  8141  000FC6  2225               	addwfc	(i2___flmul@prod+3)^0,f,c
  8142  000FC8  5015               	movf	(i2___flmul@a+2)^0,w,c
  8143  000FCA  0211               	mulwf	(i2___flmul@b+2)^0,c
  8144  000FCC  CFF3 F026          	movff	prodl,i2___flmul@temp
  8145  000FD0  CFF4 F027          	movff	prodh,i2___flmul@temp+1
  8146  000FD4  5026               	movf	i2___flmul@temp^0,w,c
  8147  000FD6  6E17               	movwf	??i2___flmul^0,c
  8148  000FD8  5027               	movf	(i2___flmul@temp+1)^0,w,c
  8149  000FDA  6E18               	movwf	(??i2___flmul+1)^0,c
  8150  000FDC  6A19               	clrf	(??i2___flmul+2)^0,c
  8151  000FDE  6A1A               	clrf	(??i2___flmul+3)^0,c
  8152  000FE0  C019  F01A         	movff	??i2___flmul+2,??i2___flmul+3
  8153  000FE4  C018  F019         	movff	??i2___flmul+1,??i2___flmul+2
  8154  000FE8  C017  F018         	movff	??i2___flmul,??i2___flmul+1
  8155  000FEC  6A17               	clrf	??i2___flmul^0,c
  8156  000FEE  5017               	movf	??i2___flmul^0,w,c
  8157  000FF0  2622               	addwf	i2___flmul@prod^0,f,c
  8158  000FF2  5018               	movf	(??i2___flmul+1)^0,w,c
  8159  000FF4  2223               	addwfc	(i2___flmul@prod+1)^0,f,c
  8160  000FF6  5019               	movf	(??i2___flmul+2)^0,w,c
  8161  000FF8  2224               	addwfc	(i2___flmul@prod+2)^0,f,c
  8162  000FFA  501A               	movf	(??i2___flmul+3)^0,w,c
  8163  000FFC  2225               	addwfc	(i2___flmul@prod+3)^0,f,c
  8164  000FFE  C01C  F017         	movff	i2___flmul@grs,??i2___flmul
  8165  001002  C01D  F018         	movff	i2___flmul@grs+1,??i2___flmul+1
  8166  001006  C01E  F019         	movff	i2___flmul@grs+2,??i2___flmul+2
  8167  00100A  C01F  F01A         	movff	i2___flmul@grs+3,??i2___flmul+3
  8168  00100E  0E19               	movlw	25
  8169  001010  EF0F  F008         	goto	i2u509_40
  8170  001014                     i2u509_45:
  8171  001014  90D8               	bcf	status,0,c
  8172  001016  321A               	rrcf	(??i2___flmul+3)^0,f,c
  8173  001018  3219               	rrcf	(??i2___flmul+2)^0,f,c
  8174  00101A  3218               	rrcf	(??i2___flmul+1)^0,f,c
  8175  00101C  3217               	rrcf	??i2___flmul^0,f,c
  8176  00101E                     i2u509_40:
  8177  00101E  2EE8               	decfsz	wreg,f,c
  8178  001020  EF0A  F008         	goto	i2u509_45
  8179  001024  5017               	movf	??i2___flmul^0,w,c
  8180  001026  2622               	addwf	i2___flmul@prod^0,f,c
  8181  001028  5018               	movf	(??i2___flmul+1)^0,w,c
  8182  00102A  2223               	addwfc	(i2___flmul@prod+1)^0,f,c
  8183  00102C  5019               	movf	(??i2___flmul+2)^0,w,c
  8184  00102E  2224               	addwfc	(i2___flmul@prod+2)^0,f,c
  8185  001030  501A               	movf	(??i2___flmul+3)^0,w,c
  8186  001032  2225               	addwfc	(i2___flmul@prod+3)^0,f,c
  8187  001034  C01E  F01F         	movff	i2___flmul@grs+2,i2___flmul@grs+3
  8188  001038  C01D  F01E         	movff	i2___flmul@grs+1,i2___flmul@grs+2
  8189  00103C  C01C  F01D         	movff	i2___flmul@grs,i2___flmul@grs+1
  8190  001040  6A1C               	clrf	i2___flmul@grs^0,c
  8191  001042  5020               	movf	i2___flmul@aexp^0,w,c
  8192  001044  C021  F017         	movff	i2___flmul@bexp,??i2___flmul
  8193  001048  6A18               	clrf	(??i2___flmul+1)^0,c
  8194  00104A  2617               	addwf	??i2___flmul^0,f,c
  8195  00104C  0E00               	movlw	0
  8196  00104E  2218               	addwfc	(??i2___flmul+1)^0,f,c
  8197  001050  0E82               	movlw	130
  8198  001052  2417               	addwf	??i2___flmul^0,w,c
  8199  001054  6E26               	movwf	i2___flmul@temp^0,c
  8200  001056  0EFF               	movlw	255
  8201  001058  2018               	addwfc	(??i2___flmul+1)^0,w,c
  8202  00105A  6E27               	movwf	(i2___flmul@temp+1)^0,c
  8203  00105C  EF45  F008         	goto	i2l4313
  8204  001060                     i2l4307:
  8205  001060  90D8               	bcf	status,0,c
  8206  001062  3622               	rlcf	i2___flmul@prod^0,f,c
  8207  001064  3623               	rlcf	(i2___flmul@prod+1)^0,f,c
  8208  001066  3624               	rlcf	(i2___flmul@prod+2)^0,f,c
  8209  001068  3625               	rlcf	(i2___flmul@prod+3)^0,f,c
  8210  00106A  AE1F               	btfss	(i2___flmul@grs+3)^0,7,c
  8211  00106C  EF3A  F008         	goto	i2u510_41
  8212  001070  EF3C  F008         	goto	i2u510_40
  8213  001074                     i2u510_41:
  8214  001074  EF3D  F008         	goto	i2l961
  8215  001078                     i2u510_40:
  8216  001078  8022               	bsf	i2___flmul@prod^0,0,c
  8217  00107A                     i2l961:
  8218  00107A  90D8               	bcf	status,0,c
  8219  00107C  361C               	rlcf	i2___flmul@grs^0,f,c
  8220  00107E  361D               	rlcf	(i2___flmul@grs+1)^0,f,c
  8221  001080  361E               	rlcf	(i2___flmul@grs+2)^0,f,c
  8222  001082  361F               	rlcf	(i2___flmul@grs+3)^0,f,c
  8223  001084  0626               	decf	i2___flmul@temp^0,f,c
  8224  001086  A0D8               	btfss	status,0,c
  8225  001088  0627               	decf	(i2___flmul@temp+1)^0,f,c
  8226  00108A                     i2l4313:
  8227  00108A  AE24               	btfss	(i2___flmul@prod+2)^0,7,c
  8228  00108C  EF4A  F008         	goto	i2u511_41
  8229  001090  EF4C  F008         	goto	i2u511_40
  8230  001094                     i2u511_41:
  8231  001094  EF30  F008         	goto	i2l4307
  8232  001098                     i2u511_40:
  8233  001098  0E00               	movlw	0
  8234  00109A  6E20               	movwf	i2___flmul@aexp^0,c
  8235  00109C  AE1F               	btfss	(i2___flmul@grs+3)^0,7,c
  8236  00109E  EF53  F008         	goto	i2u512_41
  8237  0010A2  EF55  F008         	goto	i2u512_40
  8238  0010A6                     i2u512_41:
  8239  0010A6  EF79  F008         	goto	i2l963
  8240  0010AA                     i2u512_40:
  8241  0010AA  0EFF               	movlw	255
  8242  0010AC  141C               	andwf	i2___flmul@grs^0,w,c
  8243  0010AE  6E17               	movwf	??i2___flmul^0,c
  8244  0010B0  0EFF               	movlw	255
  8245  0010B2  141D               	andwf	(i2___flmul@grs+1)^0,w,c
  8246  0010B4  6E18               	movwf	(??i2___flmul+1)^0,c
  8247  0010B6  0EFF               	movlw	255
  8248  0010B8  141E               	andwf	(i2___flmul@grs+2)^0,w,c
  8249  0010BA  6E19               	movwf	(??i2___flmul+2)^0,c
  8250  0010BC  0E7F               	movlw	127
  8251  0010BE  141F               	andwf	(i2___flmul@grs+3)^0,w,c
  8252  0010C0  6E1A               	movwf	(??i2___flmul+3)^0,c
  8253  0010C2  5017               	movf	??i2___flmul^0,w,c
  8254  0010C4  1018               	iorwf	(??i2___flmul+1)^0,w,c
  8255  0010C6  1019               	iorwf	(??i2___flmul+2)^0,w,c
  8256  0010C8  101A               	iorwf	(??i2___flmul+3)^0,w,c
  8257  0010CA  B4D8               	btfsc	status,2,c
  8258  0010CC  EF6A  F008         	goto	i2u513_41
  8259  0010D0  EF6C  F008         	goto	i2u513_40
  8260  0010D4                     i2u513_41:
  8261  0010D4  EF70  F008         	goto	i2l964
  8262  0010D8                     i2u513_40:
  8263  0010D8                     i2l4321:
  8264  0010D8  0E01               	movlw	1
  8265  0010DA  6E20               	movwf	i2___flmul@aexp^0,c
  8266  0010DC  EF79  F008         	goto	i2l963
  8267  0010E0                     i2l964:
  8268  0010E0  A022               	btfss	i2___flmul@prod^0,0,c
  8269  0010E2  EF75  F008         	goto	i2u514_41
  8270  0010E6  EF77  F008         	goto	i2u514_40
  8271  0010EA                     i2u514_41:
  8272  0010EA  EF79  F008         	goto	i2l963
  8273  0010EE                     i2u514_40:
  8274  0010EE  EF6C  F008         	goto	i2l4321
  8275  0010F2                     i2l963:
  8276  0010F2  5020               	movf	i2___flmul@aexp^0,w,c
  8277  0010F4  B4D8               	btfsc	status,2,c
  8278  0010F6  EF7F  F008         	goto	i2u515_41
  8279  0010FA  EF81  F008         	goto	i2u515_40
  8280  0010FE                     i2u515_41:
  8281  0010FE  EFA5  F008         	goto	i2l4333
  8282  001102                     i2u515_40:
  8283  001102  0E01               	movlw	1
  8284  001104  2622               	addwf	i2___flmul@prod^0,f,c
  8285  001106  0E00               	movlw	0
  8286  001108  2223               	addwfc	(i2___flmul@prod+1)^0,f,c
  8287  00110A  2224               	addwfc	(i2___flmul@prod+2)^0,f,c
  8288  00110C  2225               	addwfc	(i2___flmul@prod+3)^0,f,c
  8289  00110E  A025               	btfss	(i2___flmul@prod+3)^0,0,c
  8290  001110  EF8C  F008         	goto	i2u516_41
  8291  001114  EF8E  F008         	goto	i2u516_40
  8292  001118                     i2u516_41:
  8293  001118  EFA5  F008         	goto	i2l4333
  8294  00111C                     i2u516_40:
  8295  00111C  C022  F017         	movff	i2___flmul@prod,??i2___flmul
  8296  001120  C023  F018         	movff	i2___flmul@prod+1,??i2___flmul+1
  8297  001124  C024  F019         	movff	i2___flmul@prod+2,??i2___flmul+2
  8298  001128  C025  F01A         	movff	i2___flmul@prod+3,??i2___flmul+3
  8299  00112C  341A               	rlcf	(??i2___flmul+3)^0,w,c
  8300  00112E  321A               	rrcf	(??i2___flmul+3)^0,f,c
  8301  001130  3219               	rrcf	(??i2___flmul+2)^0,f,c
  8302  001132  3218               	rrcf	(??i2___flmul+1)^0,f,c
  8303  001134  3217               	rrcf	??i2___flmul^0,f,c
  8304  001136  C017  F022         	movff	??i2___flmul,i2___flmul@prod
  8305  00113A  C018  F023         	movff	??i2___flmul+1,i2___flmul@prod+1
  8306  00113E  C019  F024         	movff	??i2___flmul+2,i2___flmul@prod+2
  8307  001142  C01A  F025         	movff	??i2___flmul+3,i2___flmul@prod+3
  8308  001146  4A26               	infsnz	i2___flmul@temp^0,f,c
  8309  001148  2A27               	incf	(i2___flmul@temp+1)^0,f,c
  8310  00114A                     i2l4333:
  8311  00114A  BE27               	btfsc	(i2___flmul@temp+1)^0,7,c
  8312  00114C  EFB0  F008         	goto	i2u517_41
  8313  001150  5027               	movf	(i2___flmul@temp+1)^0,w,c
  8314  001152  E108               	bnz	i2u517_40
  8315  001154  2826               	incf	i2___flmul@temp^0,w,c
  8316  001156  A0D8               	btfss	status,0,c
  8317  001158  EFB0  F008         	goto	i2u517_41
  8318  00115C  EFB2  F008         	goto	i2u517_40
  8319  001160                     i2u517_41:
  8320  001160  EFBC  F008         	goto	i2l4337
  8321  001164                     i2u517_40:
  8322  001164  0E00               	movlw	0
  8323  001166  6E22               	movwf	i2___flmul@prod^0,c
  8324  001168  0E00               	movlw	0
  8325  00116A  6E23               	movwf	(i2___flmul@prod+1)^0,c
  8326  00116C  0E80               	movlw	128
  8327  00116E  6E24               	movwf	(i2___flmul@prod+2)^0,c
  8328  001170  0E7F               	movlw	127
  8329  001172  6E25               	movwf	(i2___flmul@prod+3)^0,c
  8330  001174  EFEA  F008         	goto	i2l4349
  8331  001178                     i2l4337:
  8332  001178  BE27               	btfsc	(i2___flmul@temp+1)^0,7,c
  8333  00117A  EFC9  F008         	goto	i2u518_40
  8334  00117E  5027               	movf	(i2___flmul@temp+1)^0,w,c
  8335  001180  E106               	bnz	i2u518_41
  8336  001182  0426               	decf	i2___flmul@temp^0,w,c
  8337  001184  B0D8               	btfsc	status,0,c
  8338  001186  EFC7  F008         	goto	i2u518_41
  8339  00118A  EFC9  F008         	goto	i2u518_40
  8340  00118E                     i2u518_41:
  8341  00118E  EFD5  F008         	goto	i2l971
  8342  001192                     i2u518_40:
  8343  001192  0E00               	movlw	0
  8344  001194  6E22               	movwf	i2___flmul@prod^0,c
  8345  001196  0E00               	movlw	0
  8346  001198  6E23               	movwf	(i2___flmul@prod+1)^0,c
  8347  00119A  0E00               	movlw	0
  8348  00119C  6E24               	movwf	(i2___flmul@prod+2)^0,c
  8349  00119E  0E00               	movlw	0
  8350  0011A0  6E25               	movwf	(i2___flmul@prod+3)^0,c
  8351  0011A2  0E00               	movlw	0
  8352  0011A4  6E1B               	movwf	i2___flmul@sign^0,c
  8353  0011A6  EFEA  F008         	goto	i2l4349
  8354  0011AA                     i2l971:
  8355  0011AA  C026  F021         	movff	i2___flmul@temp,i2___flmul@bexp
  8356  0011AE  0EFF               	movlw	255
  8357  0011B0  1622               	andwf	i2___flmul@prod^0,f,c
  8358  0011B2  0EFF               	movlw	255
  8359  0011B4  1623               	andwf	(i2___flmul@prod+1)^0,f,c
  8360  0011B6  0E7F               	movlw	127
  8361  0011B8  1624               	andwf	(i2___flmul@prod+2)^0,f,c
  8362  0011BA  0E00               	movlw	0
  8363  0011BC  1625               	andwf	(i2___flmul@prod+3)^0,f,c
  8364  0011BE  A021               	btfss	i2___flmul@bexp^0,0,c
  8365  0011C0  EFE4  F008         	goto	i2u519_41
  8366  0011C4  EFE6  F008         	goto	i2u519_40
  8367  0011C8                     i2u519_41:
  8368  0011C8  EFE7  F008         	goto	i2l4347
  8369  0011CC                     i2u519_40:
  8370  0011CC  8E24               	bsf	(i2___flmul@prod+2)^0,7,c
  8371  0011CE                     i2l4347:
  8372  0011CE  90D8               	bcf	status,0,c
  8373  0011D0  3021               	rrcf	i2___flmul@bexp^0,w,c
  8374  0011D2  6E25               	movwf	(i2___flmul@prod+3)^0,c
  8375  0011D4                     i2l4349:
  8376  0011D4  501B               	movf	i2___flmul@sign^0,w,c
  8377  0011D6  1225               	iorwf	(i2___flmul@prod+3)^0,f,c
  8378  0011D8  C022  F00F         	movff	i2___flmul@prod,?i2___flmul
  8379  0011DC  C023  F010         	movff	i2___flmul@prod+1,?i2___flmul+1
  8380  0011E0  C024  F011         	movff	i2___flmul@prod+2,?i2___flmul+2
  8381  0011E4  C025  F012         	movff	i2___flmul@prod+3,?i2___flmul+3
  8382  0011E8                     i2l958:
  8383  0011E8  0012               	return		;funcret
  8384  0011EA                     __end_ofi2___flmul:
  8385                           	callstack 0
  8386                           
  8387 ;; *************** function i2___flge *****************
  8388 ;; Defined at:
  8389 ;;		line 4 in file "C:\Program Files\Microchip\xc8\v2.36\pic\sources\c99\common\flge.c"
  8390 ;; Parameters:    Size  Location     Type
  8391 ;;  ff1             4   14[COMRAM] unsigned char 
  8392 ;;  ff2             4   18[COMRAM] unsigned char 
  8393 ;; Auto vars:     Size  Location     Type
  8394 ;;		None
  8395 ;; Return value:  Size  Location     Type
  8396 ;;		None               void
  8397 ;; Registers used:
  8398 ;;		wreg, status,2, status,0
  8399 ;; Tracked objects:
  8400 ;;		On entry : 0/0
  8401 ;;		On exit  : 0/0
  8402 ;;		Unchanged: 0/0
  8403 ;; Data sizes:     COMRAM   BANK0   BANK1   BANK2   BANK3   BANK4   BANK5   BANK6   BANK7
  8404 ;;      Params:         8       0       0       0       0       0       0       0       0
  8405 ;;      Locals:         0       0       0       0       0       0       0       0       0
  8406 ;;      Temps:          4       0       0       0       0       0       0       0       0
  8407 ;;      Totals:        12       0       0       0       0       0       0       0       0
  8408 ;;Total ram usage:       12 bytes
  8409 ;; Hardware stack levels used: 1
  8410 ;; This function calls:
  8411 ;;		Nothing
  8412 ;; This function is called by:
  8413 ;;		i2_desaceleracion
  8414 ;; This function uses a non-reentrant model
  8415 ;;
  8416                           
  8417                           	psect	text28
  8418  002D4C                     __ptext28:
  8419                           	callstack 0
  8420  002D4C                     i2___flge:
  8421                           	callstack 24
  8422  002D4C  0E00               	movlw	0
  8423  002D4E  140F               	andwf	i2___flge@ff1^0,w,c
  8424  002D50  6E17               	movwf	??i2___flge^0,c
  8425  002D52  0E00               	movlw	0
  8426  002D54  1410               	andwf	(i2___flge@ff1+1)^0,w,c
  8427  002D56  6E18               	movwf	(??i2___flge+1)^0,c
  8428  002D58  0E80               	movlw	128
  8429  002D5A  1411               	andwf	(i2___flge@ff1+2)^0,w,c
  8430  002D5C  6E19               	movwf	(??i2___flge+2)^0,c
  8431  002D5E  0E7F               	movlw	127
  8432  002D60  1412               	andwf	(i2___flge@ff1+3)^0,w,c
  8433  002D62  6E1A               	movwf	(??i2___flge+3)^0,c
  8434  002D64  5017               	movf	??i2___flge^0,w,c
  8435  002D66  1018               	iorwf	(??i2___flge+1)^0,w,c
  8436  002D68  1019               	iorwf	(??i2___flge+2)^0,w,c
  8437  002D6A  101A               	iorwf	(??i2___flge+3)^0,w,c
  8438  002D6C  A4D8               	btfss	status,2,c
  8439  002D6E  EFBB  F016         	goto	i2u466_41
  8440  002D72  EFBD  F016         	goto	i2u466_40
  8441  002D76                     i2u466_41:
  8442  002D76  EFC5  F016         	goto	i2l4019
  8443  002D7A                     i2u466_40:
  8444  002D7A  0E00               	movlw	0
  8445  002D7C  6E0F               	movwf	i2___flge@ff1^0,c
  8446  002D7E  0E00               	movlw	0
  8447  002D80  6E10               	movwf	(i2___flge@ff1+1)^0,c
  8448  002D82  0E00               	movlw	0
  8449  002D84  6E11               	movwf	(i2___flge@ff1+2)^0,c
  8450  002D86  0E00               	movlw	0
  8451  002D88  6E12               	movwf	(i2___flge@ff1+3)^0,c
  8452  002D8A                     i2l4019:
  8453  002D8A  0E00               	movlw	0
  8454  002D8C  1413               	andwf	i2___flge@ff2^0,w,c
  8455  002D8E  6E17               	movwf	??i2___flge^0,c
  8456  002D90  0E00               	movlw	0
  8457  002D92  1414               	andwf	(i2___flge@ff2+1)^0,w,c
  8458  002D94  6E18               	movwf	(??i2___flge+1)^0,c
  8459  002D96  0E80               	movlw	128
  8460  002D98  1415               	andwf	(i2___flge@ff2+2)^0,w,c
  8461  002D9A  6E19               	movwf	(??i2___flge+2)^0,c
  8462  002D9C  0E7F               	movlw	127
  8463  002D9E  1416               	andwf	(i2___flge@ff2+3)^0,w,c
  8464  002DA0  6E1A               	movwf	(??i2___flge+3)^0,c
  8465  002DA2  5017               	movf	??i2___flge^0,w,c
  8466  002DA4  1018               	iorwf	(??i2___flge+1)^0,w,c
  8467  002DA6  1019               	iorwf	(??i2___flge+2)^0,w,c
  8468  002DA8  101A               	iorwf	(??i2___flge+3)^0,w,c
  8469  002DAA  A4D8               	btfss	status,2,c
  8470  002DAC  EFDA  F016         	goto	i2u467_41
  8471  002DB0  EFDC  F016         	goto	i2u467_40
  8472  002DB4                     i2u467_41:
  8473  002DB4  EFE4  F016         	goto	i2l4023
  8474  002DB8                     i2u467_40:
  8475  002DB8  0E00               	movlw	0
  8476  002DBA  6E13               	movwf	i2___flge@ff2^0,c
  8477  002DBC  0E00               	movlw	0
  8478  002DBE  6E14               	movwf	(i2___flge@ff2+1)^0,c
  8479  002DC0  0E00               	movlw	0
  8480  002DC2  6E15               	movwf	(i2___flge@ff2+2)^0,c
  8481  002DC4  0E00               	movlw	0
  8482  002DC6  6E16               	movwf	(i2___flge@ff2+3)^0,c
  8483  002DC8                     i2l4023:
  8484  002DC8  AE12               	btfss	(i2___flge@ff1+3)^0,7,c
  8485  002DCA  EFE9  F016         	goto	i2u468_41
  8486  002DCE  EFEB  F016         	goto	i2u468_40
  8487  002DD2                     i2u468_41:
  8488  002DD2  EFF4  F016         	goto	i2l4027
  8489  002DD6                     i2u468_40:
  8490  002DD6  6C0F               	negf	i2___flge@ff1^0,c
  8491  002DD8  1E10               	comf	(i2___flge@ff1+1)^0,f,c
  8492  002DDA  B0D8               	btfsc	status,0,c
  8493  002DDC  2A10               	incf	(i2___flge@ff1+1)^0,f,c
  8494  002DDE  1E11               	comf	(i2___flge@ff1+2)^0,f,c
  8495  002DE0  B0D8               	btfsc	status,0,c
  8496  002DE2  2A11               	incf	(i2___flge@ff1+2)^0,f,c
  8497  002DE4  0E80               	movlw	128
  8498  002DE6  5612               	subfwb	(i2___flge@ff1+3)^0,f,c
  8499  002DE8                     i2l4027:
  8500  002DE8  AE16               	btfss	(i2___flge@ff2+3)^0,7,c
  8501  002DEA  EFF9  F016         	goto	i2u469_41
  8502  002DEE  EFFB  F016         	goto	i2u469_40
  8503  002DF2                     i2u469_41:
  8504  002DF2  EF04  F017         	goto	i2l605
  8505  002DF6                     i2u469_40:
  8506  002DF6  6C13               	negf	i2___flge@ff2^0,c
  8507  002DF8  1E14               	comf	(i2___flge@ff2+1)^0,f,c
  8508  002DFA  B0D8               	btfsc	status,0,c
  8509  002DFC  2A14               	incf	(i2___flge@ff2+1)^0,f,c
  8510  002DFE  1E15               	comf	(i2___flge@ff2+2)^0,f,c
  8511  002E00  B0D8               	btfsc	status,0,c
  8512  002E02  2A15               	incf	(i2___flge@ff2+2)^0,f,c
  8513  002E04  0E80               	movlw	128
  8514  002E06  5616               	subfwb	(i2___flge@ff2+3)^0,f,c
  8515  002E08                     i2l605:
  8516  002E08  0E00               	movlw	0
  8517  002E0A  1A0F               	xorwf	i2___flge@ff1^0,f,c
  8518  002E0C  0E00               	movlw	0
  8519  002E0E  1A10               	xorwf	(i2___flge@ff1+1)^0,f,c
  8520  002E10  0E00               	movlw	0
  8521  002E12  1A11               	xorwf	(i2___flge@ff1+2)^0,f,c
  8522  002E14  0E80               	movlw	128
  8523  002E16  1A12               	xorwf	(i2___flge@ff1+3)^0,f,c
  8524  002E18  0E00               	movlw	0
  8525  002E1A  1A13               	xorwf	i2___flge@ff2^0,f,c
  8526  002E1C  0E00               	movlw	0
  8527  002E1E  1A14               	xorwf	(i2___flge@ff2+1)^0,f,c
  8528  002E20  0E00               	movlw	0
  8529  002E22  1A15               	xorwf	(i2___flge@ff2+2)^0,f,c
  8530  002E24  0E80               	movlw	128
  8531  002E26  1A16               	xorwf	(i2___flge@ff2+3)^0,f,c
  8532  002E28  5013               	movf	i2___flge@ff2^0,w,c
  8533  002E2A  5C0F               	subwf	i2___flge@ff1^0,w,c
  8534  002E2C  5014               	movf	(i2___flge@ff2+1)^0,w,c
  8535  002E2E  5810               	subwfb	(i2___flge@ff1+1)^0,w,c
  8536  002E30  5015               	movf	(i2___flge@ff2+2)^0,w,c
  8537  002E32  5811               	subwfb	(i2___flge@ff1+2)^0,w,c
  8538  002E34  5016               	movf	(i2___flge@ff2+3)^0,w,c
  8539  002E36  5812               	subwfb	(i2___flge@ff1+3)^0,w,c
  8540  002E38  B0D8               	btfsc	status,0,c
  8541  002E3A  EF21  F017         	goto	i2u470_41
  8542  002E3E  EF23  F017         	goto	i2u470_40
  8543  002E42                     i2u470_41:
  8544  002E42  EF26  F017         	goto	i2l4033
  8545  002E46                     i2u470_40:
  8546  002E46  90D8               	bcf	status,0,c
  8547  002E48  EF27  F017         	goto	i2l610
  8548  002E4C                     i2l4033:
  8549  002E4C  80D8               	bsf	status,0,c
  8550  002E4E                     i2l610:
  8551  002E4E  0012               	return		;funcret
  8552  002E50                     __end_ofi2___flge:
  8553                           	callstack 0
  8554                           
  8555 ;; *************** function i2___fldiv *****************
  8556 ;; Defined at:
  8557 ;;		line 11 in file "C:\Program Files\Microchip\xc8\v2.36\pic\sources\c99\common\sprcdiv.c"
  8558 ;; Parameters:    Size  Location     Type
  8559 ;;  b               4   39[COMRAM] unsigned char 
  8560 ;;  a               4   43[COMRAM] unsigned char 
  8561 ;; Auto vars:     Size  Location     Type
  8562 ;;  grs             4   58[COMRAM] unsigned long 
  8563 ;;  rem             4   51[COMRAM] unsigned long 
  8564 ;;  new_exp         2   56[COMRAM] short 
  8565 ;;  aexp            1   63[COMRAM] unsigned char 
  8566 ;;  bexp            1   62[COMRAM] unsigned char 
  8567 ;;  sign            1   55[COMRAM] unsigned char 
  8568 ;; Return value:  Size  Location     Type
  8569 ;;                  4   39[COMRAM] unsigned char 
  8570 ;; Registers used:
  8571 ;;		wreg, status,2, status,0
  8572 ;; Tracked objects:
  8573 ;;		On entry : 0/0
  8574 ;;		On exit  : 0/0
  8575 ;;		Unchanged: 0/0
  8576 ;; Data sizes:     COMRAM   BANK0   BANK1   BANK2   BANK3   BANK4   BANK5   BANK6   BANK7
  8577 ;;      Params:         8       0       0       0       0       0       0       0       0
  8578 ;;      Locals:        13       0       0       0       0       0       0       0       0
  8579 ;;      Temps:          4       0       0       0       0       0       0       0       0
  8580 ;;      Totals:        25       0       0       0       0       0       0       0       0
  8581 ;;Total ram usage:       25 bytes
  8582 ;; Hardware stack levels used: 1
  8583 ;; This function calls:
  8584 ;;		Nothing
  8585 ;; This function is called by:
  8586 ;;		i2_desaceleracion
  8587 ;; This function uses a non-reentrant model
  8588 ;;
  8589                           
  8590                           	psect	text29
  8591  0019A8                     __ptext29:
  8592                           	callstack 0
  8593  0019A8                     i2___fldiv:
  8594                           	callstack 24
  8595  0019A8  502B               	movf	(i2___fldiv@b+3)^0,w,c
  8596  0019AA  0B80               	andlw	128
  8597  0019AC  6E38               	movwf	i2___fldiv@sign^0,c
  8598  0019AE  502B               	movf	(i2___fldiv@b+3)^0,w,c
  8599  0019B0  242B               	addwf	(i2___fldiv@b+3)^0,w,c
  8600  0019B2  6E3F               	movwf	i2___fldiv@bexp^0,c
  8601  0019B4  AE2A               	btfss	(i2___fldiv@b+2)^0,7,c
  8602  0019B6  EFDF  F00C         	goto	i2u478_41
  8603  0019BA  EFE1  F00C         	goto	i2u478_40
  8604  0019BE                     i2u478_41:
  8605  0019BE  EFE2  F00C         	goto	i2l4093
  8606  0019C2                     i2u478_40:
  8607  0019C2  803F               	bsf	i2___fldiv@bexp^0,0,c
  8608  0019C4                     i2l4093:
  8609  0019C4  503F               	movf	i2___fldiv@bexp^0,w,c
  8610  0019C6  B4D8               	btfsc	status,2,c
  8611  0019C8  EFE8  F00C         	goto	i2u479_41
  8612  0019CC  EFEA  F00C         	goto	i2u479_40
  8613  0019D0                     i2u479_41:
  8614  0019D0  EFFF  F00C         	goto	i2l4103
  8615  0019D4                     i2u479_40:
  8616  0019D4  283F               	incf	i2___fldiv@bexp^0,w,c
  8617  0019D6  A4D8               	btfss	status,2,c
  8618  0019D8  EFF0  F00C         	goto	i2u480_41
  8619  0019DC  EFF2  F00C         	goto	i2u480_40
  8620  0019E0                     i2u480_41:
  8621  0019E0  EFFA  F00C         	goto	i2l4099
  8622  0019E4                     i2u480_40:
  8623  0019E4  0E00               	movlw	0
  8624  0019E6  6E28               	movwf	i2___fldiv@b^0,c
  8625  0019E8  0E00               	movlw	0
  8626  0019EA  6E29               	movwf	(i2___fldiv@b+1)^0,c
  8627  0019EC  0E00               	movlw	0
  8628  0019EE  6E2A               	movwf	(i2___fldiv@b+2)^0,c
  8629  0019F0  0E00               	movlw	0
  8630  0019F2  6E2B               	movwf	(i2___fldiv@b+3)^0,c
  8631  0019F4                     i2l4099:
  8632  0019F4  8E2A               	bsf	(i2___fldiv@b+2)^0,7,c
  8633  0019F6  0E00               	movlw	0
  8634  0019F8  6E2B               	movwf	(i2___fldiv@b+3)^0,c
  8635  0019FA  EF07  F00D         	goto	i2l4105
  8636  0019FE                     i2l4103:
  8637  0019FE  0E00               	movlw	0
  8638  001A00  6E28               	movwf	i2___fldiv@b^0,c
  8639  001A02  0E00               	movlw	0
  8640  001A04  6E29               	movwf	(i2___fldiv@b+1)^0,c
  8641  001A06  0E00               	movlw	0
  8642  001A08  6E2A               	movwf	(i2___fldiv@b+2)^0,c
  8643  001A0A  0E00               	movlw	0
  8644  001A0C  6E2B               	movwf	(i2___fldiv@b+3)^0,c
  8645  001A0E                     i2l4105:
  8646  001A0E  502F               	movf	(i2___fldiv@a+3)^0,w,c
  8647  001A10  0B80               	andlw	128
  8648  001A12  1A38               	xorwf	i2___fldiv@sign^0,f,c
  8649  001A14  502F               	movf	(i2___fldiv@a+3)^0,w,c
  8650  001A16  242F               	addwf	(i2___fldiv@a+3)^0,w,c
  8651  001A18  6E40               	movwf	i2___fldiv@aexp^0,c
  8652  001A1A  AE2E               	btfss	(i2___fldiv@a+2)^0,7,c
  8653  001A1C  EF12  F00D         	goto	i2u481_41
  8654  001A20  EF14  F00D         	goto	i2u481_40
  8655  001A24                     i2u481_41:
  8656  001A24  EF15  F00D         	goto	i2l4113
  8657  001A28                     i2u481_40:
  8658  001A28  8040               	bsf	i2___fldiv@aexp^0,0,c
  8659  001A2A                     i2l4113:
  8660  001A2A  5040               	movf	i2___fldiv@aexp^0,w,c
  8661  001A2C  B4D8               	btfsc	status,2,c
  8662  001A2E  EF1B  F00D         	goto	i2u482_41
  8663  001A32  EF1D  F00D         	goto	i2u482_40
  8664  001A36                     i2u482_41:
  8665  001A36  EF32  F00D         	goto	i2l4123
  8666  001A3A                     i2u482_40:
  8667  001A3A  2840               	incf	i2___fldiv@aexp^0,w,c
  8668  001A3C  A4D8               	btfss	status,2,c
  8669  001A3E  EF23  F00D         	goto	i2u483_41
  8670  001A42  EF25  F00D         	goto	i2u483_40
  8671  001A46                     i2u483_41:
  8672  001A46  EF2D  F00D         	goto	i2l4119
  8673  001A4A                     i2u483_40:
  8674  001A4A  0E00               	movlw	0
  8675  001A4C  6E2C               	movwf	i2___fldiv@a^0,c
  8676  001A4E  0E00               	movlw	0
  8677  001A50  6E2D               	movwf	(i2___fldiv@a+1)^0,c
  8678  001A52  0E00               	movlw	0
  8679  001A54  6E2E               	movwf	(i2___fldiv@a+2)^0,c
  8680  001A56  0E00               	movlw	0
  8681  001A58  6E2F               	movwf	(i2___fldiv@a+3)^0,c
  8682  001A5A                     i2l4119:
  8683  001A5A  8E2E               	bsf	(i2___fldiv@a+2)^0,7,c
  8684  001A5C  0E00               	movlw	0
  8685  001A5E  6E2F               	movwf	(i2___fldiv@a+3)^0,c
  8686  001A60  EF3A  F00D         	goto	i2l4125
  8687  001A64                     i2l4123:
  8688  001A64  0E00               	movlw	0
  8689  001A66  6E2C               	movwf	i2___fldiv@a^0,c
  8690  001A68  0E00               	movlw	0
  8691  001A6A  6E2D               	movwf	(i2___fldiv@a+1)^0,c
  8692  001A6C  0E00               	movlw	0
  8693  001A6E  6E2E               	movwf	(i2___fldiv@a+2)^0,c
  8694  001A70  0E00               	movlw	0
  8695  001A72  6E2F               	movwf	(i2___fldiv@a+3)^0,c
  8696  001A74                     i2l4125:
  8697  001A74  502C               	movf	i2___fldiv@a^0,w,c
  8698  001A76  102D               	iorwf	(i2___fldiv@a+1)^0,w,c
  8699  001A78  102E               	iorwf	(i2___fldiv@a+2)^0,w,c
  8700  001A7A  102F               	iorwf	(i2___fldiv@a+3)^0,w,c
  8701  001A7C  A4D8               	btfss	status,2,c
  8702  001A7E  EF43  F00D         	goto	i2u484_41
  8703  001A82  EF45  F00D         	goto	i2u484_40
  8704  001A86                     i2u484_41:
  8705  001A86  EF5D  F00D         	goto	i2l4137
  8706  001A8A                     i2u484_40:
  8707  001A8A  0E00               	movlw	0
  8708  001A8C  6E28               	movwf	i2___fldiv@b^0,c
  8709  001A8E  0E00               	movlw	0
  8710  001A90  6E29               	movwf	(i2___fldiv@b+1)^0,c
  8711  001A92  0E00               	movlw	0
  8712  001A94  6E2A               	movwf	(i2___fldiv@b+2)^0,c
  8713  001A96  0E00               	movlw	0
  8714  001A98  6E2B               	movwf	(i2___fldiv@b+3)^0,c
  8715  001A9A  0E80               	movlw	128
  8716  001A9C  122A               	iorwf	(i2___fldiv@b+2)^0,f,c
  8717  001A9E  0E7F               	movlw	127
  8718  001AA0  122B               	iorwf	(i2___fldiv@b+3)^0,f,c
  8719  001AA2                     i2l4131:
  8720  001AA2  5038               	movf	i2___fldiv@sign^0,w,c
  8721  001AA4  122B               	iorwf	(i2___fldiv@b+3)^0,f,c
  8722  001AA6  C028  F028         	movff	i2___fldiv@b,?i2___fldiv
  8723  001AAA  C029  F029         	movff	i2___fldiv@b+1,?i2___fldiv+1
  8724  001AAE  C02A  F02A         	movff	i2___fldiv@b+2,?i2___fldiv+2
  8725  001AB2  C02B  F02B         	movff	i2___fldiv@b+3,?i2___fldiv+3
  8726  001AB6  EFA0  F00E         	goto	i2l922
  8727  001ABA                     i2l4137:
  8728  001ABA  503F               	movf	i2___fldiv@bexp^0,w,c
  8729  001ABC  A4D8               	btfss	status,2,c
  8730  001ABE  EF63  F00D         	goto	i2u485_41
  8731  001AC2  EF65  F00D         	goto	i2u485_40
  8732  001AC6                     i2u485_41:
  8733  001AC6  EF6F  F00D         	goto	i2l4145
  8734  001ACA                     i2u485_40:
  8735  001ACA  0E00               	movlw	0
  8736  001ACC  6E28               	movwf	?i2___fldiv^0,c
  8737  001ACE  0E00               	movlw	0
  8738  001AD0  6E29               	movwf	(?i2___fldiv+1)^0,c
  8739  001AD2  0E00               	movlw	0
  8740  001AD4  6E2A               	movwf	(?i2___fldiv+2)^0,c
  8741  001AD6  0E00               	movlw	0
  8742  001AD8  6E2B               	movwf	(?i2___fldiv+3)^0,c
  8743  001ADA  EFA0  F00E         	goto	i2l922
  8744  001ADE                     i2l4145:
  8745  001ADE  5040               	movf	i2___fldiv@aexp^0,w,c
  8746  001AE0  C03F  F030         	movff	i2___fldiv@bexp,??i2___fldiv
  8747  001AE4  6A31               	clrf	(??i2___fldiv+1)^0,c
  8748  001AE6  5E30               	subwf	??i2___fldiv^0,f,c
  8749  001AE8  0E00               	movlw	0
  8750  001AEA  5A31               	subwfb	(??i2___fldiv+1)^0,f,c
  8751  001AEC  0E7F               	movlw	127
  8752  001AEE  2430               	addwf	??i2___fldiv^0,w,c
  8753  001AF0  6E39               	movwf	i2___fldiv@new_exp^0,c
  8754  001AF2  0E00               	movlw	0
  8755  001AF4  2031               	addwfc	(??i2___fldiv+1)^0,w,c
  8756  001AF6  6E3A               	movwf	(i2___fldiv@new_exp+1)^0,c
  8757  001AF8  C028  F034         	movff	i2___fldiv@b,i2___fldiv@rem
  8758  001AFC  C029  F035         	movff	i2___fldiv@b+1,i2___fldiv@rem+1
  8759  001B00  C02A  F036         	movff	i2___fldiv@b+2,i2___fldiv@rem+2
  8760  001B04  C02B  F037         	movff	i2___fldiv@b+3,i2___fldiv@rem+3
  8761  001B08  0E00               	movlw	0
  8762  001B0A  6E28               	movwf	i2___fldiv@b^0,c
  8763  001B0C  0E00               	movlw	0
  8764  001B0E  6E29               	movwf	(i2___fldiv@b+1)^0,c
  8765  001B10  0E00               	movlw	0
  8766  001B12  6E2A               	movwf	(i2___fldiv@b+2)^0,c
  8767  001B14  0E00               	movlw	0
  8768  001B16  6E2B               	movwf	(i2___fldiv@b+3)^0,c
  8769  001B18  0E00               	movlw	0
  8770  001B1A  6E3B               	movwf	i2___fldiv@grs^0,c
  8771  001B1C  0E00               	movlw	0
  8772  001B1E  6E3C               	movwf	(i2___fldiv@grs+1)^0,c
  8773  001B20  0E00               	movlw	0
  8774  001B22  6E3D               	movwf	(i2___fldiv@grs+2)^0,c
  8775  001B24  0E00               	movlw	0
  8776  001B26  6E3E               	movwf	(i2___fldiv@grs+3)^0,c
  8777  001B28  0E00               	movlw	0
  8778  001B2A  6E40               	movwf	i2___fldiv@aexp^0,c
  8779  001B2C  EFD0  F00D         	goto	i2l924
  8780  001B30                     i2l4155:
  8781  001B30  5040               	movf	i2___fldiv@aexp^0,w,c
  8782  001B32  B4D8               	btfsc	status,2,c
  8783  001B34  EF9E  F00D         	goto	i2u486_41
  8784  001B38  EFA0  F00D         	goto	i2u486_40
  8785  001B3C                     i2u486_41:
  8786  001B3C  EFB7  F00D         	goto	i2l4163
  8787  001B40                     i2u486_40:
  8788  001B40  90D8               	bcf	status,0,c
  8789  001B42  3634               	rlcf	i2___fldiv@rem^0,f,c
  8790  001B44  3635               	rlcf	(i2___fldiv@rem+1)^0,f,c
  8791  001B46  3636               	rlcf	(i2___fldiv@rem+2)^0,f,c
  8792  001B48  3637               	rlcf	(i2___fldiv@rem+3)^0,f,c
  8793  001B4A  90D8               	bcf	status,0,c
  8794  001B4C  3628               	rlcf	i2___fldiv@b^0,f,c
  8795  001B4E  3629               	rlcf	(i2___fldiv@b+1)^0,f,c
  8796  001B50  362A               	rlcf	(i2___fldiv@b+2)^0,f,c
  8797  001B52  362B               	rlcf	(i2___fldiv@b+3)^0,f,c
  8798  001B54  AE3E               	btfss	(i2___fldiv@grs+3)^0,7,c
  8799  001B56  EFAF  F00D         	goto	i2u487_41
  8800  001B5A  EFB1  F00D         	goto	i2u487_40
  8801  001B5E                     i2u487_41:
  8802  001B5E  EFB2  F00D         	goto	i2l927
  8803  001B62                     i2u487_40:
  8804  001B62  8028               	bsf	i2___fldiv@b^0,0,c
  8805  001B64                     i2l927:
  8806  001B64  90D8               	bcf	status,0,c
  8807  001B66  363B               	rlcf	i2___fldiv@grs^0,f,c
  8808  001B68  363C               	rlcf	(i2___fldiv@grs+1)^0,f,c
  8809  001B6A  363D               	rlcf	(i2___fldiv@grs+2)^0,f,c
  8810  001B6C  363E               	rlcf	(i2___fldiv@grs+3)^0,f,c
  8811  001B6E                     i2l4163:
  8812  001B6E  502C               	movf	i2___fldiv@a^0,w,c
  8813  001B70  5C34               	subwf	i2___fldiv@rem^0,w,c
  8814  001B72  502D               	movf	(i2___fldiv@a+1)^0,w,c
  8815  001B74  5835               	subwfb	(i2___fldiv@rem+1)^0,w,c
  8816  001B76  502E               	movf	(i2___fldiv@a+2)^0,w,c
  8817  001B78  5836               	subwfb	(i2___fldiv@rem+2)^0,w,c
  8818  001B7A  502F               	movf	(i2___fldiv@a+3)^0,w,c
  8819  001B7C  5837               	subwfb	(i2___fldiv@rem+3)^0,w,c
  8820  001B7E  A0D8               	btfss	status,0,c
  8821  001B80  EFC4  F00D         	goto	i2u488_41
  8822  001B84  EFC6  F00D         	goto	i2u488_40
  8823  001B88                     i2u488_41:
  8824  001B88  EFCF  F00D         	goto	i2l4169
  8825  001B8C                     i2u488_40:
  8826  001B8C  8C3E               	bsf	(i2___fldiv@grs+3)^0,6,c
  8827  001B8E  502C               	movf	i2___fldiv@a^0,w,c
  8828  001B90  5E34               	subwf	i2___fldiv@rem^0,f,c
  8829  001B92  502D               	movf	(i2___fldiv@a+1)^0,w,c
  8830  001B94  5A35               	subwfb	(i2___fldiv@rem+1)^0,f,c
  8831  001B96  502E               	movf	(i2___fldiv@a+2)^0,w,c
  8832  001B98  5A36               	subwfb	(i2___fldiv@rem+2)^0,f,c
  8833  001B9A  502F               	movf	(i2___fldiv@a+3)^0,w,c
  8834  001B9C  5A37               	subwfb	(i2___fldiv@rem+3)^0,f,c
  8835  001B9E                     i2l4169:
  8836  001B9E  2A40               	incf	i2___fldiv@aexp^0,f,c
  8837  001BA0                     i2l924:
  8838  001BA0  0E19               	movlw	25
  8839  001BA2  6440               	cpfsgt	i2___fldiv@aexp^0,c
  8840  001BA4  EFD6  F00D         	goto	i2u489_41
  8841  001BA8  EFD8  F00D         	goto	i2u489_40
  8842  001BAC                     i2u489_41:
  8843  001BAC  EF98  F00D         	goto	i2l4155
  8844  001BB0                     i2u489_40:
  8845  001BB0  5034               	movf	i2___fldiv@rem^0,w,c
  8846  001BB2  1035               	iorwf	(i2___fldiv@rem+1)^0,w,c
  8847  001BB4  1036               	iorwf	(i2___fldiv@rem+2)^0,w,c
  8848  001BB6  1037               	iorwf	(i2___fldiv@rem+3)^0,w,c
  8849  001BB8  B4D8               	btfsc	status,2,c
  8850  001BBA  EFE1  F00D         	goto	i2u490_41
  8851  001BBE  EFE3  F00D         	goto	i2u490_40
  8852  001BC2                     i2u490_41:
  8853  001BC2  EFFB  F00D         	goto	i2l4181
  8854  001BC6                     i2u490_40:
  8855  001BC6  803B               	bsf	i2___fldiv@grs^0,0,c
  8856  001BC8  EFFB  F00D         	goto	i2l4181
  8857  001BCC                     i2l4175:
  8858  001BCC  90D8               	bcf	status,0,c
  8859  001BCE  3628               	rlcf	i2___fldiv@b^0,f,c
  8860  001BD0  3629               	rlcf	(i2___fldiv@b+1)^0,f,c
  8861  001BD2  362A               	rlcf	(i2___fldiv@b+2)^0,f,c
  8862  001BD4  362B               	rlcf	(i2___fldiv@b+3)^0,f,c
  8863  001BD6  AE3E               	btfss	(i2___fldiv@grs+3)^0,7,c
  8864  001BD8  EFF0  F00D         	goto	i2u491_41
  8865  001BDC  EFF2  F00D         	goto	i2u491_40
  8866  001BE0                     i2u491_41:
  8867  001BE0  EFF3  F00D         	goto	i2l933
  8868  001BE4                     i2u491_40:
  8869  001BE4  8028               	bsf	i2___fldiv@b^0,0,c
  8870  001BE6                     i2l933:
  8871  001BE6  90D8               	bcf	status,0,c
  8872  001BE8  363B               	rlcf	i2___fldiv@grs^0,f,c
  8873  001BEA  363C               	rlcf	(i2___fldiv@grs+1)^0,f,c
  8874  001BEC  363D               	rlcf	(i2___fldiv@grs+2)^0,f,c
  8875  001BEE  363E               	rlcf	(i2___fldiv@grs+3)^0,f,c
  8876  001BF0  0639               	decf	i2___fldiv@new_exp^0,f,c
  8877  001BF2  A0D8               	btfss	status,0,c
  8878  001BF4  063A               	decf	(i2___fldiv@new_exp+1)^0,f,c
  8879  001BF6                     i2l4181:
  8880  001BF6  AE2A               	btfss	(i2___fldiv@b+2)^0,7,c
  8881  001BF8  EF00  F00E         	goto	i2u492_41
  8882  001BFC  EF02  F00E         	goto	i2u492_40
  8883  001C00                     i2u492_41:
  8884  001C00  EFE6  F00D         	goto	i2l4175
  8885  001C04                     i2u492_40:
  8886  001C04  0E00               	movlw	0
  8887  001C06  6E40               	movwf	i2___fldiv@aexp^0,c
  8888  001C08  AE3E               	btfss	(i2___fldiv@grs+3)^0,7,c
  8889  001C0A  EF09  F00E         	goto	i2u493_41
  8890  001C0E  EF0B  F00E         	goto	i2u493_40
  8891  001C12                     i2u493_41:
  8892  001C12  EF2F  F00E         	goto	i2l935
  8893  001C16                     i2u493_40:
  8894  001C16  0EFF               	movlw	255
  8895  001C18  143B               	andwf	i2___fldiv@grs^0,w,c
  8896  001C1A  6E30               	movwf	??i2___fldiv^0,c
  8897  001C1C  0EFF               	movlw	255
  8898  001C1E  143C               	andwf	(i2___fldiv@grs+1)^0,w,c
  8899  001C20  6E31               	movwf	(??i2___fldiv+1)^0,c
  8900  001C22  0EFF               	movlw	255
  8901  001C24  143D               	andwf	(i2___fldiv@grs+2)^0,w,c
  8902  001C26  6E32               	movwf	(??i2___fldiv+2)^0,c
  8903  001C28  0E7F               	movlw	127
  8904  001C2A  143E               	andwf	(i2___fldiv@grs+3)^0,w,c
  8905  001C2C  6E33               	movwf	(??i2___fldiv+3)^0,c
  8906  001C2E  5030               	movf	??i2___fldiv^0,w,c
  8907  001C30  1031               	iorwf	(??i2___fldiv+1)^0,w,c
  8908  001C32  1032               	iorwf	(??i2___fldiv+2)^0,w,c
  8909  001C34  1033               	iorwf	(??i2___fldiv+3)^0,w,c
  8910  001C36  B4D8               	btfsc	status,2,c
  8911  001C38  EF20  F00E         	goto	i2u494_41
  8912  001C3C  EF22  F00E         	goto	i2u494_40
  8913  001C40                     i2u494_41:
  8914  001C40  EF26  F00E         	goto	i2l936
  8915  001C44                     i2u494_40:
  8916  001C44                     i2l4189:
  8917  001C44  0E01               	movlw	1
  8918  001C46  6E40               	movwf	i2___fldiv@aexp^0,c
  8919  001C48  EF2F  F00E         	goto	i2l935
  8920  001C4C                     i2l936:
  8921  001C4C  A028               	btfss	i2___fldiv@b^0,0,c
  8922  001C4E  EF2B  F00E         	goto	i2u495_41
  8923  001C52  EF2D  F00E         	goto	i2u495_40
  8924  001C56                     i2u495_41:
  8925  001C56  EF2F  F00E         	goto	i2l935
  8926  001C5A                     i2u495_40:
  8927  001C5A  EF22  F00E         	goto	i2l4189
  8928  001C5E                     i2l935:
  8929  001C5E  5040               	movf	i2___fldiv@aexp^0,w,c
  8930  001C60  B4D8               	btfsc	status,2,c
  8931  001C62  EF35  F00E         	goto	i2u496_41
  8932  001C66  EF37  F00E         	goto	i2u496_40
  8933  001C6A                     i2u496_41:
  8934  001C6A  EF5B  F00E         	goto	i2l4201
  8935  001C6E                     i2u496_40:
  8936  001C6E  0E01               	movlw	1
  8937  001C70  2628               	addwf	i2___fldiv@b^0,f,c
  8938  001C72  0E00               	movlw	0
  8939  001C74  2229               	addwfc	(i2___fldiv@b+1)^0,f,c
  8940  001C76  222A               	addwfc	(i2___fldiv@b+2)^0,f,c
  8941  001C78  222B               	addwfc	(i2___fldiv@b+3)^0,f,c
  8942  001C7A  A02B               	btfss	(i2___fldiv@b+3)^0,0,c
  8943  001C7C  EF42  F00E         	goto	i2u497_41
  8944  001C80  EF44  F00E         	goto	i2u497_40
  8945  001C84                     i2u497_41:
  8946  001C84  EF5B  F00E         	goto	i2l4201
  8947  001C88                     i2u497_40:
  8948  001C88  C028  F030         	movff	i2___fldiv@b,??i2___fldiv
  8949  001C8C  C029  F031         	movff	i2___fldiv@b+1,??i2___fldiv+1
  8950  001C90  C02A  F032         	movff	i2___fldiv@b+2,??i2___fldiv+2
  8951  001C94  C02B  F033         	movff	i2___fldiv@b+3,??i2___fldiv+3
  8952  001C98  3433               	rlcf	(??i2___fldiv+3)^0,w,c
  8953  001C9A  3233               	rrcf	(??i2___fldiv+3)^0,f,c
  8954  001C9C  3232               	rrcf	(??i2___fldiv+2)^0,f,c
  8955  001C9E  3231               	rrcf	(??i2___fldiv+1)^0,f,c
  8956  001CA0  3230               	rrcf	??i2___fldiv^0,f,c
  8957  001CA2  C030  F028         	movff	??i2___fldiv,i2___fldiv@b
  8958  001CA6  C031  F029         	movff	??i2___fldiv+1,i2___fldiv@b+1
  8959  001CAA  C032  F02A         	movff	??i2___fldiv+2,i2___fldiv@b+2
  8960  001CAE  C033  F02B         	movff	??i2___fldiv+3,i2___fldiv@b+3
  8961  001CB2  4A39               	infsnz	i2___fldiv@new_exp^0,f,c
  8962  001CB4  2A3A               	incf	(i2___fldiv@new_exp+1)^0,f,c
  8963  001CB6                     i2l4201:
  8964  001CB6  BE3A               	btfsc	(i2___fldiv@new_exp+1)^0,7,c
  8965  001CB8  EF66  F00E         	goto	i2u498_41
  8966  001CBC  503A               	movf	(i2___fldiv@new_exp+1)^0,w,c
  8967  001CBE  E108               	bnz	i2u498_40
  8968  001CC0  2839               	incf	i2___fldiv@new_exp^0,w,c
  8969  001CC2  A0D8               	btfss	status,0,c
  8970  001CC4  EF66  F00E         	goto	i2u498_41
  8971  001CC8  EF68  F00E         	goto	i2u498_40
  8972  001CCC                     i2u498_41:
  8973  001CCC  EF73  F00E         	goto	i2l4205
  8974  001CD0                     i2u498_40:
  8975  001CD0  0E00               	movlw	0
  8976  001CD2  6E3A               	movwf	(i2___fldiv@new_exp+1)^0,c
  8977  001CD4  6839               	setf	i2___fldiv@new_exp^0,c
  8978  001CD6  0E00               	movlw	0
  8979  001CD8  6E28               	movwf	i2___fldiv@b^0,c
  8980  001CDA  0E00               	movlw	0
  8981  001CDC  6E29               	movwf	(i2___fldiv@b+1)^0,c
  8982  001CDE  0E00               	movlw	0
  8983  001CE0  6E2A               	movwf	(i2___fldiv@b+2)^0,c
  8984  001CE2  0E00               	movlw	0
  8985  001CE4  6E2B               	movwf	(i2___fldiv@b+3)^0,c
  8986  001CE6                     i2l4205:
  8987  001CE6  BE3A               	btfsc	(i2___fldiv@new_exp+1)^0,7,c
  8988  001CE8  EF80  F00E         	goto	i2u499_40
  8989  001CEC  503A               	movf	(i2___fldiv@new_exp+1)^0,w,c
  8990  001CEE  E106               	bnz	i2u499_41
  8991  001CF0  0439               	decf	i2___fldiv@new_exp^0,w,c
  8992  001CF2  B0D8               	btfsc	status,0,c
  8993  001CF4  EF7E  F00E         	goto	i2u499_41
  8994  001CF8  EF80  F00E         	goto	i2u499_40
  8995  001CFC                     i2u499_41:
  8996  001CFC  EF8E  F00E         	goto	i2l4209
  8997  001D00                     i2u499_40:
  8998  001D00  0E00               	movlw	0
  8999  001D02  6E3A               	movwf	(i2___fldiv@new_exp+1)^0,c
  9000  001D04  0E00               	movlw	0
  9001  001D06  6E39               	movwf	i2___fldiv@new_exp^0,c
  9002  001D08  0E00               	movlw	0
  9003  001D0A  6E28               	movwf	i2___fldiv@b^0,c
  9004  001D0C  0E00               	movlw	0
  9005  001D0E  6E29               	movwf	(i2___fldiv@b+1)^0,c
  9006  001D10  0E00               	movlw	0
  9007  001D12  6E2A               	movwf	(i2___fldiv@b+2)^0,c
  9008  001D14  0E00               	movlw	0
  9009  001D16  6E2B               	movwf	(i2___fldiv@b+3)^0,c
  9010  001D18  0E00               	movlw	0
  9011  001D1A  6E38               	movwf	i2___fldiv@sign^0,c
  9012  001D1C                     i2l4209:
  9013  001D1C  C039  F03F         	movff	i2___fldiv@new_exp,i2___fldiv@bexp
  9014  001D20  A03F               	btfss	i2___fldiv@bexp^0,0,c
  9015  001D22  EF95  F00E         	goto	i2u500_41
  9016  001D26  EF97  F00E         	goto	i2u500_40
  9017  001D2A                     i2u500_41:
  9018  001D2A  EF9A  F00E         	goto	i2l4215
  9019  001D2E                     i2u500_40:
  9020  001D2E  8E2A               	bsf	(i2___fldiv@b+2)^0,7,c
  9021  001D30  EF9B  F00E         	goto	i2l4217
  9022  001D34                     i2l4215:
  9023  001D34  9E2A               	bcf	(i2___fldiv@b+2)^0,7,c
  9024  001D36                     i2l4217:
  9025  001D36  90D8               	bcf	status,0,c
  9026  001D38  303F               	rrcf	i2___fldiv@bexp^0,w,c
  9027  001D3A  6E2B               	movwf	(i2___fldiv@b+3)^0,c
  9028  001D3C  EF51  F00D         	goto	i2l4131
  9029  001D40                     i2l922:
  9030  001D40  0012               	return		;funcret
  9031  001D42                     __end_ofi2___fldiv:
  9032                           	callstack 0
  9033                           
  9034 ;; *************** function i2_Transmitir *****************
  9035 ;; Defined at:
  9036 ;;		line 162 in file "Lab6.c"
  9037 ;; Parameters:    Size  Location     Type
  9038 ;;  dato            1    wreg     unsigned char 
  9039 ;; Auto vars:     Size  Location     Type
  9040 ;;  dato            1    0[COMRAM] unsigned char 
  9041 ;; Return value:  Size  Location     Type
  9042 ;;                  1    wreg      void 
  9043 ;; Registers used:
  9044 ;;		wreg
  9045 ;; Tracked objects:
  9046 ;;		On entry : 0/0
  9047 ;;		On exit  : 0/0
  9048 ;;		Unchanged: 0/0
  9049 ;; Data sizes:     COMRAM   BANK0   BANK1   BANK2   BANK3   BANK4   BANK5   BANK6   BANK7
  9050 ;;      Params:         0       0       0       0       0       0       0       0       0
  9051 ;;      Locals:         1       0       0       0       0       0       0       0       0
  9052 ;;      Temps:          0       0       0       0       0       0       0       0       0
  9053 ;;      Totals:         1       0       0       0       0       0       0       0       0
  9054 ;;Total ram usage:        1 bytes
  9055 ;; Hardware stack levels used: 1
  9056 ;; This function calls:
  9057 ;;		Nothing
  9058 ;; This function is called by:
  9059 ;;		_ISR
  9060 ;;		i2_desaceleracion
  9061 ;; This function uses a non-reentrant model
  9062 ;;
  9063                           
  9064                           	psect	text30
  9065  0032F8                     __ptext30:
  9066                           	callstack 0
  9067  0032F8                     i2_Transmitir:
  9068                           	callstack 24
  9069                           
  9070                           ;incstack = 0
  9071                           ;i2Transmitir@dato stored from wreg
  9072  0032F8  6E01               	movwf	i2Transmitir@dato^0,c
  9073  0032FA                     i2l270:
  9074  0032FA  A2AC               	btfss	4012,1,c	;volatile
  9075  0032FC  EF82  F019         	goto	i2u465_41
  9076  003300  EF84  F019         	goto	i2u465_40
  9077  003304                     i2u465_41:
  9078  003304  EF7D  F019         	goto	i2l270
  9079  003308                     i2u465_40:
  9080  003308                     
  9081                           ;Lab6.c: 165:       if(lectura=='J' || lectura=='j')PWM=225;
  9082  003308  C001  FFAD         	movff	i2Transmitir@dato,4013	;volatile
  9083  00330C  0012               	return		;funcret
  9084  00330E                     __end_ofi2_Transmitir:
  9085                           	callstack 0
  9086  0000                     
  9087                           	psect	rparam
  9088  0000                     
  9089                           	psect	temp
  9090  00004D                     btemp:
  9091                           	callstack 0
  9092  00004D                     	ds	1
  9093  0000                     int$flags	set	btemp
  9094  0000                     wtemp8	set	btemp+1
  9095  0000                     ttemp5	set	btemp+1
  9096  0000                     ttemp6	set	btemp+4
  9097  0000                     ttemp7	set	btemp+8
  9098                           
  9099                           	psect	idloc
  9100                           
  9101                           ;Config register IDLOC0 @ 0x200000
  9102                           ;	unspecified, using default values
  9103  200000                     	org	2097152
  9104  200000  FF                 	db	255
  9105                           
  9106                           ;Config register IDLOC1 @ 0x200001
  9107                           ;	unspecified, using default values
  9108  200001                     	org	2097153
  9109  200001  FF                 	db	255
  9110                           
  9111                           ;Config register IDLOC2 @ 0x200002
  9112                           ;	unspecified, using default values
  9113  200002                     	org	2097154
  9114  200002  FF                 	db	255
  9115                           
  9116                           ;Config register IDLOC3 @ 0x200003
  9117                           ;	unspecified, using default values
  9118  200003                     	org	2097155
  9119  200003  FF                 	db	255
  9120                           
  9121                           ;Config register IDLOC4 @ 0x200004
  9122                           ;	unspecified, using default values
  9123  200004                     	org	2097156
  9124  200004  FF                 	db	255
  9125                           
  9126                           ;Config register IDLOC5 @ 0x200005
  9127                           ;	unspecified, using default values
  9128  200005                     	org	2097157
  9129  200005  FF                 	db	255
  9130                           
  9131                           ;Config register IDLOC6 @ 0x200006
  9132                           ;	unspecified, using default values
  9133  200006                     	org	2097158
  9134  200006  FF                 	db	255
  9135                           
  9136                           ;Config register IDLOC7 @ 0x200007
  9137                           ;	unspecified, using default values
  9138  200007                     	org	2097159
  9139  200007  FF                 	db	255
  9140                           
  9141                           	psect	config
  9142                           
  9143                           ;Config register CONFIG1L @ 0x300000
  9144                           ;	unspecified, using default values
  9145                           ;	PLL Prescaler Selection bits
  9146                           ;	PLLDIV = 0x0, unprogrammed default
  9147                           ;	System Clock Postscaler Selection bits
  9148                           ;	CPUDIV = 0x0, unprogrammed default
  9149                           ;	USB Clock Selection bit (used in Full-Speed USB mode only; UCFG:FSEN = 1)
  9150                           ;	USBDIV = 0x0, unprogrammed default
  9151  300000                     	org	3145728
  9152  300000  00                 	db	0
  9153                           
  9154                           ;Config register CONFIG1H @ 0x300001
  9155                           ;	Oscillator Selection bits
  9156                           ;	FOSC = INTOSC_EC, Internal oscillator, CLKO function on RA6, EC used by USB (INTCKO)
  9157                           ;	Fail-Safe Clock Monitor Enable bit
  9158                           ;	FCMEN = 0x0, unprogrammed default
  9159                           ;	Internal/External Oscillator Switchover bit
  9160                           ;	IESO = 0x0, unprogrammed default
  9161  300001                     	org	3145729
  9162  300001  09                 	db	9
  9163                           
  9164                           ;Config register CONFIG2L @ 0x300002
  9165                           ;	unspecified, using default values
  9166                           ;	Power-up Timer Enable bit
  9167                           ;	PWRT = 0x1, unprogrammed default
  9168                           ;	Brown-out Reset Enable bits
  9169                           ;	BOR = 0x3, unprogrammed default
  9170                           ;	Brown-out Reset Voltage bits
  9171                           ;	BORV = 0x3, unprogrammed default
  9172                           ;	USB Voltage Regulator Enable bit
  9173                           ;	VREGEN = 0x0, unprogrammed default
  9174  300002                     	org	3145730
  9175  300002  1F                 	db	31
  9176                           
  9177                           ;Config register CONFIG2H @ 0x300003
  9178                           ;	Watchdog Timer Enable bit
  9179                           ;	WDT = OFF, WDT disabled (control is placed on the SWDTEN bit)
  9180                           ;	Watchdog Timer Postscale Select bits
  9181                           ;	WDTPS = 0xF, unprogrammed default
  9182  300003                     	org	3145731
  9183  300003  1E                 	db	30
  9184                           
  9185                           ; Padding undefined space
  9186  300004                     	org	3145732
  9187  300004  FF                 	db	255
  9188                           
  9189                           ;Config register CONFIG3H @ 0x300005
  9190                           ;	CCP2 MUX bit
  9191                           ;	CCP2MX = 0x1, unprogrammed default
  9192                           ;	PORTB A/D Enable bit
  9193                           ;	PBADEN = OFF, PORTB<4:0> pins are configured as digital I/O on Reset
  9194                           ;	Low-Power Timer 1 Oscillator Enable bit
  9195                           ;	LPT1OSC = 0x0, unprogrammed default
  9196                           ;	MCLR Pin Enable bit
  9197                           ;	MCLRE = 0x1, unprogrammed default
  9198  300005                     	org	3145733
  9199  300005  81                 	db	129
  9200                           
  9201                           ;Config register CONFIG4L @ 0x300006
  9202                           ;	Stack Full/Underflow Reset Enable bit
  9203                           ;	STVREN = 0x1, unprogrammed default
  9204                           ;	Single-Supply ICSP Enable bit
  9205                           ;	LVP = OFF, Single-Supply ICSP disabled
  9206                           ;	Dedicated In-Circuit Debug/Programming Port (ICPORT) Enable bit
  9207                           ;	ICPRT = 0x0, unprogrammed default
  9208                           ;	Extended Instruction Set Enable bit
  9209                           ;	XINST = 0x0, unprogrammed default
  9210                           ;	Background Debugger Enable bit
  9211                           ;	DEBUG = 0x1, unprogrammed default
  9212  300006                     	org	3145734
  9213  300006  81                 	db	129
  9214                           
  9215                           ; Padding undefined space
  9216  300007                     	org	3145735
  9217  300007  FF                 	db	255
  9218                           
  9219                           ;Config register CONFIG5L @ 0x300008
  9220                           ;	unspecified, using default values
  9221                           ;	Code Protection bit
  9222                           ;	CP0 = 0x1, unprogrammed default
  9223                           ;	Code Protection bit
  9224                           ;	CP1 = 0x1, unprogrammed default
  9225                           ;	Code Protection bit
  9226                           ;	CP2 = 0x1, unprogrammed default
  9227                           ;	Code Protection bit
  9228                           ;	CP3 = 0x1, unprogrammed default
  9229  300008                     	org	3145736
  9230  300008  0F                 	db	15
  9231                           
  9232                           ;Config register CONFIG5H @ 0x300009
  9233                           ;	unspecified, using default values
  9234                           ;	Boot Block Code Protection bit
  9235                           ;	CPB = 0x1, unprogrammed default
  9236                           ;	Data EEPROM Code Protection bit
  9237                           ;	CPD = 0x1, unprogrammed default
  9238  300009                     	org	3145737
  9239  300009  C0                 	db	192
  9240                           
  9241                           ;Config register CONFIG6L @ 0x30000A
  9242                           ;	unspecified, using default values
  9243                           ;	Write Protection bit
  9244                           ;	WRT0 = 0x1, unprogrammed default
  9245                           ;	Write Protection bit
  9246                           ;	WRT1 = 0x1, unprogrammed default
  9247                           ;	Write Protection bit
  9248                           ;	WRT2 = 0x1, unprogrammed default
  9249                           ;	Write Protection bit
  9250                           ;	WRT3 = 0x1, unprogrammed default
  9251  30000A                     	org	3145738
  9252  30000A  0F                 	db	15
  9253                           
  9254                           ;Config register CONFIG6H @ 0x30000B
  9255                           ;	unspecified, using default values
  9256                           ;	Configuration Register Write Protection bit
  9257                           ;	WRTC = 0x1, unprogrammed default
  9258                           ;	Boot Block Write Protection bit
  9259                           ;	WRTB = 0x1, unprogrammed default
  9260                           ;	Data EEPROM Write Protection bit
  9261                           ;	WRTD = 0x1, unprogrammed default
  9262  30000B                     	org	3145739
  9263  30000B  E0                 	db	224
  9264                           
  9265                           ;Config register CONFIG7L @ 0x30000C
  9266                           ;	unspecified, using default values
  9267                           ;	Table Read Protection bit
  9268                           ;	EBTR0 = 0x1, unprogrammed default
  9269                           ;	Table Read Protection bit
  9270                           ;	EBTR1 = 0x1, unprogrammed default
  9271                           ;	Table Read Protection bit
  9272                           ;	EBTR2 = 0x1, unprogrammed default
  9273                           ;	Table Read Protection bit
  9274                           ;	EBTR3 = 0x1, unprogrammed default
  9275  30000C                     	org	3145740
  9276  30000C  0F                 	db	15
  9277                           
  9278                           ;Config register CONFIG7H @ 0x30000D
  9279                           ;	unspecified, using default values
  9280                           ;	Boot Block Table Read Protection bit
  9281                           ;	EBTRB = 0x1, unprogrammed default
  9282  30000D                     	org	3145741
  9283  30000D  40                 	db	64
  9284                           tosu	equ	0xFFF
  9285                           tosh	equ	0xFFE
  9286                           tosl	equ	0xFFD
  9287                           stkptr	equ	0xFFC
  9288                           pclatu	equ	0xFFB
  9289                           pclath	equ	0xFFA
  9290                           pcl	equ	0xFF9
  9291                           tblptru	equ	0xFF8
  9292                           tblptrh	equ	0xFF7
  9293                           tblptrl	equ	0xFF6
  9294                           tablat	equ	0xFF5
  9295                           prodh	equ	0xFF4
  9296                           prodl	equ	0xFF3
  9297                           indf0	equ	0xFEF
  9298                           postinc0	equ	0xFEE
  9299                           postdec0	equ	0xFED
  9300                           preinc0	equ	0xFEC
  9301                           plusw0	equ	0xFEB
  9302                           fsr0h	equ	0xFEA
  9303                           fsr0l	equ	0xFE9
  9304                           wreg	equ	0xFE8
  9305                           indf1	equ	0xFE7
  9306                           postinc1	equ	0xFE6
  9307                           postdec1	equ	0xFE5
  9308                           preinc1	equ	0xFE4
  9309                           plusw1	equ	0xFE3
  9310                           fsr1h	equ	0xFE2
  9311                           fsr1l	equ	0xFE1
  9312                           bsr	equ	0xFE0
  9313                           indf2	equ	0xFDF
  9314                           postinc2	equ	0xFDE
  9315                           postdec2	equ	0xFDD
  9316                           preinc2	equ	0xFDC
  9317                           plusw2	equ	0xFDB
  9318                           fsr2h	equ	0xFDA
  9319                           fsr2l	equ	0xFD9
  9320                           status	equ	0xFD8

Data Sizes:
    Strings     0
    Constant    0
    Data        3
    BSS         15
    Persistent  0
    Stack       0

Auto Spaces:
    Space          Size  Autos    Used
    COMRAM           94     74      76
    BANK0           160     74      90
    BANK1           256      0       0
    BANK2           256      0       0
    BANK3           256      0       0
    BANK4           256      0       0
    BANK5           256      0       0
    BANK6           256      0       0
    BANK7           256      0       0

Pointer List with Targets:

    None.

Critical Paths under _main in COMRAM

    None.

Critical Paths under _ISR in COMRAM

    _ISR->i2_desaceleracion
    i2_desaceleracion->i2___fldiv
    i2___flsub->i2___fladd
    i2___flmul->i2___xxtofl
    i2___flge->i2___xxtofl
    i2___fldiv->i2___flmul

Critical Paths under _main in BANK0

    _main->_cambios
    _cambios->_aceleracion
    _cambios->_desaceleracion
    _desaceleracion->___fldiv
    ___flsub->___fladd
    _aceleracion->___fldiv
    ___flmul->___xxtofl
    ___flge->___xxtofl
    ___fldiv->___flmul
    _InicializaLCD->_EnviaDato
    _BorraLCD->_EnviaDato
    _EscribeLCD_n8->___awdiv
    ___awdiv->___awmod
    _EnviaDato->_RetardoLCD

Critical Paths under _ISR in BANK0

    None.

Critical Paths under _main in BANK1

    None.

Critical Paths under _ISR in BANK1

    None.

Critical Paths under _main in BANK2

    None.

Critical Paths under _ISR in BANK2

    None.

Critical Paths under _main in BANK3

    None.

Critical Paths under _ISR in BANK3

    None.

Critical Paths under _main in BANK4

    None.

Critical Paths under _ISR in BANK4

    None.

Critical Paths under _main in BANK5

    None.

Critical Paths under _ISR in BANK5

    None.

Critical Paths under _main in BANK6

    None.

Critical Paths under _ISR in BANK6

    None.

Critical Paths under _main in BANK7

    None.

Critical Paths under _ISR in BANK7

    None.

Call Graph Tables:

 ---------------------------------------------------------------------------------
 (Depth) Function   	        Calls       Base Space   Used Autos Params    Refs
 ---------------------------------------------------------------------------------
 (0) _main                                                 3     3      0   38270
                                             72 BANK0      2     2      0
                           _BorraLCD
                       _ConfiguraLCD
                      _EscribeLCD_n8
                      _InicializaLCD
                         _Transmitir
                        _aceleracion
                            _cambios
                     _desaceleracion
 ---------------------------------------------------------------------------------
 (1) _cambios                                              2     0      2   17765
                                             70 BANK0      2     0      2
                         _Transmitir
                        _aceleracion
                     _desaceleracion
 ---------------------------------------------------------------------------------
 (1) _desaceleracion                                       6     2      4    8996
                                             64 BANK0      6     2      4
                         _Transmitir
                            ___fldiv
                             ___flge
                            ___flmul
                            ___flsub
                            ___fltol
                           ___xxtofl
 ---------------------------------------------------------------------------------
 (2) ___flsub                                              8     0      8    2737
                                             16 BANK0      8     0      8
                            ___fladd
 ---------------------------------------------------------------------------------
 (2) _aceleracion                                          6     2      4    8573
                                             64 BANK0      6     2      4
                         _Transmitir
                            ___fladd
                            ___fldiv
                             ___flge
                            ___flmul
                            ___fltol
                           ___xxtofl
 ---------------------------------------------------------------------------------
 (2) ___xxtofl                                            14    10      4     930
                                              0 BANK0     14    10      4
 ---------------------------------------------------------------------------------
 (2) ___fltol                                             10     6      4     381
                                              0 BANK0     10     6      4
 ---------------------------------------------------------------------------------
 (2) ___flmul                                             25    17      8    2200
                                             14 BANK0     25    17      8
                           ___xxtofl (ARG)
 ---------------------------------------------------------------------------------
 (2) ___flge                                              12     4      8     486
                                             14 BANK0     12     4      8
                           ___xxtofl (ARG)
 ---------------------------------------------------------------------------------
 (2) ___fldiv                                             25    17      8    1551
                                             39 BANK0     25    17      8
                            ___flmul (ARG)
                           ___xxtofl (ARG)
 ---------------------------------------------------------------------------------
 (3) ___fladd                                             16     8      8    2414
                                              0 BANK0     16     8      8
 ---------------------------------------------------------------------------------
 (2) _Transmitir                                           1     1      0      22
                                              0 BANK0      1     1      0
 ---------------------------------------------------------------------------------
 (1) _InicializaLCD                                        0     0      0     220
                           _BorraLCD
                          _EnviaDato
                        _HabilitaLCD
                         _RetardoLCD
 ---------------------------------------------------------------------------------
 (2) _BorraLCD                                             0     0      0     110
                          _EnviaDato
                        _HabilitaLCD
                         _RetardoLCD
 ---------------------------------------------------------------------------------
 (1) _EscribeLCD_n8                                        7     6      1    2518
                                             14 BANK0      7     6      1
                          _EnviaDato
                        _HabilitaLCD
                         _RetardoLCD
                            ___awdiv
                            ___awmod
 ---------------------------------------------------------------------------------
 (2) ___awmod                                              6     2      4    1056
                                              0 BANK0      6     2      4
 ---------------------------------------------------------------------------------
 (2) ___awdiv                                              8     4      4     756
                                              6 BANK0      8     4      4
                            ___awmod (ARG)
 ---------------------------------------------------------------------------------
 (2) _EnviaDato                                            2     2      0      88
                                              3 BANK0      2     2      0
                        _HabilitaLCD
                         _RetardoLCD
 ---------------------------------------------------------------------------------
 (2) _RetardoLCD                                           3     3      0      22
                                              0 BANK0      3     3      0
 ---------------------------------------------------------------------------------
 (2) _HabilitaLCD                                          0     0      0       0
 ---------------------------------------------------------------------------------
 (1) _ConfiguraLCD                                         1     1      0      66
                                              0 BANK0      1     1      0
 ---------------------------------------------------------------------------------
 Estimated maximum stack depth 3
 ---------------------------------------------------------------------------------
 (Depth) Function   	        Calls       Base Space   Used Autos Params    Refs
 ---------------------------------------------------------------------------------
 (5) _ISR                                                  4     4      0    6020
                                             70 COMRAM     4     4      0
                       i2_Transmitir
                   i2_desaceleracion
 ---------------------------------------------------------------------------------
 (6) i2_desaceleracion                                     6     2      4    5998
                                             64 COMRAM     6     2      4
                       i2_Transmitir
                          i2___fldiv
                           i2___flge
                          i2___flmul
                          i2___flsub
                          i2___fltol
                         i2___xxtofl
 ---------------------------------------------------------------------------------
 (7) i2___xxtofl                                          14    10      4     426
                                              0 COMRAM    14    10      4
 ---------------------------------------------------------------------------------
 (7) i2___fltol                                           10     6      4     255
                                              0 COMRAM    10     6      4
 ---------------------------------------------------------------------------------
 (7) i2___flsub                                            8     0      8    2133
                                             16 COMRAM     8     0      8
                          i2___fladd
 ---------------------------------------------------------------------------------
 (8) i2___fladd                                           16     8      8    2036
                                              0 COMRAM    16     8      8
 ---------------------------------------------------------------------------------
 (7) i2___flmul                                           25    17      8    1570
                                             14 COMRAM    25    17      8
                         i2___xxtofl (ARG)
 ---------------------------------------------------------------------------------
 (7) i2___flge                                            12     4      8     234
                                             14 COMRAM    12     4      8
                         i2___xxtofl (ARG)
 ---------------------------------------------------------------------------------
 (7) i2___fldiv                                           25    17      8    1173
                                             39 COMRAM    25    17      8
                          i2___flmul (ARG)
                         i2___xxtofl (ARG)
 ---------------------------------------------------------------------------------
 (7) i2_Transmitir                                         1     1      0      22
                                              0 COMRAM     1     1      0
 ---------------------------------------------------------------------------------
 Estimated maximum stack depth 8
 ---------------------------------------------------------------------------------

 Call Graph Graphs:

 _main (ROOT)
   _BorraLCD
     _EnviaDato
       _HabilitaLCD
       _RetardoLCD
     _HabilitaLCD
     _RetardoLCD
   _ConfiguraLCD
   _EscribeLCD_n8
     _EnviaDato
     _HabilitaLCD
     _RetardoLCD
     ___awdiv
       ___awmod (ARG)
     ___awmod
   _InicializaLCD
     _BorraLCD
     _EnviaDato
     _HabilitaLCD
     _RetardoLCD
   _Transmitir
   _aceleracion
     _Transmitir
     ___fladd
     ___fldiv
       ___flmul (ARG)
         ___xxtofl (ARG)
       ___xxtofl (ARG)
     ___flge
       ___xxtofl (ARG)
     ___flmul
     ___fltol
     ___xxtofl
   _cambios
     _Transmitir
     _aceleracion
     _desaceleracion
       _Transmitir
       ___fldiv
       ___flge
       ___flmul
       ___flsub
         ___fladd
       ___fltol
       ___xxtofl
   _desaceleracion

 _ISR (ROOT)
   i2_Transmitir
   i2_desaceleracion
     i2_Transmitir
     i2___fldiv
       i2___flmul (ARG)
         i2___xxtofl (ARG)
       i2___xxtofl (ARG)
     i2___flge
       i2___xxtofl (ARG)
     i2___flmul
     i2___flsub
       i2___fladd
     i2___fltol
     i2___xxtofl

 Address spaces:
Name               Size   Autos  Total    Cost      Usage
BIGRAM             7FF      0       0      32        0.0%
EEDATA             100      0       0       0        0.0%
BITBANK7           100      0       0      18        0.0%
BANK7              100      0       0      19        0.0%
BITBANK6           100      0       0      16        0.0%
BANK6              100      0       0      17        0.0%
BITBANK5           100      0       0      14        0.0%
BANK5              100      0       0      15        0.0%
BITBANK4           100      0       0      12        0.0%
BANK4              100      0       0      13        0.0%
BITBANK3           100      0       0      10        0.0%
BANK3              100      0       0      11        0.0%
BITBANK2           100      0       0       8        0.0%
BANK2              100      0       0       9        0.0%
BITBANK1           100      0       0       6        0.0%
BANK1              100      0       0       7        0.0%
BITBANK0            A0      0       0       4        0.0%
BANK0               A0     4A      5A       5       56.2%
BITCOMRAM           5E      0       0       0        0.0%
COMRAM              5E     4A      4C       1       80.9%
BITBIGSFRl          2B      0       0      30        0.0%
BITBIGSFRhhhhlh     19      0       0      21        0.0%
BITBIGSFRhhhhh       D      0       0      20        0.0%
BITBIGSFRhhlllh      B      0       0      27        0.0%
BITBIGSFRhhllhl      8      0       0      26        0.0%
BITBIGSFRhhhhll      8      0       0      22        0.0%
BITBIGSFRhhhl        8      0       0      23        0.0%
BITBIGSFRhhllll      6      0       0      28        0.0%
BITBIGSFRhl          6      0       0      29        0.0%
BITBIGSFRhhllhh      4      0       0      25        0.0%
BITBIGSFRhhlh        2      0       0      24        0.0%
BIGSFR               0      0       0     200        0.0%
BITSFR               0      0       0     200        0.0%
SFR                  0      0       0     200        0.0%
STACK                0      0       0       2        0.0%
NULL                 0      0       0       0        0.0%
ABS                  0      0      A6      31        0.0%
DATA                 0      0      A6       3        0.0%
CODE                 0      0       0       0        0.0%


Microchip Technology PIC18 Macro Assembler V2.36 build 20220127204148 
Symbol Table                                                                                   Wed Jun 22 11:43:10 2022

            ___fldiv@aexp 009F              ___fldiv@bexp 009E              ___fldiv@sign 0097  
                      l99 32DA              ___awdiv@sign 006B                EnviaDato@a 0064  
                     l100 32DE                       l106 3180                       l122 3320  
                     l116 2F1E                       l213 311E             _InicializaLCD 2E50  
                     l119 332E                       l144 2A36                       l270 32E4  
                     l247 31C4                       l256 2332                       l273 32F6  
                     l265 2136                       l249 31DA                       l610 2C44  
                     l258 235E                       l267 2162                       l605 2BFE  
                     l571 2FE4                       l637 2B3E                       l910 3222  
                     l584 3096                       l922 19A6                       l924 1806  
                     l933 184C                       l870 01B6                       l935 18C4  
                     l927 17CA                       l936 18B2                       l961 0C50  
                     l954 0A5A                       l971 0D80                       l963 0CC8  
                     l868 0202                       l964 0CB6                       l885 031C  
                     l877 04D2                       l869 01F0                       l894 03EC  
                     l958 0DBE                       l895 03DA                       l995 25AC  
                     _GIE 007F97                       l998 2708                       _PR2 000FCB  
                     _ISR 0008                       _PWM 00B6               i2___fladd@a 0005  
             i2___fladd@b 0001               i2___fldiv@a 002C               i2___fldiv@b 0028  
            ___awmod@sign 0065                i2___xxtofl 270A                       wreg 000FE8  
             i2___flmul@a 0013               i2___flmul@b 000F               i2___flsub@a 0015  
             i2___flsub@b 0011              ___flmul@aexp 007F              ___flmul@bexp 0080  
            ___flmul@sign 007A              ___flmul@temp 0085              ___flmul@prod 0081  
                    ?_ISR 0001              ___fltol@exp1 0069                      l1002 2644  
                    l1009 26A0                      l3101 00F4                      l3111 0120  
                    l3103 0106                      l3041 309C                      l4001 3070  
                    l3201 0356                      l3121 0134                      l3113 0124  
                    l3105 0114                      l3035 3322                      l3043 30A0  
                    l4003 3076                      l3211 0386                      l3203 0360  
                    l3131 0148                      l3123 0138                      l3115 0128  
                    l3107 0118                      l3037 3324                      l3045 30B6  
                    l3053 30E2                      l4005 3086                      l3221 03AE  
                    l3213 038A                      l3205 036E                      l3141 0182  
                    l3133 014C                      l3125 013C                      l3117 012C  
                    l3109 011C                      l3061 0020                      l3301 1680  
                    l3039 332C                      l3047 30CA                      l4007 308E  
                    l3231 0408                      l3223 03BC                      l3215 039A  
                    l3207 0370                      l3151 01D4                      l3143 019E  
                    l3135 0150                      l3127 0140                      l3119 0130  
                    l3071 0060                      l3063 002E                      l3311 16C0  
                    l3303 168E                      l3049 30D6                      l3241 0472  
                    l3233 0416                      l3225 03D2                      l3209 037E  
                    l3217 039C                      l3161 0220                      l3153 01E2  
                    l3145 01AE                      l3129 0144                      l3137 0154  
                    l3081 0092                      l3073 0062                      l3065 0030  
                    l3401 1982                      l3321 1700                      l3313 16C2  
                    l3305 1690                      l3251 04AC                      l3243 0492  
                    l3235 0450                      l3171 0260                      l3219 03AA  
                    l3155 01E4                      l3147 01C4                      l3139 0158  
                    l3091 00BA                      l3083 0094                      l3067 0040  
                    l3075 006A                      l3059 0012                      l3403 1986  
                    l3331 1730                      l3323 1708                      l3307 16A0  
                    l3315 16CA                      l3261 3124                      l3253 04B2  
                    l3245 0496                      l3229 03FC                      l3237 0452  
                    l3181 028A                      l3173 026C                      l3165 0234  
                    l3157 01EE                      l3149 01D0                      l3093 00CA  
                    l3085 009A                      l3077 007A                      l3069 0050  
                    l3405 1994                      l3341 176E                      l3333 1730  
                    l3325 170C                      l3317 16DA                      l3309 16B0  
                    l3501 0C40                      l3421 09B0                      l3263 3136  
                    l3271 316A                      l3255 04C0                      l3247 04A4  
                    l3239 0462                      l3191 02FC                      l3175 0270  
                    l3167 0244                      l3159 0210                      l3183 0290  
                    l3095 00DA                      l3087 00A8                      l3079 0080  
                    l3407 199A                      l3351 17BA                      l3343 177E  
                    l3319 16F0                      l3511 0C80                      l3503 0C4E  
                    l3431 09E8                      l3423 09B2                      l4401 32B4  
                    l3273 317C                      l3265 3148                      l3257 04C2  
                    l3249 04AA                      l3185 02B6                      l3193 030C  
                    l3177 027E                      l3169 0252                      l3097 00DC  
                    l3089 00AA                      l3409 199C                      l3361 1804  
                    l3353 17C8                      l3345 178E                      l3337 1744  
                    l3329 1720                      l3281 161A                      l3521 0CF2  
                    l3513 0CAE                      l3505 0C60                      l3441 0A14  
                    l3433 09F8                      l3425 09C2                      l3417 0994  
                    l3601 2ADE                      l4403 32C8                      l3267 314C  
                    l4411 2E70                      l3275 32E4                      l3195 0332  
                    l3187 02EA                      l3179 0280                      l3099 00E4  
                    l3371 184A                      l3363 1816                      l3355 17D4  
                    l3347 1796                      l3339 175E                      l3291 165A  
                    l3283 1628                      l3531 0D68                      l3523 0D1C  
                    l3507 0C6E                      l3451 0A6A                      l3443 0A24  
                    l3435 09FE                      l3427 09D2                      l3419 09A2  
                    l3611 2B0E                      l3269 3152                      l4501 2A02  
                    l4421 2E9C                      l4413 2E74                      l4405 2E50  
                    l3277 32F2                      l3197 0342                      l3189 02EC  
                    l3381 18AA                      l3365 182C                      l3373 185C  
                    l3357 17F2                      l3349 17A6                      l3293 165C  
                    l3285 162A                      l3533 0D84                      l3541 0DAA  
                    l3517 0CD8                      l3525 0D20                      l3509 0C72  
                    l3461 0AA4                      l3453 0A7A                      l3445 0A34  
                    l3437 0A04                      l3429 09E2                      l3613 2B1E  
                    l3621 2568                      l4431 2EC8                      l4423 2EA0  
                    l4415 2E78                      l4407 2E52                      l3391 1918  
                    l3375 186A                      l3367 1832                      l3359 17F4  
                    l3287 163A                      l3295 1664                      l3279 160C  
                    l3543 0DAE                      l3535 0D94                      l3527 0D3A  
                    l3519 0CE4                      l3471 0AF6                      l3463 0ABA  
                    l3447 0A44                      l3439 0A12                      l3615 2B2E  
                    l3607 2AF2                      l3631 25E6                      l3623 2576  
                    l5057 2A18                      l4441 2EF0                      l4433 2ECC  
                    l4425 2EA4                      l4417 2E7E                      l4409 2E64  
                    l3385 18D4                      l3393 191C                      l3377 186E  
                    l3369 183C                      l3297 1674                      l3289 164A  
                    l3561 2BBE                      l3553 2B40                      l3537 0DA2  
                    l3529 0D4E                      l3481 0B3C                      l3473 0B04  
                    l3465 0AC6                      l3457 0A8E                      l3449 0A4A  
                    l3609 2AFE                      l3641 263A                      l3633 25EE  
                    l3625 25BC                      l4521 31A6                      l5059 30F8  
                    l4443 2EF4                      l4451 2F0A                      l4435 2ED0  
                    l4427 2EAA                      l4419 2E90                      l3395 1936  
                    l3387 18E0                      l3379 187C                      l3299 167A  
                    l3571 2C42                      l3563 2BCC                      l3555 2B70  
                    l3539 0DA4                      l3491 0BAA                      l3483 0B56  
                    l3475 0B10                      l3467 0ADE                      l3459 0A9A  
                    l3651 26B0                      l3643 2676                      l3635 25FA  
                    l3627 25D2                      l3619 2556                      l3547 31DC  
                    l4523 31A8                      l4515 3182                      l4453 2F0E  
                    l4445 2EFA                      l4437 2ED6                      l4429 2EBC  
                    l3397 194C                      l3389 18EE                      l3565 2BDE  
                    l3557 2B80                      l3493 0BD4                      l3485 0B66  
                    l3477 0B20                      l3469 0AEA                      l3581 2A64  
                    l3661 26F8                      l3653 26B4                      l3645 2682  
                    l3637 262C                      l3549 31EE                      l3901 215C  
                    l4525 31AA                      l4517 3188                      l4471 28E8  
                    l4455 2F14                      l4447 2F00                      l4439 2EE8  
                    l3399 1966                      l3567 2BEC                      l3559 2BAE  
                    l3495 0C0A                      l3487 0B82                      l3479 0B2C  
                    l3591 2AB2                      l3583 2A8E                      l3575 2A38  
                    l3655 26D8                      l3647 2690                      l3639 262E  
                    l3911 219C                      l3903 2164                      l4527 31BE  
                    l4519 3190                      l4481 294E                      l4473 28EC  
                    l4457 2F18                      l4449 2F04                      l3569 2C3C  
                    l3497 0C18                      l3489 0B8E                      l3585 2A90  
                    l3577 2A50                      l3657 26E8                      l3649 26AE  
                    l3921 22E4                      l3913 21A4                      l3905 216A  
                    l4529 31C6                      l4801 1D8C                      l3931 2F20  
                    l4491 29D6                      l4483 2958                      l4475 28F6  
                    l4467 28C2                      l3499 0C36                      l3587 2AA0  
                    l3659 26F6                      l3923 2336                      l3915 225E  
                    l3907 217A                      l4811 1DA2                      l4803 1D8E  
                    l3941 2F4E                      l3933 2F26                      l4493 29E0  
                    l4485 2966                      l4477 2944                      l4469 28C8  
                    l3597 2ACA                      l3589 2AA4                      l3925 2352  
                    l3917 2284                      l3909 217E                      l4821 1DD2  
                    l4813 1DBC                      l4805 1D9C                      l3951 2F7C  
                    l3943 2F56                      l3935 2F34                      l4495 29F4  
                    l4487 29CC                      l4479 2948                      l3871 3316  
                    l3599 2AD4                      l3927 2356                      l3919 22D2  
                    l4831 1E24                      l4823 1DE6                      l4815 1DC2  
                    l4807 1D9E                      l3961 2FB6                      l3953 2F84  
                    l3945 2F5A                      l3937 2F3C                      l4497 29F8  
                    l4489 29D0                      l3873 331A                      l3929 2358  
                    l3881 1F80                      l4841 1E6A                      l4825 1DEE  
                    l4833 1E30                      l4817 1DC6                      l4809 1DA0  
                    l3971 2FDC                      l3963 2FB8                      l3955 2F92  
                    l3947 2F62                      l3939 2F40                      l3867 330E  
                    l3891 20D6                      l3883 1F9E                      l3875 1F66  
                    l4851 1EAA                      l4843 1E6E                      l4835 1E46  
                    l4827 1E16                      l4819 1DCC                      l3965 2FBE  
                    l3957 2F98                      l3949 2F74                      l3981 3002  
                    l3869 3310                      l3893 20E8                      l3885 1FA6  
                    l3877 1F6C                      l4861 1EF6                      l4853 1EB4  
                    l4837 1E54                      l4845 1E7A                      l4829 1E20  
                    l3959 2FAE                      l3967 2FC4                      l3991 3036  
                    l3983 3006                      l3975 2FE6                      l3895 213A  
                    l3887 2062                      l3879 1F7C                      l4871 1F44  
                    l4863 1F0E                      l4855 1EB8                      l4847 1E90  
                    l4839 1E60                      l4791 1D72                      l4783 1D42  
                    l3969 2FD4                      l3993 303E                      l3985 3014  
                    l3977 2FEC                      l3897 2156                      l3889 2088  
                    l4873 1F4E                      l4865 1F24                      l4849 1E9E  
                    l4857 1EC4                      l4793 1D84                      l4785 1D46  
                    l3995 304C                      l3987 301C                      l3979 2FFA  
                    l3899 215A                      l4875 1F52                      l4867 1F38  
                    l4859 1EDA                      l4795 1D86                      l4787 1D6E  
                    l3997 3062                      l3989 302E                      l4869 1F3E  
                    l4797 1D88                      l4789 1D70                      l3999 306A  
                    l4799 1D8A              i2_Transmitir 32F8                      u3000 002E  
                    u3001 002A                      u3010 0040                      u3011 003C  
                    u3100 019A                      u3020 0050                      u3101 0194  
                    u3021 004C                      u3110 019C                      u3030 0092  
                    u3031 008E                      u3200 02B6                      u3120 01C4  
                    u3040 00A8                      u4000 2672                      _LATD 000F8C  
                    u3201 02B2                      u3121 01C0                      u3041 00A4  
                    u4001 266E                      _LATE 000F8D                      u3210 02FC  
                    u3130 01E2                      u3050 00BA                      u4010 2690  
                    u3211 02F8                      u3131 01DE                      u3051 00B6  
                    u4011 268C                      u3300 03E8                      u3220 0332  
                    u3140 0202                      u3060 00CA                      u4020 26A0  
                    u3301 03E4                      u3221 032E                      u3141 01FE  
                    u3061 00C6                      u4021 269C                      u3310 03FC  
                    u3230 0342                      u3150 0210                      u3070 0106  
                    u4030 26AE                      u3311 03F8                      u3231 033E  
                    u3151 020C                      u3071 0102                      u4031 26AA  
                    u3400 317C                      u3320 0416                      u3240 036E  
                    u3160 0220                      u3080 0114                      u4040 26E8  
                    u3401 3178                      u3321 0412                      u3241 036A  
                    u3161 021C                      u3081 0110                      u4041 26E4  
                    u3410 32F2                      u3330 0450                      u3250 037E  
                    u3170 0252                      u3090 0182                      u4050 26F6  
                    u3411 32EE                      u3331 044C                      u3251 037A  
                    u3171 024E                      u3091 017E                      u4051 26F2  
                    u3340 0462                      u3260 039A                      u3180 0260  
                    u3500 17A6                      u3420 1628                      u3341 045E  
                    u3261 0396                      u3181 025C                      u3501 17A2  
                    u3421 1624                      u3350 0472                      u3270 03AA  
                    u3190 027E                      u3510 17C8                      u3430 163A  
                    u3351 046E                      u3271 03A6                      u3191 027A  
                    u3511 17C4                      u3431 1636                      u3360 0492  
                    u3280 03BC                      u3600 18D4                      u3520 17F2  
                    u3440 164A                      u3361 048E                      u3281 03B8  
                    u3601 18D0                      u3521 17EE                      u3441 1646  
                    u3370 04A4                      u3290 03D2                      u3610 18EE  
                    u3530 1816                      u3450 168E                      u3371 04A0  
                    u3291 03CE                      u3611 18EA                      u3531 1812  
                    u3451 168A                      u5300 32C8                      u3380 04C0  
                    u3620 1936                      u3540 182C                      u3460 16A0  
                    u3700 0A34                      u4500 219C                      u5301 32C4  
                    u3381 04BC                      u3621 1932                      u3541 1828  
                    u3461 169C                      u3701 0A30                      u4501 2198  
                    u5310 32DA                      u3390 3136                      u3630 1966  
                    u3550 184A                      u3470 16B0                      u3710 0A6A  
                    u4510 2332                      u5311 32D6                      u3391 3132  
                    u3631 1962                      u3551 1846                      u3471 16AC  
                    u3711 0A66                      u4511 232E                      u6007 20DE  
                    u4600 3014                      u5320 2E64                      u3640 1994  
                    u3560 186A                      u3480 16F0                      u3800 0CF2  
                    u3720 0A7A                      u4520 2352                      u4601 3010  
                    u5321 2E60                      u3641 1990                      u3561 1866  
                    u3481 16EC                      u3801 0CEE                      u3721 0A76  
                    u4521 234E                      u6017 22DA                      u4530 2F34  
                    u4610 302E                      u5330 2E90                      u3570 187C  
                    u3490 1730                      u3810 0D3A                      u3730 0BF4  
                    u3650 09B0                      u4450 1F7C                      u6027 30A8  
                    u4531 2F30                      u4611 302A                      u5331 2E8C  
                    u3571 1878                      u3491 172C                      u3811 0D36  
                    u3651 09AC                      u4451 1F78                      u4540 2F4E  
                    u4620 304C                      u5340 2EBC                      u3580 18AA  
                    u3820 0D68                      u3740 0C4E                      u3660 09C2  
                    u3900 2A84                      u4460 1F9E                      u5500 1E9E  
                    u6037 30B8                      u4541 2F4A                      u4621 3048  
                    u5341 2EB8                      u3581 18A6                      u3821 0D64  
                    u3741 0C4A                      u3661 09BE                      u4461 1F9A  
                    u5501 1E9A                      u4550 2F74                      u4630 3062  
                    u5350 2EE8                      u3590 18C0                      u3830 0DA2  
                    u3750 0C6E                      u3670 09D2                      u3910 2AB2  
                    u4470 2136                      u5510 1EDA                      u6047 30C0  
                    u4551 2F70                      u4631 305E                      u5351 2EE4  
                    u3591 18BC                      u3831 0D9E                      u3751 0C6A  
                    u3735 0BEA                      u3671 09CE                      u3911 2AAE  
                    u4471 2132                      u5511 1ED6                      u4560 2F92  
                    u4640 3086                      u3840 2B70                      u3760 0C80  
                    u3680 0A12                      u3920 2AC6                      u4480 2156  
                    u5360 31BE                      u5520 1EF6                      u6057 30CC  
                    u4561 2F8E                      u4641 3082                      u3841 2B6C  
                    u3761 0C7C                      u3681 0A0E                      u3921 2AC2  
                    u3905 2A7A                      u4481 2152                      u5361 31BA  
                    u5521 1EF2                      u4570 2FAE                      u3850 2BAE  
                    u3770 0CAE                      u3690 0A24                      u3930 2AEE  
                    u4490 217A                      u5530 1F24                      u6067 30D8  
                    u4571 2FAA                      u3851 2BAA                      u3771 0CAA  
                    u3691 0A20                      u3931 2AEA                      u4491 2176  
                    u5531 1F20                      _RCIE 007CED                      u4580 2FD4  
                    u3860 2BCC                      u3780 0CC4                      u3940 2B0E  
                    u5460 1DE6                      _RCIF 007CF5                      u6077 3326  
                    u4581 2FD0                      u3861 2BC8                      u3781 0CC0  
                    u3941 2B0A                      u5461 1DE2                      u4590 2FFA  
                    u3870 2BEC                      u3790 0CD8                      u3950 2B1E  
                    u5470 1E46                      u4591 2FF6                      u3871 2BE8  
                    u3791 0CD4                      u3951 2B1A                      u5471 1E42  
                    u3880 2C3C                      u3960 2568                      u5480 1E54  
                    u3881 2C38                      u3961 2564                      u5481 1E50  
                    u3890 2A50                      u3970 2576                      u5490 1E90  
                    u3891 2A4C                      u3971 2572                      u5491 1E8C  
                    u3980 25D2                      u3981 25CE                      u3990 2628  
                    _RCIP 007CFD                      u3991 2624                      u5997 1DAE  
                    _TMR0 000FD6                      _TMR2 000FCC                      _TRMT 007D61  
            i2___flge@ff1 000F              i2___flge@ff2 0013                      _calc 00AA  
                    _main 1D42                      _var1 00AE                      btemp 004D  
     aceleracion@objetivo 00A0                      prodh 000FF4                      prodl 000FF3  
                    start 000E              i2___fltol@f1 0001           ___fldiv@new_exp 0098  
            ___param_bank 000000                     ??_ISR 0047            ?_InicializaLCD 0001  
           ___fltol@sign1 0068           __end_of___fladd 04D4                     ?_main 0001  
         __end_of___fldiv 19A8           __end_of___awdiv 2FE6           __end_of___awmod 3098  
         __end_of___flmul 0DC0           __end_of___flsub 3224           __end_of___fltol 2B40  
                   _T0CON 000FD5           ___awdiv@divisor 0068                     _T2CON 000FCA  
                   _LATC2 007C5A                     _LATD0 007C60                     _LATD1 007C61  
                   _LATE0 007C68                     _LATD2 007C62                     _LATE1 007C69  
                   _LATD3 007C63                     i2l316 1470                     i2l270 32FA  
                   i2l319 14A0                     i2l273 330C                     i2l265 2522  
                   i2l337 1600                     i2l610 2E4E                     i2l267 2550  
                   i2l605 2E08                     i2l637 2D4A                     i2l910 32AE  
                   i2l922 1D40                     i2l924 1BA0                     i2l933 1BE6  
                   i2l870 0676                     i2l935 1C5E                     i2l927 1B64  
                   i2l936 1C4C                     i2l961 107A                     i2l954 0E84  
                   i2l971 11AA                     i2l963 10F2                     i2l964 10E0  
                   i2l868 06C2           ___awdiv@counter 006A                     i2l885 07DC  
                   i2l877 0992                     i2l869 06B0                     i2l958 11E8  
                   i2l894 08AC                     i2l895 089A                     i2l995 2760  
                   i2l998 28BC                     _RCREG 000FAE                     _RCSTA 000FAB  
        i2Transmitir@dato 0001                     _SPBRG 000FAF           __end_of_cambios 31DC  
                   _TRISD 000F95                     _TRISE 000F96                     _TXREG 000FAD  
                   _TXSTA 000FAC             i2___fladd@grs 0010           ??_EscribeLCD_n8 006F  
           i2___fldiv@grs 003B             i2___fldiv@rem 0034          __end_ofi2___flge 2E50  
                   tablat 000FF5               _HabilitaLCD 3322                     ttemp5 004E  
                   ttemp6 0051                     ttemp7 0055                     status 000FD8  
                   wtemp8 004E             i2___flmul@grs 001C          __end_of_BorraLCD 3322  
         __initialization 3224              __end_of_main 1F66                    ??_main 00A8  
    __end_of_ConfiguraLCD 32E0             __activetblptr 000002               ?i2___xxtofl 0001  
                  _ADCON1 000FC1                    _CCPR1L 000FBE            EscribeLCD_n8@a 0074  
          EscribeLCD_n8@b 006E          ___awdiv@dividend 0066                    _INT0IE 007F94  
                  _INT0IF 007F91                    i2l1002 27F8                    i2l1009 2854  
                  i2l4011 32FA                    i2l4013 3308                    i2l4101 19F6  
                  i2l4021 2DB8                    i2l4111 1A28                    i2l4103 19FE  
                  i2l4031 2E46                    i2l4023 2DC8                    i2l4015 2D4C  
                  i2l4201 1CB6                    i2l4121 1A5C                    i2l4113 1A2A  
                  i2l4105 1A0E                    i2l4033 2E4C                    i2l4025 2DD6  
                  i2l4017 2D7A                    i2l5001 15AC                    i2l4211 1D20  
                  i2l4203 1CD0                    i2l4131 1AA2                    i2l4115 1A3A  
                  i2l4123 1A64                    i2l4107 1A14                    i2l4027 2DE8  
                  i2l4019 2D8A                    i2l4051 2CB0                    i2l4043 2C70  
                  i2l5011 15E4                    i2l5003 15B6                    i2l4213 1D2E  
                  i2l4205 1CE6                    i2l4141 1ACA                    i2l4133 1AA6  
                  i2l4125 1A74                    i2l4117 1A4A                    i2l4109 1A1A  
                  i2l4029 2DF6                    i2l4301 0FFE                    i2l4061 2CE0  
                  i2l4053 2CBE                    i2l4045 2C9A                    i2l4037 2C46  
                  i2l5013 15F6                    i2l5005 15CA                    i2l4215 1D34  
                  i2l4207 1D00                    i2l4151 1B18                    i2l4127 1A8A  
                  i2l4119 1A5A                    i2l4311 1078                    i2l4303 1034  
                  i2l4231 0DDC                    i2l4071 2D0A                    i2l4063 2CEA  
                  i2l4047 2C9C                    i2l4039 2C5C                    i2l5015 15FE  
                  i2l5007 15D4                    i2l4217 1D36                    i2l4209 1D1C  
                  i2l4161 1B62                    i2l4153 1B28                    i2l4145 1ADE  
                  i2l4129 1A9A                    i2l4137 1ABA                    i2l4321 10D8  
                  i2l4313 108A                    i2l4305 1042                    i2l4241 0E22  
                  i2l4233 0DEC                    i2l4225 0DC0                    i2l4081 326A  
                  i2l4073 2D1A                    i2l4049 2CAC                    i2l5009 15D6  
                  i2l4171 1BB0                    i2l4163 1B6E                    i2l4155 1B30  
                  i2l4147 1AF8                    i2l4139 1ACA                    i2l4091 19C2  
                  i2l4331 1146                    i2l4315 1098                    i2l4307 1060  
                  i2l4251 0E4E                    i2l4243 0E28                    i2l4235 0DFC  
                  i2l4227 0DCC                    i2l4083 327A                    i2l4075 2D2A  
                  i2l4059 2CD6                    i2l4173 1BC6                    i2l4181 1BF6  
                  i2l4165 1B8C                    i2l4157 1B40                    i2l4149 1B08  
                  i2l4093 19C4                    i2l4341 11AE                    i2l4325 1102  
                  i2l4333 114A                    i2l4317 109C                    i2l4309 106A  
                  i2l4261 0EA4                    i2l4253 0E5E                    i2l4245 0E2E  
                  i2l4237 0E0C                    i2l4229 0DDA                    i2l3701 059A  
                  i2l4077 2D3A                    i2l4069 2CFE                    i2l4183 1C04  
                  i2l4175 1BCC                    i2l4167 1B8E                    i2l4159 1B54  
                  i2l4095 19D4                    i2l4087 19A8                    i2l4351 11D8  
                  i2l4343 11BE                    i2l4335 1164                    i2l4327 110E  
                  i2l4319 10AA                    i2l4271 0EE4                    i2l4255 0E6E  
                  i2l4247 0E3C                    i2l4239 0E12                    i2l3711 05D4  
                  i2l3703 059C                    i2l4193 1C6E                    i2l4185 1C08  
                  i2l4177 1BD6                    i2l4169 1B9E                    i2l4097 19E4  
                  i2l4089 19B4                    i2l4345 11CC                    i2l4337 1178  
                  i2l4329 111C                    i2l4281 0F2E                    i2l4273 0EF0  
                  i2l4265 0EB8                    i2l4257 0E74                    i2l4249 0E3E  
                  i2l3801 07F2                    i2l3721 05E8                    i2l3713 05D8  
                  i2l3705 05A4                    i2l4361 2770                    i2l4195 1C7A  
                  i2l4187 1C16                    i2l4179 1BE4                    i2l4099 19F4  
                  i2l4347 11CE                    i2l4339 1192                    i2l4291 0F80  
                  i2l4283 0F3A                    i2l4275 0F08                    i2l4267 0EC4  
                  i2l4259 0E94                    i2l3811 082E                    i2l3803 0802  
                  i2l3731 05FC                    i2l3723 05EC                    i2l3715 05DC  
                  i2l3707 05B4                    i2l4371 27AE                    i2l4363 2786  
                  i2l4355 270C                    i2l4531 2360                    i2l4197 1C88  
                  i2l4189 1C44                    i2l4349 11D4                    i2l4293 0F90  
                  i2l4285 0F4A                    i2l4277 0F14                    i2l4269 0ECE  
                  i2l3821 085A                    i2l3813 0830                    i2l3741 0610  
                  i2l3733 0600                    i2l3725 05F0                    i2l3717 05E0  
                  i2l3709 05C6                    i2l4381 2836                    i2l4373 27E0  
                  i2l4357 271C                    i2l4541 239E                    i2l4533 2366  
                  i2l4199 1CB2                    i2l4295 0FAC                    i2l4287 0F56  
                  i2l4279 0F20                    i2l3831 0892                    i2l3815 083E  
                  i2l3807 0816                    i2l3823 085C                    i2l3751 066E  
                  i2l3735 0604                    i2l3727 05F4                    i2l3719 05E4  
                  i2l3743 0614                    i2l3671 04F0                    i2l4391 288C  
                  i2l4383 2844                    i2l4375 27E2                    i2l4367 279A  
                  i2l4359 272A                    i2l4551 2526                    i2l4543 2458  
                  i2l4535 2376                    i2l4297 0FB8                    i2l4289 0F66  
                  i2l3841 0910                    i2l3817 0846                    i2l3809 0820  
                  i2l3825 086A                    i2l3761 06A4                    i2l3753 0684  
                  i2l3745 0618                    i2l3737 0608                    i2l3729 05F8  
                  i2l3673 0500                    i2l3681 052A                    i2l3665 04D4  
                  i2l4393 289C                    i2l4385 2862                    i2l4377 27EE  
                  i2l4369 27A2                    i2l4553 2542                    i2l4545 247C  
                  i2l4537 237A                    i2l4299 0FD4                    i2l3851 0956  
                  i2l3835 08BC                    i2l3843 0912                    i2l3827 086E  
                  i2l3819 084A                    i2l3771 06F4                    i2l3763 06AE  
                  i2l3755 0690                    i2l3747 0642                    i2l3739 060C  
                  i2l3691 055A                    i2l3683 053A                    i2l3675 0510  
                  i2l3667 04E0                    i2l4395 28AA                    i2l4387 2864  
                  i2l4379 282A                    i2l4555 2546                    i2l4547 24C8  
                  i2l4539 2396                    i2l3861 0980                    i2l3853 0964  
                  i2l3845 0922                    i2l3837 08C8                    i2l3829 087C  
                  i2l3781 0730                    i2l3773 0704                    i2l3765 06D0  
                  i2l3757 0694                    i2l3749 065E                    i2l3693 0568  
                  i2l3685 0540                    i2l3677 0520                    i2l3669 04EE  
                  i2l4397 28AC                    i2l4389 2868                    i2l4557 2548  
                  i2l4549 24D8                    i2l4901 12B0                    i2l3863 0982  
                  i2l3855 096A                    i2l3847 0932                    i2l3839 08D6  
                  i2l3791 0776                    i2l3783 073E                    i2l3775 0712  
                  i2l3767 06E0                    i2l3759 06A2                    i2l3695 056A  
                  i2l3687 0552                    i2l3679 0522                    i2l4911 12FA  
                  i2l4903 12C2                    i2l3857 096C                    i2l3849 0952  
                  i2l3793 07AA                    i2l3785 0740                    i2l3777 0720  
                  i2l3697 057A                    i2l3689 0554                    i2l4921 134C  
                  i2l4913 130C                    i2l4905 12CC                    i2l3859 0972  
                  i2l3795 07AC                    i2l3787 074A                    i2l3779 072C  
                  i2l3699 058A                    i2l4931 1396                    i2l4923 1356  
                  i2l4915 131E                    i2l4907 12DE                    i2l3797 07BC  
                  i2l3789 0750                    i2l4941 13E0                    i2l4933 13A8  
                  i2l4925 1368                    i2l4917 1328                    i2l4909 12F0  
                  i2l3799 07CC                    i2l4951 1432                    i2l4943 13F2  
                  i2l4935 13B2                    i2l4927 137A                    i2l4919 133A  
                  i2l4961 1494                    i2l4953 143C                    i2l4945 1404  
                  i2l4937 13C4                    i2l4929 1384                    i2l4881 1214  
                  i2l4971 14F2                    i2l4963 14B2                    i2l4955 144E  
                  i2l4947 140E                    i2l4939 13D6                    i2l4891 1266  
                  i2l4883 1226                    i2l4981 153C                    i2l4973 14FC  
                  i2l4965 14C4                    i2l4957 1460                    i2l4949 1420  
                  i2l4893 1270                    i2l4885 1238                    i2l4877 11F4  
                  i2l4991 157A                    i2l4983 154E                    i2l4975 150E  
                  i2l4967 14CE                    i2l4959 1482                    i2l4895 1282  
                  i2l4887 1242                    i2l4879 1202                    i2l4985 1558  
                  i2l4977 1520                    i2l4969 14E0                    i2l4897 1294  
                  i2l4889 1254                    i2l4993 1584                    i2l4987 156C  
                  i2l4979 152A                    i2l4899 129E                    i2l4995 1586  
                  i2l4997 1594                    i2l4989 1574                    i2l4999 15A6  
                  _TMR0IE 007F95                    _TMR0IF 007F92                    _TMR2ON 007E52  
                  _TRISC1 007CA1                    _TRISC2 007CA2          __end_of___xxtofl 270A  
              _RetardoLCD 3098         i2desaceleracion@t 0043            i2___fladd@aexp 000E  
          i2___fladd@bexp 000F          i2_desaceleracion 2360      EscribeLCD_n8@centena 0071  
                  ___flge 2B40                 ??___fladd 0068                 ??___fldiv 008F  
               ??___awdiv 006A                 ??___awmod 0064                 ??___flmul 0076  
               ??___flsub 0078                 ??___fltol 0064           ??_InicializaLCD 0065  
               ??_cambios 00A8                    _estado 00B4                    clear_0 3254  
        ___awdiv@quotient 006C            i2___fldiv@aexp 0040            i2___fldiv@bexp 003F  
         ___awmod@divisor 0062                    isa$std 000001                    _tiempo 00B8  
          i2___fldiv@sign 0038           ___awmod@counter 0064              __pdataCOMRAM 004C  
       __end_ofi2___fladd 0994         __end_ofi2___fldiv 1D42         __end_ofi2___flmul 11EA  
       __end_ofi2___flsub 32B0         __end_ofi2___fltol 2D4C                    tblptrh 000FF7  
                  tblptrl 000FF6                    tblptru 000FF8                _Transmitir 32E0  
          i2___flmul@aexp 0020            i2___flmul@bexp 0021            i2___flmul@sign 001B  
          i2___flmul@temp 0026            i2___flmul@prod 0022                ___flge@ff1 006E  
              ___flge@ff2 0072              ___xxtofl@arg 006A              ___xxtofl@exp 0069  
            ___xxtofl@val 0060                __accesstop 0060   __end_of__initialization 325C  
          i2___fltol@exp1 000A            Transmitir@dato 0060             ___rparam_used 000001  
              ___fltol@f1 0060            __pcstackCOMRAM 0001              __pidataBANK0 3330  
       __end_of_EnviaDato 3182                 ?i2___flge 000F                 ?_BorraLCD 0001  
              __pbssBANK0 00AA               ?_RetardoLCD 0001               RetardoLCD@a 0062  
                 ?___flge 006E                   _CCP1CON 000FBD                   _BAUDCON 000FB8  
              ??i2___flge 0017            _desaceleracion 1F66                   _INTEDG0 007F8E  
               ?___xxtofl 0060             ??_aceleracion 00A4                ??_BorraLCD 0065  
             ?_Transmitir 0001              ?_HabilitaLCD 0001              _ConfiguraLCD 32B0  
         i2___fladd@signs 000D                   __Hparam 0000                   __Lparam 0000  
                 ___fladd 0012                   ___fldiv 160C                   ___awdiv 2F20  
                 ___awmod 2FE6                   ___flmul 0994                   ___flsub 31DC  
                 ___fltol 2A38                   _cambios 3182                   __pcinit 3224  
                 __ramtop 0800    __end_of_desaceleracion 2164                   __ptext0 1D42  
                 __ptext1 3182                   __ptext2 1F66                   __ptext3 31DC  
                 __ptext4 2164                   __ptext5 2552                   __ptext6 2A38  
                 __ptext7 0994                   __ptext8 2B40                   __ptext9 160C  
  desaceleracion@objetivo 00A0              aceleracion@t 00A2                   _lectura 004B  
            ??i2___xxtofl 0005                ??___xxtofl 0064          ___awmod@dividend 0060  
__end_ofi2_desaceleracion 2552     __end_of_EscribeLCD_n8 2A38            __pintcode_body 11EA  
    end_of_initialization 325C             __Lmediumconst 0000                   int_func 11EA  
     __end_of_aceleracion 2360            i2___xxtofl@arg 000B            i2___xxtofl@exp 000A  
          i2___xxtofl@val 0001        __end_ofi2___xxtofl 28BE                   postinc0 000FEE  
         ?_desaceleracion 00A0               ___fladd@grs 006F             ___xxtofl@sign 0068  
             ___fldiv@grs 009A               ___fldiv@rem 0093           i2___fltol@sign1 0009  
               i2___fladd 04D4                 i2___fldiv 19A8                 i2___flmul 0DC0  
               i2___flsub 326A                 i2___fltol 2C46               ___flmul@grs 007B  
         desaceleracion@t 00A2            __end_of___flge 2C46             __pidataCOMRAM 3332  
   __end_of_InicializaLCD 2F20                 _EnviaDato 3120       start_initialization 3224  
             __end_of_ISR 160C               _aceleracion 2164                ?i2___fladd 0001  
              ?i2___fldiv 0028                ?i2___flmul 000F                ?i2___flsub 0011  
              ?i2___fltol 0001             ?i2_Transmitir 0001              ??_RetardoLCD 0060  
     EscribeLCD_n8@decena 0072                  ??___flge 0076               __pdataBANK0 00B8  
     EscribeLCD_n8@unidad 0073                 ___fladd@a 0064                 ___fladd@b 0060  
              ?_EnviaDato 0001                 ___fldiv@a 008B                 ___fldiv@b 0087  
               ___flmul@a 0072                 ___flmul@b 006E               __pbssCOMRAM 004B  
               ___flsub@a 0074                 ___flsub@b 0070        __end_of_RetardoLCD 3120  
           __pcstackBANK0 0060            ??i2_Transmitir 0001              ??_Transmitir 0060  
               __pintcode 0008                  ?___fladd 0060                  ?___fldiv 0087  
                ?___awdiv 0066                  ?___awmod 0060                  ?___flmul 006E  
                ?___flsub 0070                  ?___fltol 0060                  ?_cambios 00A6  
      __end_of_Transmitir 32F8         ?i2_desaceleracion 0041               ??i2___fladd 0009  
             ??i2___fldiv 0030               ??i2___flmul 0017               ??i2___flsub 0019  
             ??i2___fltol 0005        ??i2_desaceleracion 0045                  i2u410_40 0568  
                i2u410_41 0564                  i2u411_40 057A                  i2u411_41 0576  
                i2u500_40 1D2E                  i2u420_40 06C2                  i2u412_40 058A  
                i2u500_41 1D2A                  i2u420_41 06BE                  i2u412_41 0586  
                i2u501_40 0DDA                  i2u421_40 06D0                  i2u413_40 05C6  
                i2u501_41 0DD6                  i2u421_41 06CC                  i2u413_41 05C2  
                i2u510_40 1078                  i2u502_40 0DEC                  i2u430_40 082E  
                i2u422_40 06E0                  i2u414_40 05D4                  i2u406_40 04EE  
                i2u510_41 1074                  i2u502_41 0DE8                  i2u430_41 082A  
                i2u422_41 06DC                  i2u414_41 05D0                  i2u406_41 04EA  
                i2u511_40 1098                  i2u503_40 0DFC                  i2u431_40 083E  
                i2u423_40 0712                  i2u415_40 0642                  i2u407_40 0500  
                i2u511_41 1094                  i2u503_41 0DF8                  i2u431_41 083A  
                i2u423_41 070E                  i2u415_41 063E                  i2u407_41 04FC  
                i2u512_40 10AA                  i2u504_40 0E3C                  i2u440_40 0922  
                i2u432_40 085A                  i2u424_40 0720                  i2u416_40 065A  
                i2u408_40 0510                  i2u520_40 271C                  i2u512_41 10A6  
                i2u504_41 0E38                  i2u440_41 091E                  i2u432_41 0856  
                i2u424_41 071C                  i2u416_41 0654                  i2u408_41 050C  
                i2u520_41 2718                  i2u513_40 10D8                  i2u505_40 0E4E  
                i2u441_40 0932                  i2u433_40 086A                  i2u425_40 073E  
                i2u417_40 065C                  i2u409_40 0552                  i2u521_40 272A  
                i2u513_41 10D4                  i2u505_41 0E4A                  i2u441_41 092E  
                i2u433_41 0866                  i2u425_41 073A                  i2u409_41 054E  
                i2u521_41 2726                  i2u514_40 10EE                  i2u506_40 0E5E  
                i2u442_40 0952                  i2u434_40 087C                  i2u426_40 0776  
                i2u418_40 0684                  i2u522_40 2786                  i2u514_41 10EA  
                i2u506_41 0E5A                  i2u442_41 094E                  i2u434_41 0878  
                i2u426_41 0772                  i2u418_41 0680                  i2u522_41 2782  
                i2u515_40 1102                  i2u507_40 0E94                  i2u443_40 0964  
                i2u435_40 0892                  i2u427_40 07BC                  i2u419_40 06A2  
                i2u523_40 27DC                  i2u515_41 10FE                  i2u507_41 0E90  
                i2u443_41 0960                  i2u435_41 088E                  i2u427_41 07B8  
                i2u419_41 069E                  i2u523_41 27D8                  i2u516_40 111C  
                i2u508_40 0EA4                  i2u444_40 0980                  i2u436_40 08A8  
                i2u428_40 07F2                  i2u524_40 2826                  i2u540_40 2542  
                i2u516_41 1118                  i2u508_41 0EA0                  i2u444_41 097C  
                i2u436_41 08A4                  i2u428_41 07EE                  i2u524_41 2822  
                i2u540_41 253E                  i2u517_40 1164                  i2u509_40 101E  
                i2u437_40 08BC                  i2u429_40 0802                  i2u525_40 2844  
                i2u517_41 1160                  i2u437_41 08B8                  i2u429_41 07FE  
                i2u525_41 2840                  i2u509_45 1014                  i2u470_40 2E46  
                i2u518_40 1192                  i2u438_40 08D6                  i2u526_40 2854  
                i2u470_41 2E42                  i2u518_41 118E                  i2u438_41 08D2  
                i2u526_41 2850                  i2u519_40 11CC                  i2u439_40 0910  
                i2u471_40 2C5C                  i2u527_40 2862                  i2u519_41 11C8  
                i2u439_41 090C                  i2u471_41 2C58                  i2u527_41 285E  
                i2u480_40 19E4                  i2u472_40 2C90                  i2u528_40 289C  
                i2u560_40 1282                  i2u480_41 19E0                  i2u528_41 2898  
                i2u560_41 127E                  i2u472_45 2C86                  i2u608_47 24CE  
                i2u465_40 3308                  i2u481_40 1A28                  i2u473_40 2CBE  
                i2u529_40 28AA                  i2u537_40 2376                  i2u561_40 1294  
                i2u465_41 3304                  i2u481_41 1A24                  i2u473_41 2CBA  
                i2u529_41 28A6                  i2u537_41 2372                  i2u561_41 1290  
                i2u490_40 1BC6                  i2u482_40 1A3A                  i2u466_40 2D7A  
                i2u474_40 2CD2                  i2u538_40 2396                  i2u570_40 1368  
                i2u562_40 12B0                  i2u554_40 1202                  i2u490_41 1BC2  
                i2u482_41 1A36                  i2u466_41 2D76                  i2u474_41 2CCE  
                i2u538_41 2392                  i2u570_41 1364                  i2u562_41 12AC  
                i2u554_41 11FE                  i2u491_40 1BE4                  i2u483_40 1A4A  
                i2u467_40 2DB8                  i2u475_40 2CFA                  i2u539_40 2522  
                i2u571_40 137A                  i2u563_40 12C2                  i2u555_40 1214  
                i2u491_41 1BE0                  i2u483_41 1A46                  i2u467_41 2DB4  
                i2u475_41 2CF6                  i2u539_41 251E                  i2u571_41 1376  
                i2u563_41 12BE                  i2u555_41 1210                  i2u492_40 1C04  
                i2u484_40 1A8A                  i2u468_40 2DD6                  i2u476_40 2D1A  
                i2u580_40 144E                  i2u572_40 1396                  i2u564_40 12DE  
                i2u556_40 1226                  i2u492_41 1C00                  i2u484_41 1A86  
                i2u468_41 2DD2                  i2u476_41 2D16                  i2u580_41 144A  
                i2u572_41 1392                  i2u564_41 12DA                  i2u556_41 1222  
                i2u493_40 1C16                  i2u485_40 1ACA                  i2u469_40 2DF6  
                i2u477_40 2D2A                  i2u581_40 1460                  i2u573_40 13A8  
                i2u565_40 12F0                  i2u557_40 1238                  i2u493_41 1C12  
                i2u485_41 1AC6                  i2u469_41 2DF2                  i2u477_41 2D26  
                i2u581_41 145C                  i2u573_41 13A4                  i2u565_41 12EC  
                i2u557_41 1234                  i2u494_40 1C44                  i2u486_40 1B40  
                i2u478_40 19C2                  i2u590_40 153C                  i2u582_40 1482  
                i2u574_40 13C4                  i2u566_40 130C                  i2u558_40 1254  
                i2u494_41 1C40                  i2u486_41 1B3C                  i2u478_41 19BE  
                i2u590_41 1538                  i2u582_41 147E                  i2u574_41 13C0  
                i2u566_41 1308                  i2u558_41 1250                  i2u495_40 1C5A  
                i2u487_40 1B62                  i2u479_40 19D4                  i2u591_40 154E  
                i2u583_40 1494                  i2u575_40 13D6                  i2u567_40 131E  
                i2u559_40 1266                  i2u495_41 1C56                  i2u487_41 1B5E  
                i2u479_41 19D0                  i2u591_41 154A                  i2u583_41 1490  
                i2u575_41 13D2                  i2u567_41 131A                  i2u559_41 1262  
                i2u496_40 1C6E                  i2u488_40 1B8C                  i2u592_40 156C  
                i2u584_40 14B2                  i2u576_40 13F2                  i2u568_40 133A  
                i2u496_41 1C6A                  i2u488_41 1B88                  i2u592_41 1568  
                i2u584_41 14AE                  i2u576_41 13EE                  i2u568_41 1336  
                i2u497_40 1C88                  i2u489_40 1BB0                  i2u593_40 1594  
                i2u585_40 14C4                  i2u577_40 1404                  i2u569_40 134C  
                i2u497_41 1C84                  i2u489_41 1BAC                  i2u593_41 1590  
                i2u585_41 14C0                  i2u577_41 1400                  i2u569_41 1348  
                i2u498_40 1CD0                  i2u594_40 15A4                  i2u586_40 14E0  
                i2u578_40 1420                  i2u498_41 1CCC                  i2u594_41 159E  
                i2u586_41 14DC                  i2u578_41 141C                  i2u499_40 1D00  
                i2u587_40 14F2                  i2u579_40 1432                  i2u499_41 1CFC  
                i2u587_41 14EE                  i2u579_41 142E                  i2u595_45 15A6  
                i2u596_40 15E4                  i2u588_40 150E                  i2u596_41 15E0  
                i2u588_41 150A                  i2u597_40 15F4                  i2u589_40 1520  
                i2u597_41 15EE                  i2u589_41 151C                  i2u598_45 15F6  
       i2___fldiv@new_exp 0039          ??_desaceleracion 00A4                  i2___flge 2D4C  
             ??_EnviaDato 0063                  _BorraLCD 330E                  __Hrparam 0000  
                __Lrparam 0000      __end_ofi2_Transmitir 330E  i2desaceleracion@objetivo 0041  
           ConfiguraLCD@a 0060                  ___xxtofl 2552                  __ptext10 0012  
                __ptext11 32E0                  __ptext20 32B0                  __ptext12 2E50  
                __ptext13 330E                  __ptext30 32F8                  __ptext22 2360  
                __ptext14 28BE                  __ptext23 270A                  __ptext15 2FE6  
                __ptext24 2C46                  __ptext16 2F20                  __ptext25 326A  
                __ptext17 3120                  __ptext26 04D4                  __ptext18 3098  
                __ptext27 0DC0                  __ptext19 3322                  __ptext28 2D4C  
                __ptext29 19A8              ?_aceleracion 00A0                  cambios@s 00A6  
                _interfaz 004C                  isa$xinst 000000                  _temporal 00B2  
                int$flags 004D             _EscribeLCD_n8 28BE                  intlevel2 0000  
           ??_HabilitaLCD 0060           i2___xxtofl@sign 0009             ?_ConfiguraLCD 0001  
          ?_EscribeLCD_n8 006E             ___fladd@signs 006C            ??_ConfiguraLCD 0060  
            ___fladd@aexp 006D              ___fladd@bexp 006E       __end_of_HabilitaLCD 3330  
