

Microchip MPLAB XC8 Assembler V2.36 build 20220127204148 
                                                                                               Tue Jun 28 22:58:57 2022

Microchip MPLAB XC8 C Compiler v2.36 (Free license) build 20220127204148 Og1 
     1                           	processor	18F4550
     2                           	fnconf	rparam,??,?,0
     3                           	pagewidth 120
     4                           	opt	flic
     5                           	psect	idataCOMRAM,global,class=CODE,delta=1,noexec
     6                           	psect	idataBANK0,global,class=CODE,delta=1,noexec
     7                           	psect	smallconst,global,reloc=2,class=SMALLCONST,delta=1,noexec
     8                           	psect	cinit,global,reloc=2,class=CODE,delta=1
     9                           	psect	bssCOMRAM,global,class=COMRAM,space=1,delta=1,lowdata,noexec
    10                           	psect	dataCOMRAM,global,class=COMRAM,space=1,delta=1,lowdata,noexec
    11                           	psect	bssBANK0,global,class=BANK0,space=1,delta=1,lowdata,noexec
    12                           	psect	dataBANK0,global,class=BANK0,space=1,delta=1,lowdata,noexec
    13                           	psect	cstackBANK0,global,class=BANK0,space=1,delta=1,lowdata,noexec
    14                           	psect	cstackCOMRAM,global,class=COMRAM,space=1,delta=1,lowdata,noexec
    15                           	psect	text0,global,reloc=2,class=CODE,delta=1
    16                           	psect	text1,global,reloc=2,class=CODE,delta=1
    17                           	psect	text2,global,reloc=2,class=CODE,delta=1
    18                           	psect	text3,global,reloc=2,class=CODE,delta=1
    19                           	psect	text4,global,reloc=2,class=CODE,delta=1
    20                           	psect	text5,global,reloc=2,class=CODE,delta=1
    21                           	psect	text6,global,reloc=2,class=CODE,delta=1
    22                           	psect	text7,global,reloc=2,class=CODE,delta=1
    23                           	psect	text8,global,reloc=2,class=CODE,delta=1
    24                           	psect	text9,global,reloc=2,class=CODE,delta=1
    25                           	psect	text10,global,reloc=2,class=CODE,delta=1
    26                           	psect	text11,global,reloc=2,class=CODE,delta=1
    27                           	psect	text12,global,reloc=2,class=CODE,delta=1
    28                           	psect	text13,global,reloc=2,class=CODE,delta=1,group=1
    29                           	psect	text14,global,reloc=2,class=CODE,delta=1,group=1
    30                           	psect	text15,global,reloc=2,class=CODE,delta=1
    31                           	psect	text16,global,reloc=2,class=CODE,delta=1
    32                           	psect	text17,global,reloc=2,class=CODE,delta=1
    33                           	psect	text18,global,reloc=2,class=CODE,delta=1
    34                           	psect	text19,global,reloc=2,class=CODE,delta=1
    35                           	psect	intcode,global,reloc=2,class=CODE,delta=1
    36                           	psect	intcode_body,global,reloc=2,class=CODE,delta=1
    37                           	psect	text21,global,reloc=2,class=CODE,delta=1
    38                           	psect	text22,global,reloc=2,class=CODE,delta=1
    39                           	psect	text23,global,reloc=2,class=CODE,delta=1
    40                           	psect	text24,global,reloc=2,class=CODE,delta=1
    41                           	psect	text25,global,reloc=2,class=CODE,delta=1
    42                           	psect	text26,global,reloc=2,class=CODE,delta=1
    43                           	psect	text27,global,reloc=2,class=CODE,delta=1
    44                           	psect	text28,global,reloc=2,class=CODE,delta=1
    45                           	psect	text29,global,reloc=2,class=CODE,delta=1
    46                           	psect	text30,global,reloc=2,class=CODE,delta=1
    47                           	psect	text31,global,reloc=2,class=CODE,delta=1
    48                           	psect	text32,global,reloc=2,class=CODE,delta=1
    49                           	psect	text33,global,reloc=2,class=CODE,delta=1
    50                           	psect	intsave_regs,global,class=BIGRAM,space=1,delta=1,noexec
    51                           	psect	rparam,global,class=COMRAM,space=1,delta=1,noexec
    52                           	psect	temp,global,ovrld,common,class=COMRAM,space=1,delta=1
    53                           	psect	idloc,global,abs,ovrld,class=IDLOC,space=5,delta=1,noexec
    54                           	psect	config,global,abs,ovrld,class=CONFIG,space=4,delta=1,noexec
    55  0000                     
    56                           ; Version 2.36
    57                           ; Generated 28/01/2022 GMT
    58                           ; 
    59                           ; Copyright © 2022, Microchip Technology Inc. and its subsidiaries ("Microchip")
    60                           ; All rights reserved.
    61                           ; 
    62                           ; This software is developed by Microchip Technology Inc. and its subsidiaries ("Microch
      +                          ip").
    63                           ; 
    64                           ; Redistribution and use in source and binary forms, with or without modification, are
    65                           ; permitted provided that the following conditions are met:
    66                           ; 
    67                           ;     1. Redistributions of source code must retain the above copyright notice, this lis
      +                          t of
    68                           ;        conditions and the following disclaimer.
    69                           ; 
    70                           ;     2. Redistributions in binary form must reproduce the above copyright notice, this 
      +                          list
    71                           ;        of conditions and the following disclaimer in the documentation and/or other
    72                           ;        materials provided with the distribution. Publication is not required when
    73                           ;        this file is used in an embedded application.
    74                           ; 
    75                           ;     3. Microchip's name may not be used to endorse or promote products derived from th
      +                          is
    76                           ;        software without specific prior written permission.
    77                           ; 
    78                           ; THIS SOFTWARE IS PROVIDED BY MICROCHIP "AS IS" AND ANY EXPRESS OR IMPLIED WARRANTIES,
    79                           ; INCLUDING, BUT NOT LIMITED TO, THE IMPLIED WARRANTIES OF MERCHANTABILITY AND FITNESS F
      +                          OR
    80                           ; PURPOSE ARE DISCLAIMED.  IN NO EVENT SHALL MICROCHIP BE LIABLE FOR ANY DIRECT, INDIREC
      +                          T,
    81                           ; INCIDENTAL, SPECIAL, EXEMPLARY, OR CONSEQUENTIAL DAMAGES (INCLUDING BUT NOT LIMITED TO
    82                           ; PROCUREMENT OF SUBSTITUTE GOODS OR SERVICES; LOSS OF USE, DATA OR PROFITS; OR BUSINESS
    83                           ; INTERRUPTION) HOWSOEVER CAUSED AND ON ANY THEORY OF LIABILITY, WHETHER IN CONTRACT, ST
      +                          RICT
    84                           ; LIABILITY, OR TORT (INCLUDING NEGLIGENCE OR OTHERWISE) ARISING IN ANY WAY OUT OF THE U
      +                          SE OF
    85                           ; THIS SOFTWARE, EVEN IF ADVISED OF THE POSSIBILITY OF SUCH DAMAGE.
    86                           ; 
    87                           ; 
    88                           ; Code-generator required, PIC18F4550 Definitions
    89                           ; 
    90                           ; SFR Addresses
    91  0000                     
    92                           	psect	idataCOMRAM
    93  0025E0                     __pidataCOMRAM:
    94                           	callstack 0
    95                           
    96                           ;initializer for _carro4
    97  0025E0  0000               	dw	0
    98  0025E2  05DC               	dw	1500
    99                           
   100                           ;initializer for _carro3
   101  0025E4  0898               	dw	2200
   102  0025E6  07D0               	dw	2000
   103                           
   104                           ;initializer for _carro2
   105  0025E8  044C               	dw	1100
   106  0025EA  07D0               	dw	2000
   107                           
   108                           ;initializer for _carro1
   109  0025EC  0000               	dw	0
   110  0025EE  07D0               	dw	2000
   111                           
   112                           ;initializer for _vs
   113  0025F0  0005               	dw	5
   114                           
   115                           ;initializer for _interfaz
   116  0025F2  08                 	db	8
   117                           
   118                           	psect	idataBANK0
   119  0025A4                     __pidataBANK0:
   120                           	callstack 0
   121                           
   122                           ;initializer for _carro9
   123  0025A4  0898               	dw	2200
   124  0025A6  03E8               	dw	1000
   125                           
   126                           ;initializer for _carro8
   127  0025A8  044C               	dw	1100
   128  0025AA  03E8               	dw	1000
   129                           
   130                           ;initializer for _carro7
   131  0025AC  0000               	dw	0
   132  0025AE  03E8               	dw	1000
   133                           
   134                           ;initializer for _carro6
   135  0025B0  0898               	dw	2200
   136  0025B2  05DC               	dw	1500
   137                           
   138                           ;initializer for _carro5
   139  0025B4  044C               	dw	1100
   140  0025B6  05DC               	dw	1500
   141                           
   142                           	psect	smallconst
   143  000800                     __psmallconst:
   144                           	callstack 0
   145  000800  00                 	db	0
   146  000801                     _columna3:
   147                           	callstack 0
   148  000801  0898               	dw	2200
   149  000803                     __end_of_columna3:
   150                           	callstack 0
   151  000803  044C               	dw	1100
   152  000805                     __end_of_columna2:
   153                           	callstack 0
   154  000805                     _columna1:
   155                           	callstack 0
   156  000805  0000               	dw	0
   157  000807                     __end_of_columna1:
   158                           	callstack 0
   159  000807  0938               	dw	2360
   160  000809                     __end_of_piso4:
   161                           	callstack 0
   162  000809  07D0               	dw	2000
   163  00080B                     __end_of_piso3:
   164                           	callstack 0
   165  00080B                     _piso2:
   166                           	callstack 0
   167  00080B  05DC               	dw	1500
   168  00080D                     __end_of_piso2:
   169                           	callstack 0
   170  00080D                     _piso1:
   171                           	callstack 0
   172  00080D  03E8               	dw	1000
   173  00080F                     __end_of_piso1:
   174                           	callstack 0
   175  00080F  0001               	dw	1
   176  000811                     __end_of_stepDelay:
   177                           	callstack 0
   178  0000                     _RCREG	set	4014
   179  0000                     _TXREG	set	4013
   180  0000                     _SPBRG	set	4015
   181  0000                     _BAUDCON	set	4024
   182  0000                     _TXSTA	set	4012
   183  0000                     _LATB4	set	31828
   184  0000                     _RB1	set	31753
   185  0000                     _LATB3	set	31827
   186  0000                     _RB0	set	31752
   187  0000                     _LATB5	set	31829
   188  0000                     _LATE2	set	31850
   189  0000                     _LATE1	set	31849
   190  0000                     _LATE0	set	31848
   191  0000                     _TRMT	set	32097
   192  0000                     _GIE	set	32663
   193  0000                     _TMR0IE	set	32661
   194  0000                     _LATD0	set	31840
   195  0000                     _LATD1	set	31841
   196  0000                     _LATB	set	3978
   197  0000                     _LATD	set	3980
   198  0000                     _RB2	set	31754
   199  0000                     _TRISB	set	3987
   200  0000                     _TRISE	set	3990
   201  0000                     _LATE	set	3981
   202  0000                     _ADCON1	set	4033
   203  0000                     _OSCCON	set	4051
   204  0000                     _RCSTA	set	4011
   205  0000                     _RCIE	set	31981
   206  0000                     _RCIF	set	31989
   207  0000                     _RCIP	set	31997
   208  0000                     _TRISD	set	3989
   209  0000                     _T0CON	set	4053
   210  0000                     _RBPU	set	32655
   211  0000                     _TMR0IF	set	32658
   212  0000                     _TMR0	set	4054
   213  000811                     STR_8:
   214  000811  45                 	db	69	;'E'
   215  000812  73                 	db	115	;'s'
   216  000813  70                 	db	112	;'p'
   217  000814  65                 	db	101	;'e'
   218  000815  72                 	db	114	;'r'
   219  000816  61                 	db	97	;'a'
   220  000817  20                 	db	32
   221  000818  64                 	db	100	;'d'
   222  000819  65                 	db	101	;'e'
   223  00081A  20                 	db	32
   224  00081B  6F                 	db	111	;'o'
   225  00081C  72                 	db	114	;'r'
   226  00081D  64                 	db	100	;'d'
   227  00081E  65                 	db	101	;'e'
   228  00081F  6E                 	db	110	;'n'
   229  000820  00                 	db	0
   230  000821                     STR_11:
   231  000821  67                 	db	103	;'g'
   232  000822  75                 	db	117	;'u'
   233  000823  61                 	db	97	;'a'
   234  000824  72                 	db	114	;'r'
   235  000825  64                 	db	100	;'d'
   236  000826  61                 	db	97	;'a'
   237  000827  6E                 	db	110	;'n'
   238  000828  64                 	db	100	;'d'
   239  000829  6F                 	db	111	;'o'
   240  00082A  20                 	db	32
   241  00082B  70                 	db	112	;'p'
   242  00082C  6F                 	db	111	;'o'
   243  00082D  72                 	db	114	;'r'
   244  00082E  3A                 	db	58	;':'
   245  00082F  00                 	db	0
   246  000830                     STR_12:
   247  000830  69                 	db	105	;'i'
   248  000831  6E                 	db	110	;'n'
   249  000832  61                 	db	97	;'a'
   250  000833  63                 	db	99	;'c'
   251  000834  74                 	db	116	;'t'
   252  000835  69                 	db	105	;'i'
   253  000836  76                 	db	118	;'v'
   254  000837  69                 	db	105	;'i'
   255  000838  64                 	db	100	;'d'
   256  000839  61                 	db	97	;'a'
   257  00083A  64                 	db	100	;'d'
   258  00083B  00                 	db	0
   259  00083C                     STR_9:
   260  00083C  63                 	db	99	;'c'
   261  00083D  61                 	db	97	;'a'
   262  00083E  6C                 	db	108	;'l'
   263  00083F  69                 	db	105	;'i'
   264  000840  62                 	db	98	;'b'
   265  000841  72                 	db	114	;'r'
   266  000842  61                 	db	97	;'a'
   267  000843  63                 	db	99	;'c'
   268  000844  69                 	db	105	;'i'
   269  000845  6F                 	db	111	;'o'
   270  000846  6E                 	db	110	;'n'
   271  000847  00                 	db	0
   272  000848                     STR_1:
   273  000848  50                 	db	80	;'P'
   274  000849  61                 	db	97	;'a'
   275  00084A  72                 	db	114	;'r'
   276  00084B  71                 	db	113	;'q'
   277  00084C  75                 	db	117	;'u'
   278  00084D  65                 	db	101	;'e'
   279  00084E  61                 	db	97	;'a'
   280  00084F  64                 	db	100	;'d'
   281  000850  65                 	db	101	;'e'
   282  000851  72                 	db	114	;'r'
   283  000852  6F                 	db	111	;'o'
   284  000853  00                 	db	0
   285  000854                     STR_3:
   286  000854  53                 	db	83	;'S'
   287  000855  65                 	db	101	;'e'
   288  000856  74                 	db	116	;'t'
   289  000857  20                 	db	32
   290  000858  6F                 	db	111	;'o'
   291  000859  72                 	db	114	;'r'
   292  00085A  69                 	db	105	;'i'
   293  00085B  67                 	db	103	;'g'
   294  00085C  69                 	db	105	;'i'
   295  00085D  6E                 	db	110	;'n'
   296  00085E  00                 	db	0
   297  00085F                     STR_10:
   298  00085F  52                 	db	82	;'R'
   299  000860  75                 	db	117	;'u'
   300  000861  74                 	db	116	;'t'
   301  000862  69                 	db	105	;'i'
   302  000863  6E                 	db	110	;'n'
   303  000864  61                 	db	97	;'a'
   304  000865  72                 	db	114	;'r'
   305  000866  69                 	db	105	;'i'
   306  000867  61                 	db	97	;'a'
   307  000868  00                 	db	0
   308  000869                     STR_4:
   309  000869  67                 	db	103	;'g'
   310  00086A  75                 	db	117	;'u'
   311  00086B  61                 	db	97	;'a'
   312  00086C  72                 	db	114	;'r'
   313  00086D  64                 	db	100	;'d'
   314  00086E  61                 	db	97	;'a'
   315  00086F  6E                 	db	110	;'n'
   316  000870  64                 	db	100	;'d'
   317  000871  6F                 	db	111	;'o'
   318  000872  00                 	db	0
   319  000873                     STR_6:
   320  000873  73                 	db	115	;'s'
   321  000874  61                 	db	97	;'a'
   322  000875  63                 	db	99	;'c'
   323  000876  61                 	db	97	;'a'
   324  000877  6E                 	db	110	;'n'
   325  000878  64                 	db	100	;'d'
   326  000879  6F                 	db	111	;'o'
   327  00087A  00                 	db	0
   328  00087B                     STR_5:
   329  00087B  43                 	db	67	;'C'
   330  00087C  61                 	db	97	;'a'
   331  00087D  72                 	db	114	;'r'
   332  00087E  72                 	db	114	;'r'
   333  00087F  6F                 	db	111	;'o'
   334  000880  3A                 	db	58	;':'
   335  000881  00                 	db	0
   336  000882                     STR_2:
   337  000882  6C                 	db	108	;'l'
   338  000883  69                 	db	105	;'i'
   339  000884  73                 	db	115	;'s'
   340  000885  74                 	db	116	;'t'
   341  000886  6F                 	db	111	;'o'
   342  000887  00                 	db	0
   343  000888  00                 	db	0	; dummy byte at the end
   344  0000                     
   345                           ; #config settings
   346                           
   347                           	psect	cinit
   348  0021C0                     __pcinit:
   349                           	callstack 0
   350  0021C0                     start_initialization:
   351                           	callstack 0
   352  0021C0                     __initialization:
   353                           	callstack 0
   354                           
   355                           ; Initialize objects allocated to BANK0 (20 bytes)
   356                           ; load TBLPTR registers with __pidataBANK0
   357  0021C0  0EA4               	movlw	low __pidataBANK0
   358  0021C2  6EF6               	movwf	tblptrl,c
   359  0021C4  0E25               	movlw	high __pidataBANK0
   360  0021C6  6EF7               	movwf	tblptrh,c
   361  0021C8  0E00               	movlw	low (__pidataBANK0 shr (0+16))
   362  0021CA  6EF8               	movwf	tblptru,c
   363  0021CC  EE00  F060         	lfsr	0,__pdataBANK0
   364  0021D0  EE10 F014          	lfsr	1,20
   365  0021D4                     copy_data0:
   366  0021D4  0009               	tblrd		*+
   367  0021D6  CFF5 FFEE          	movff	tablat,postinc0
   368  0021DA  50E5               	movf	postdec1,w,c
   369  0021DC  50E1               	movf	fsr1l,w,c
   370  0021DE  E1FA               	bnz	copy_data0
   371                           
   372                           ; Initialize objects allocated to COMRAM (19 bytes)
   373                           ; load TBLPTR registers with __pidataCOMRAM
   374  0021E0  0EE0               	movlw	low __pidataCOMRAM
   375  0021E2  6EF6               	movwf	tblptrl,c
   376  0021E4  0E25               	movlw	high __pidataCOMRAM
   377  0021E6  6EF7               	movwf	tblptrh,c
   378  0021E8  0E00               	movlw	low (__pidataCOMRAM shr (0+16))
   379  0021EA  6EF8               	movwf	tblptru,c
   380  0021EC  EE00  F03A         	lfsr	0,__pdataCOMRAM
   381  0021F0  EE10 F013          	lfsr	1,19
   382  0021F4                     copy_data1:
   383  0021F4  0009               	tblrd		*+
   384  0021F6  CFF5 FFEE          	movff	tablat,postinc0
   385  0021FA  50E5               	movf	postdec1,w,c
   386  0021FC  50E1               	movf	fsr1l,w,c
   387  0021FE  E1FA               	bnz	copy_data1
   388                           
   389                           ; Clear objects allocated to BANK0 (16 bytes)
   390  002200  EE00  F074         	lfsr	0,__pbssBANK0
   391  002204  0E10               	movlw	16
   392  002206                     clear_0:
   393  002206  6AEE               	clrf	postinc0,c
   394  002208  06E8               	decf	wreg,f,c
   395  00220A  E1FD               	bnz	clear_0
   396                           
   397                           ; Clear objects allocated to COMRAM (32 bytes)
   398  00220C  EE00  F001         	lfsr	0,__pbssCOMRAM
   399  002210  0E20               	movlw	32
   400  002212                     clear_1:
   401  002212  6AEE               	clrf	postinc0,c
   402  002214  06E8               	decf	wreg,f,c
   403  002216  E1FD               	bnz	clear_1
   404  002218                     end_of_initialization:
   405                           	callstack 0
   406  002218                     __end_of__initialization:
   407                           	callstack 0
   408  002218  904D               	bcf	int$flags,0,c	;clear compiler interrupt flag (level 1)
   409  00221A  924D               	bcf	int$flags,1,c	;clear compiler interrupt flag (level 2)
   410  00221C  0E00               	movlw	low (__Lmediumconst shr (0+16))
   411  00221E  6EF8               	movwf	tblptru,c
   412  002220  0100               	movlb	0
   413  002222  EF62  F00C         	goto	_main	;jump to C main() function
   414                           
   415                           	psect	bssCOMRAM
   416  000001                     __pbssCOMRAM:
   417                           	callstack 0
   418  000001                     _posY:
   419                           	callstack 0
   420  000001                     	ds	8
   421  000009                     _posX:
   422                           	callstack 0
   423  000009                     	ds	8
   424  000011                     _estadob:
   425                           	callstack 0
   426  000011                     	ds	2
   427  000013                     _estado:
   428                           	callstack 0
   429  000013                     	ds	2
   430  000015                     _contador:
   431                           	callstack 0
   432  000015                     	ds	2
   433  000017                     _carro:
   434                           	callstack 0
   435  000017                     	ds	2
   436  000019                     _vactual:
   437                           	callstack 0
   438  000019                     	ds	2
   439  00001B                     _Uni:
   440                           	callstack 0
   441  00001B                     	ds	1
   442  00001C                     _Dec:
   443                           	callstack 0
   444  00001C                     	ds	1
   445  00001D                     _lectura:
   446                           	callstack 0
   447  00001D                     	ds	1
   448  00001E                     _Che:
   449                           	callstack 0
   450  00001E                     	ds	1
   451  00001F                     _Hum:
   452                           	callstack 0
   453  00001F                     	ds	1
   454  000020                     _Temp:
   455                           	callstack 0
   456  000020                     	ds	1
   457                           
   458                           	psect	dataCOMRAM
   459  00003A                     __pdataCOMRAM:
   460                           	callstack 0
   461  00003A                     _carro4:
   462                           	callstack 0
   463  00003A                     	ds	4
   464  00003E                     _carro3:
   465                           	callstack 0
   466  00003E                     	ds	4
   467  000042                     _carro2:
   468                           	callstack 0
   469  000042                     	ds	4
   470  000046                     _carro1:
   471                           	callstack 0
   472  000046                     	ds	4
   473  00004A                     _vs:
   474                           	callstack 0
   475  00004A                     	ds	2
   476  00004C                     _interfaz:
   477                           	callstack 0
   478  00004C                     	ds	1
   479                           
   480                           	psect	bssBANK0
   481  000074                     __pbssBANK0:
   482                           	callstack 0
   483  000074                     _auxT:
   484                           	callstack 0
   485  000074                     	ds	8
   486  00007C                     _PosZ:
   487                           	callstack 0
   488  00007C                     	ds	8
   489                           
   490                           	psect	dataBANK0
   491  000060                     __pdataBANK0:
   492                           	callstack 0
   493  000060                     _carro9:
   494                           	callstack 0
   495  000060                     	ds	4
   496  000064                     _carro8:
   497                           	callstack 0
   498  000064                     	ds	4
   499  000068                     _carro7:
   500                           	callstack 0
   501  000068                     	ds	4
   502  00006C                     _carro6:
   503                           	callstack 0
   504  00006C                     	ds	4
   505  000070                     _carro5:
   506                           	callstack 0
   507  000070                     	ds	4
   508                           
   509                           	psect	cstackBANK0
   510  000084                     __pcstackBANK0:
   511                           	callstack 0
   512  000084                     ??_ira:
   513  000084                     ?___awdiv:
   514                           	callstack 0
   515  000084                     MensajeLCD_Var@a:
   516                           	callstack 0
   517  000084                     ___awdiv@dividend:
   518                           	callstack 0
   519                           
   520                           ; 2 bytes @ 0x0
   521  000084                     	ds	2
   522  000086                     MensajeLCD_Var@p:
   523                           	callstack 0
   524  000086                     ___awdiv@divisor:
   525                           	callstack 0
   526                           
   527                           ; 2 bytes @ 0x2
   528  000086                     	ds	2
   529  000088                     ___awdiv@counter:
   530                           	callstack 0
   531                           
   532                           ; 1 bytes @ 0x4
   533  000088                     	ds	1
   534  000089                     ___awdiv@sign:
   535                           	callstack 0
   536                           
   537                           ; 1 bytes @ 0x5
   538  000089                     	ds	1
   539  00008A                     ___awdiv@quotient:
   540                           	callstack 0
   541                           
   542                           ; 2 bytes @ 0x6
   543  00008A                     	ds	2
   544  00008C                     ??_EscribeLCD_n8:
   545                           
   546                           ; 1 bytes @ 0x8
   547  00008C                     	ds	2
   548  00008E                     EscribeLCD_n8@centena:
   549                           	callstack 0
   550                           
   551                           ; 1 bytes @ 0xA
   552  00008E                     	ds	1
   553  00008F                     EscribeLCD_n8@decena:
   554                           	callstack 0
   555                           
   556                           ; 1 bytes @ 0xB
   557  00008F                     	ds	1
   558  000090                     EscribeLCD_n8@unidad:
   559                           	callstack 0
   560                           
   561                           ; 1 bytes @ 0xC
   562  000090                     	ds	1
   563  000091                     EscribeLCD_n8@a:
   564                           	callstack 0
   565                           
   566                           ; 1 bytes @ 0xD
   567  000091                     	ds	1
   568  000092                     ??_main:
   569                           
   570                           ; 1 bytes @ 0xE
   571  000092                     	ds	2
   572                           
   573                           	psect	cstackCOMRAM
   574  000021                     __pcstackCOMRAM:
   575                           	callstack 0
   576  000021                     ??i2_RetardoLCD:
   577  000021                     ??i2_setorigin:
   578  000021                     ??i2_extender:
   579  000021                     ??i2_recoger:
   580  000021                     i2Transmitir@dato:
   581                           	callstack 0
   582  000021                     i2ira@desX:
   583                           	callstack 0
   584                           
   585                           ; 2 bytes @ 0x0
   586  000021                     	ds	1
   587  000022                     i2setorigin@i:
   588                           	callstack 0
   589  000022                     i2extender@i:
   590                           	callstack 0
   591  000022                     i2recoger@i:
   592                           	callstack 0
   593                           
   594                           ; 2 bytes @ 0x1
   595  000022                     	ds	1
   596  000023                     i2RetardoLCD@a:
   597                           	callstack 0
   598  000023                     i2ira@desY:
   599                           	callstack 0
   600                           
   601                           ; 2 bytes @ 0x2
   602  000023                     	ds	1
   603  000024                     ??i2_EnviaDato:
   604                           
   605                           ; 1 bytes @ 0x3
   606  000024                     	ds	1
   607  000025                     ??i2_ira:
   608  000025                     i2EnviaDato@a:
   609                           	callstack 0
   610                           
   611                           ; 1 bytes @ 0x4
   612  000025                     	ds	1
   613  000026                     i2EscribeLCD_c@a:
   614                           	callstack 0
   615  000026                     i2DireccionaLCD@a:
   616                           	callstack 0
   617                           
   618                           ; 1 bytes @ 0x5
   619  000026                     	ds	1
   620  000027                     i2MensajeLCD_Var@a:
   621                           	callstack 0
   622                           
   623                           ; 2 bytes @ 0x6
   624  000027                     	ds	2
   625  000029                     i2MensajeLCD_Var@p:
   626                           	callstack 0
   627                           
   628                           ; 2 bytes @ 0x8
   629  000029                     	ds	4
   630  00002D                     ??_ISR:
   631  00002D                     
   632                           ; 1 bytes @ 0xC
   633  00002D                     	ds	6
   634  000033                     ??_RetardoLCD:
   635  000033                     ??_setorigin:
   636  000033                     ??_extender:
   637  000033                     ??_recoger:
   638  000033                     ?___awmod:
   639                           	callstack 0
   640  000033                     ConfiguraLCD@a:
   641                           	callstack 0
   642  000033                     Transmitir@dato:
   643                           	callstack 0
   644  000033                     ira@desX:
   645                           	callstack 0
   646  000033                     ___awmod@dividend:
   647                           	callstack 0
   648                           
   649                           ; 2 bytes @ 0x12
   650  000033                     	ds	1
   651  000034                     setorigin@i:
   652                           	callstack 0
   653  000034                     extender@i:
   654                           	callstack 0
   655  000034                     recoger@i:
   656                           	callstack 0
   657                           
   658                           ; 2 bytes @ 0x13
   659  000034                     	ds	1
   660  000035                     RetardoLCD@a:
   661                           	callstack 0
   662  000035                     ira@desY:
   663                           	callstack 0
   664  000035                     ___awmod@divisor:
   665                           	callstack 0
   666                           
   667                           ; 2 bytes @ 0x14
   668  000035                     	ds	1
   669  000036                     ??_EnviaDato:
   670                           
   671                           ; 1 bytes @ 0x15
   672  000036                     	ds	1
   673  000037                     EnviaDato@a:
   674                           	callstack 0
   675  000037                     ___awmod@counter:
   676                           	callstack 0
   677                           
   678                           ; 1 bytes @ 0x16
   679  000037                     	ds	1
   680  000038                     EscribeLCD_c@a:
   681                           	callstack 0
   682  000038                     DireccionaLCD@a:
   683                           	callstack 0
   684  000038                     ___awmod@sign:
   685                           	callstack 0
   686                           
   687                           ; 1 bytes @ 0x17
   688  000038                     	ds	1
   689  000039                     EscribeLCD_n8@b:
   690                           	callstack 0
   691                           
   692                           ; 1 bytes @ 0x18
   693  000039                     	ds	1
   694                           
   695 ;;
   696 ;;Main: autosize = 0, tempsize = 2, incstack = 0, save=0
   697 ;;
   698 ;; *************** function _main *****************
   699 ;; Defined at:
   700 ;;		line 57 in file "proyectofinal.c"
   701 ;; Parameters:    Size  Location     Type
   702 ;;		None
   703 ;; Auto vars:     Size  Location     Type
   704 ;;		None
   705 ;; Return value:  Size  Location     Type
   706 ;;                  1    wreg      void 
   707 ;; Registers used:
   708 ;;		wreg, fsr2l, fsr2h, status,2, status,0, tblptrl, tblptrh, tblptru, cstack
   709 ;; Tracked objects:
   710 ;;		On entry : 0/0
   711 ;;		On exit  : 0/0
   712 ;;		Unchanged: 0/0
   713 ;; Data sizes:     COMRAM   BANK0   BANK1   BANK2   BANK3   BANK4   BANK5   BANK6   BANK7
   714 ;;      Params:         0       0       0       0       0       0       0       0       0
   715 ;;      Locals:         0       0       0       0       0       0       0       0       0
   716 ;;      Temps:          0       2       0       0       0       0       0       0       0
   717 ;;      Totals:         0       2       0       0       0       0       0       0       0
   718 ;;Total ram usage:        2 bytes
   719 ;; Hardware stack levels required when called: 9
   720 ;; This function calls:
   721 ;;		_BorraLCD
   722 ;;		_ConfiguraLCD
   723 ;;		_DireccionaLCD
   724 ;;		_EscribeLCD_n8
   725 ;;		_InicializaLCD
   726 ;;		_MensajeLCD_Var
   727 ;;		_guardarV
   728 ;;		_sacarV
   729 ;;		_setorigin
   730 ;; This function is called by:
   731 ;;		Startup code after reset
   732 ;; This function uses a non-reentrant model
   733 ;;
   734                           
   735                           	psect	text0
   736  0018C4                     __ptext0:
   737                           	callstack 0
   738  0018C4                     _main:
   739                           	callstack 22
   740  0018C4                     
   741                           ;proyectofinal.c: 58:     ADCON1=0b00001111;
   742  0018C4  0E0F               	movlw	15
   743  0018C6  6EC1               	movwf	193,c	;volatile
   744                           
   745                           ;proyectofinal.c: 59:     LATE=0X00;
   746  0018C8  0E00               	movlw	0
   747  0018CA  6E8D               	movwf	141,c	;volatile
   748                           
   749                           ;proyectofinal.c: 60:     TRISE=0X00;
   750  0018CC  0E00               	movlw	0
   751  0018CE  6E96               	movwf	150,c	;volatile
   752                           
   753                           ;proyectofinal.c: 62:     LATB=0X00;
   754  0018D0  0E00               	movlw	0
   755  0018D2  6E8A               	movwf	138,c	;volatile
   756                           
   757                           ;proyectofinal.c: 63:     TRISB=0b00000111;
   758  0018D4  0E07               	movlw	7
   759  0018D6  6E93               	movwf	147,c	;volatile
   760                           
   761                           ;proyectofinal.c: 64:     OSCCON=0b01110000;
   762  0018D8  0E70               	movlw	112
   763  0018DA  6ED3               	movwf	211,c	;volatile
   764  0018DC                     
   765                           ;proyectofinal.c: 65:     RBPU=0;
   766  0018DC  9EF1               	bcf	4081,7,c	;volatile
   767                           
   768                           ;proyectofinal.c: 66:     TRISD=0;
   769  0018DE  0E00               	movlw	0
   770  0018E0  6E95               	movwf	149,c	;volatile
   771                           
   772                           ;proyectofinal.c: 67:     LATD=0;
   773  0018E2  0E00               	movlw	0
   774  0018E4  6E8C               	movwf	140,c	;volatile
   775  0018E6                     
   776                           ;proyectofinal.c: 68:     _delay((unsigned long)((1000)*(8000000/4000.0)));
   777  0018E6  0E0B               	movlw	11
   778  0018E8  0100               	movlb	0	; () banked
   779  0018EA  6F93               	movwf	(??_main+1)& (0+255),b
   780  0018EC  0E26               	movlw	38
   781  0018EE  6F92               	movwf	??_main& (0+255),b
   782  0018F0  0E5D               	movlw	93
   783  0018F2                     u2837:
   784  0018F2  2EE8               	decfsz	wreg,f,c
   785  0018F4  D7FE               	bra	u2837
   786  0018F6  2F92               	decfsz	??_main& (0+255),f,b
   787  0018F8  D7FC               	bra	u2837
   788  0018FA  2F93               	decfsz	(??_main+1)& (0+255),f,b
   789  0018FC  D7FA               	bra	u2837
   790  0018FE  D000               	nop2	
   791  001900                     
   792                           ;proyectofinal.c: 70:     ConfiguraLCD(4);
   793  001900  0E04               	movlw	4
   794  001902  EC7A  F012         	call	_ConfiguraLCD
   795  001906                     
   796                           ;proyectofinal.c: 71:     InicializaLCD();
   797  001906  EC2D  F00F         	call	_InicializaLCD	;wreg free
   798  00190A                     
   799                           ;proyectofinal.c: 72:     MensajeLCD_Var("Parqueadero");
   800  00190A  0E48               	movlw	low STR_1
   801  00190C  0100               	movlb	0	; () banked
   802  00190E  6F84               	movwf	MensajeLCD_Var@a& (0+255),b
   803  001910  0E08               	movlw	high STR_1
   804  001912  6F85               	movwf	(MensajeLCD_Var@a+1)& (0+255),b
   805  001914  EC3B  F012         	call	_MensajeLCD_Var	;wreg free
   806  001918                     
   807                           ;proyectofinal.c: 75:     RCSTA=0b10010000;
   808  001918  0E90               	movlw	144
   809  00191A  6EAB               	movwf	171,c	;volatile
   810  00191C                     
   811                           ;proyectofinal.c: 76:     TXSTA=0b00100000;
   812  00191C  0E20               	movlw	32
   813  00191E  6EAC               	movwf	172,c	;volatile
   814  001920                     
   815                           ;proyectofinal.c: 78:     BAUDCON=0b00000000;
   816  001920  0E00               	movlw	0
   817  001922  6EB8               	movwf	184,c	;volatile
   818  001924                     
   819                           ;proyectofinal.c: 79:     SPBRG=12;
   820  001924  0E0C               	movlw	12
   821  001926  6EAF               	movwf	175,c	;volatile
   822  001928                     
   823                           ;proyectofinal.c: 82:     T0CON=0b10000100;
   824  001928  0E84               	movlw	132
   825  00192A  6ED5               	movwf	213,c	;volatile
   826  00192C                     
   827                           ;proyectofinal.c: 83:     TMR0=3036;
   828  00192C  0E0B               	movlw	11
   829  00192E  6ED7               	movwf	215,c	;volatile
   830  001930  0EDC               	movlw	220
   831  001932  6ED6               	movwf	214,c	;volatile
   832  001934                     
   833                           ;proyectofinal.c: 84:     TMR0IF=0;
   834  001934  94F2               	bcf	4082,2,c	;volatile
   835  001936                     
   836                           ;proyectofinal.c: 85:     TMR0IE=1;
   837  001936  8AF2               	bsf	4082,5,c	;volatile
   838  001938                     
   839                           ;proyectofinal.c: 89:     RCIP=1;
   840  001938  8A9F               	bsf	3999,5,c	;volatile
   841  00193A                     
   842                           ;proyectofinal.c: 90:     RCIF=0;
   843  00193A  9A9E               	bcf	3998,5,c	;volatile
   844  00193C                     
   845                           ;proyectofinal.c: 91:     RCIE=1;
   846  00193C  8A9D               	bsf	3997,5,c	;volatile
   847  00193E                     
   848                           ;proyectofinal.c: 92:     GIE=1;
   849  00193E  8EF2               	bsf	4082,7,c	;volatile
   850  001940                     
   851                           ;proyectofinal.c: 94:   setorigin();
   852  001940  ECEF  F00D         	call	_setorigin	;wreg free
   853  001944                     
   854                           ;proyectofinal.c: 97:   _delay((unsigned long)((5000)*(8000000/4000.0)));
   855  001944  0E33               	movlw	51
   856  001946  0100               	movlb	0	; () banked
   857  001948  6F93               	movwf	(??_main+1)& (0+255),b
   858  00194A  0EBB               	movlw	187
   859  00194C  6F92               	movwf	??_main& (0+255),b
   860  00194E  0EDF               	movlw	223
   861  001950                     u2847:
   862  001950  2EE8               	decfsz	wreg,f,c
   863  001952  D7FE               	bra	u2847
   864  001954  2F92               	decfsz	??_main& (0+255),f,b
   865  001956  D7FC               	bra	u2847
   866  001958  2F93               	decfsz	(??_main+1)& (0+255),f,b
   867  00195A  D7FA               	bra	u2847
   868  00195C  D000               	nop2	
   869  00195E                     
   870                           ;proyectofinal.c: 98:   BorraLCD();
   871  00195E  ECDC  F012         	call	_BorraLCD	;wreg free
   872  001962                     
   873                           ;proyectofinal.c: 99:   MensajeLCD_Var("listo");
   874  001962  0E82               	movlw	low STR_2
   875  001964  0100               	movlb	0	; () banked
   876  001966  6F84               	movwf	MensajeLCD_Var@a& (0+255),b
   877  001968  0E08               	movlw	high STR_2
   878  00196A  6F85               	movwf	(MensajeLCD_Var@a+1)& (0+255),b
   879  00196C  EC3B  F012         	call	_MensajeLCD_Var	;wreg free
   880  001970                     l3611:
   881                           
   882                           ;proyectofinal.c: 102:       if(estado ==0){
   883  001970  5013               	movf	_estado^0,w,c
   884  001972  1014               	iorwf	(_estado+1)^0,w,c
   885  001974  A4D8               	btfss	status,2,c
   886  001976  EFBF  F00C         	goto	u2801
   887  00197A  EFC1  F00C         	goto	u2800
   888  00197E                     u2801:
   889  00197E  EFCC  F00C         	goto	l3617
   890  001982                     u2800:
   891  001982                     
   892                           ;proyectofinal.c: 103:       MensajeLCD_Var("Set origin");
   893  001982  0E54               	movlw	low STR_3
   894  001984  0100               	movlb	0	; () banked
   895  001986  6F84               	movwf	MensajeLCD_Var@a& (0+255),b
   896  001988  0E08               	movlw	high STR_3
   897  00198A  6F85               	movwf	(MensajeLCD_Var@a+1)& (0+255),b
   898  00198C  EC3B  F012         	call	_MensajeLCD_Var	;wreg free
   899  001990                     
   900                           ;proyectofinal.c: 104:       setorigin();
   901  001990  ECEF  F00D         	call	_setorigin	;wreg free
   902                           
   903                           ;proyectofinal.c: 105:       }
   904  001994  EFB8  F00C         	goto	l3611
   905  001998                     l3617:
   906  001998  0E03               	movlw	3
   907  00199A  1813               	xorwf	_estado^0,w,c
   908  00199C  1014               	iorwf	(_estado+1)^0,w,c
   909  00199E  A4D8               	btfss	status,2,c
   910  0019A0  EFD4  F00C         	goto	u2811
   911  0019A4  EFD6  F00C         	goto	u2810
   912  0019A8                     u2811:
   913  0019A8  EFF2  F00C         	goto	l3629
   914  0019AC                     u2810:
   915  0019AC                     
   916                           ;proyectofinal.c: 107:           BorraLCD();
   917  0019AC  ECDC  F012         	call	_BorraLCD	;wreg free
   918  0019B0                     
   919                           ;proyectofinal.c: 108:           MensajeLCD_Var("guardando");
   920  0019B0  0E69               	movlw	low STR_4
   921  0019B2  0100               	movlb	0	; () banked
   922  0019B4  6F84               	movwf	MensajeLCD_Var@a& (0+255),b
   923  0019B6  0E08               	movlw	high STR_4
   924  0019B8  6F85               	movwf	(MensajeLCD_Var@a+1)& (0+255),b
   925  0019BA  EC3B  F012         	call	_MensajeLCD_Var	;wreg free
   926  0019BE                     
   927                           ;proyectofinal.c: 109:           DireccionaLCD(0xC0);
   928  0019BE  0EC0               	movlw	192
   929  0019C0  ECA6  F012         	call	_DireccionaLCD
   930                           
   931                           ;proyectofinal.c: 110:           MensajeLCD_Var("Carro:");
   932  0019C4  0E7B               	movlw	low STR_5
   933  0019C6  0100               	movlb	0	; () banked
   934  0019C8  6F84               	movwf	MensajeLCD_Var@a& (0+255),b
   935  0019CA  0E08               	movlw	high STR_5
   936  0019CC  6F85               	movwf	(MensajeLCD_Var@a+1)& (0+255),b
   937  0019CE  EC3B  F012         	call	_MensajeLCD_Var	;wreg free
   938  0019D2                     
   939                           ;proyectofinal.c: 111:           EscribeLCD_n8(vactual, 1);
   940  0019D2  0E01               	movlw	1
   941  0019D4  6E39               	movwf	EscribeLCD_n8@b^0,c
   942  0019D6  5019               	movf	_vactual^0,w,c
   943  0019D8  EC32  F00D         	call	_EscribeLCD_n8
   944  0019DC                     
   945                           ;proyectofinal.c: 112:           guardarV();
   946  0019DC  EC12  F00A         	call	_guardarV	;wreg free
   947                           
   948                           ;proyectofinal.c: 113:       }
   949  0019E0  EFB8  F00C         	goto	l3611
   950  0019E4                     l3629:
   951  0019E4  0E04               	movlw	4
   952  0019E6  1813               	xorwf	_estado^0,w,c
   953  0019E8  1014               	iorwf	(_estado+1)^0,w,c
   954  0019EA  A4D8               	btfss	status,2,c
   955  0019EC  EFFA  F00C         	goto	u2821
   956  0019F0  EFFC  F00C         	goto	u2820
   957  0019F4                     u2821:
   958  0019F4  EF18  F00D         	goto	l3641
   959  0019F8                     u2820:
   960  0019F8                     
   961                           ;proyectofinal.c: 115:           BorraLCD();
   962  0019F8  ECDC  F012         	call	_BorraLCD	;wreg free
   963  0019FC                     
   964                           ;proyectofinal.c: 116:           MensajeLCD_Var("sacando");
   965  0019FC  0E73               	movlw	low STR_6
   966  0019FE  0100               	movlb	0	; () banked
   967  001A00  6F84               	movwf	MensajeLCD_Var@a& (0+255),b
   968  001A02  0E08               	movlw	high STR_6
   969  001A04  6F85               	movwf	(MensajeLCD_Var@a+1)& (0+255),b
   970  001A06  EC3B  F012         	call	_MensajeLCD_Var	;wreg free
   971  001A0A                     
   972                           ;proyectofinal.c: 117:           DireccionaLCD(0xC0);
   973  001A0A  0EC0               	movlw	192
   974  001A0C  ECA6  F012         	call	_DireccionaLCD
   975                           
   976                           ;proyectofinal.c: 118:           MensajeLCD_Var("Carro:");
   977  001A10  0E7B               	movlw	low STR_5
   978  001A12  0100               	movlb	0	; () banked
   979  001A14  6F84               	movwf	MensajeLCD_Var@a& (0+255),b
   980  001A16  0E08               	movlw	high STR_5
   981  001A18  6F85               	movwf	(MensajeLCD_Var@a+1)& (0+255),b
   982  001A1A  EC3B  F012         	call	_MensajeLCD_Var	;wreg free
   983  001A1E                     
   984                           ;proyectofinal.c: 119:           EscribeLCD_n8(carro, 1);
   985  001A1E  0E01               	movlw	1
   986  001A20  6E39               	movwf	EscribeLCD_n8@b^0,c
   987  001A22  5017               	movf	_carro^0,w,c
   988  001A24  EC32  F00D         	call	_EscribeLCD_n8
   989  001A28                     
   990                           ;proyectofinal.c: 120:           sacarV();
   991  001A28  EC51  F007         	call	_sacarV	;wreg free
   992                           
   993                           ;proyectofinal.c: 121:       }
   994  001A2C  EFB8  F00C         	goto	l3611
   995  001A30                     l3641:
   996                           
   997                           ;proyectofinal.c: 123:        BorraLCD();
   998  001A30  ECDC  F012         	call	_BorraLCD	;wreg free
   999  001A34                     
  1000                           ;proyectofinal.c: 124:        MensajeLCD_Var("Espera de orden");
  1001  001A34  0E11               	movlw	low STR_8
  1002  001A36  0100               	movlb	0	; () banked
  1003  001A38  6F84               	movwf	MensajeLCD_Var@a& (0+255),b
  1004  001A3A  0E08               	movlw	high STR_8
  1005  001A3C  6F85               	movwf	(MensajeLCD_Var@a+1)& (0+255),b
  1006  001A3E  EC3B  F012         	call	_MensajeLCD_Var	;wreg free
  1007  001A42                     
  1008                           ;proyectofinal.c: 125:        _delay((unsigned long)((1000)*(8000000/4000.0)));
  1009  001A42  0E0B               	movlw	11
  1010  001A44  0100               	movlb	0	; () banked
  1011  001A46  6F93               	movwf	(??_main+1)& (0+255),b
  1012  001A48  0E26               	movlw	38
  1013  001A4A  6F92               	movwf	??_main& (0+255),b
  1014  001A4C  0E5D               	movlw	93
  1015  001A4E                     u2857:
  1016  001A4E  2EE8               	decfsz	wreg,f,c
  1017  001A50  D7FE               	bra	u2857
  1018  001A52  2F92               	decfsz	??_main& (0+255),f,b
  1019  001A54  D7FC               	bra	u2857
  1020  001A56  2F93               	decfsz	(??_main+1)& (0+255),f,b
  1021  001A58  D7FA               	bra	u2857
  1022  001A5A  D000               	nop2	
  1023  001A5C  EFB8  F00C         	goto	l3611
  1024  001A60  EF07  F000         	goto	start
  1025  001A64                     __end_of_main:
  1026                           	callstack 0
  1027                           
  1028 ;; *************** function _setorigin *****************
  1029 ;; Defined at:
  1030 ;;		line 134 in file "proyectofinal.c"
  1031 ;; Parameters:    Size  Location     Type
  1032 ;;		None
  1033 ;; Auto vars:     Size  Location     Type
  1034 ;;  i               2   19[COMRAM] int 
  1035 ;; Return value:  Size  Location     Type
  1036 ;;                  1    wreg      void 
  1037 ;; Registers used:
  1038 ;;		wreg, fsr2l, fsr2h, status,2, status,0
  1039 ;; Tracked objects:
  1040 ;;		On entry : 0/0
  1041 ;;		On exit  : 0/0
  1042 ;;		Unchanged: 0/0
  1043 ;; Data sizes:     COMRAM   BANK0   BANK1   BANK2   BANK3   BANK4   BANK5   BANK6   BANK7
  1044 ;;      Params:         0       0       0       0       0       0       0       0       0
  1045 ;;      Locals:         2       0       0       0       0       0       0       0       0
  1046 ;;      Temps:          1       0       0       0       0       0       0       0       0
  1047 ;;      Totals:         3       0       0       0       0       0       0       0       0
  1048 ;;Total ram usage:        3 bytes
  1049 ;; Hardware stack levels used: 1
  1050 ;; Hardware stack levels required when called: 5
  1051 ;; This function calls:
  1052 ;;		Nothing
  1053 ;; This function is called by:
  1054 ;;		_main
  1055 ;; This function uses a non-reentrant model
  1056 ;;
  1057                           
  1058                           	psect	text1
  1059  001BDE                     __ptext1:
  1060                           	callstack 0
  1061  001BDE                     _setorigin:
  1062                           	callstack 25
  1063  001BDE                     
  1064                           ;proyectofinal.c: 135:   LATE0 = 1;
  1065  001BDE  808D               	bsf	3981,0,c	;volatile
  1066                           
  1067                           ;proyectofinal.c: 136:   LATE1 = 1;
  1068  001BE0  828D               	bsf	3981,1,c	;volatile
  1069                           
  1070                           ;proyectofinal.c: 137:   LATE2 = 0;
  1071  001BE2  948D               	bcf	3981,2,c	;volatile
  1072                           
  1073                           ;proyectofinal.c: 138:   while(RB2==1){
  1074  001BE4  EF0B  F00E         	goto	l1541
  1075  001BE8                     l295:
  1076                           
  1077                           ;proyectofinal.c: 139:         if(RB2 == 1)LATB5=1;
  1078  001BE8  A481               	btfss	3969,2,c	;volatile
  1079  001BEA  EFF9  F00D         	goto	u501
  1080  001BEE  EFFB  F00D         	goto	u500
  1081  001BF2                     u501:
  1082  001BF2  EFFC  F00D         	goto	l1537
  1083  001BF6                     u500:
  1084  001BF6  8A8A               	bsf	3978,5,c	;volatile
  1085  001BF8                     l1537:
  1086                           
  1087                           ;proyectofinal.c: 140:         _delay((unsigned long)((stepDelay)*(8000000/4000.0)));
  1088  001BF8  0E03               	movlw	3
  1089  001BFA  6E33               	movwf	??_setorigin^0,c
  1090  001BFC  0E98               	movlw	152
  1091  001BFE                     u2867:
  1092  001BFE  2EE8               	decfsz	wreg,f,c
  1093  001C00  D7FE               	bra	u2867
  1094  001C02  2E33               	decfsz	??_setorigin^0,f,c
  1095  001C04  D7FC               	bra	u2867
  1096  001C06                     
  1097                           ;proyectofinal.c: 141:         LATB5=0;
  1098  001C06  9A8A               	bcf	3978,5,c	;volatile
  1099                           
  1100                           ;proyectofinal.c: 142:         _delay((unsigned long)((stepDelay)*(8000000/4000.0)));
  1101  001C08  0E03               	movlw	3
  1102  001C0A  6E33               	movwf	??_setorigin^0,c
  1103  001C0C  0E98               	movlw	152
  1104  001C0E                     u2877:
  1105  001C0E  2EE8               	decfsz	wreg,f,c
  1106  001C10  D7FE               	bra	u2877
  1107  001C12  2E33               	decfsz	??_setorigin^0,f,c
  1108  001C14  D7FC               	bra	u2877
  1109  001C16                     l1541:
  1110                           
  1111                           ;proyectofinal.c: 138:   while(RB2==1){
  1112  001C16  B481               	btfsc	3969,2,c	;volatile
  1113  001C18  EF10  F00E         	goto	u511
  1114  001C1C  EF12  F00E         	goto	u510
  1115  001C20                     u511:
  1116  001C20  EFF4  F00D         	goto	l295
  1117  001C24                     u510:
  1118  001C24  EF34  F00E         	goto	l1553
  1119  001C28                     l299:
  1120                           
  1121                           ;proyectofinal.c: 145:     if(RB0 == 1)LATB3=1;
  1122  001C28  A081               	btfss	3969,0,c	;volatile
  1123  001C2A  EF19  F00E         	goto	u521
  1124  001C2E  EF1B  F00E         	goto	u520
  1125  001C32                     u521:
  1126  001C32  EF1C  F00E         	goto	l300
  1127  001C36                     u520:
  1128  001C36  868A               	bsf	3978,3,c	;volatile
  1129  001C38                     l300:
  1130                           
  1131                           ;proyectofinal.c: 146:     if(RB1 == 1)LATB4=1;
  1132  001C38  A281               	btfss	3969,1,c	;volatile
  1133  001C3A  EF21  F00E         	goto	u531
  1134  001C3E  EF23  F00E         	goto	u530
  1135  001C42                     u531:
  1136  001C42  EF24  F00E         	goto	l1547
  1137  001C46                     u530:
  1138  001C46  888A               	bsf	3978,4,c	;volatile
  1139  001C48                     l1547:
  1140                           
  1141                           ;proyectofinal.c: 147:       _delay((unsigned long)((stepDelay)*(8000000/4000.0)));
  1142  001C48  0E03               	movlw	3
  1143  001C4A  6E33               	movwf	??_setorigin^0,c
  1144  001C4C  0E98               	movlw	152
  1145  001C4E                     u2887:
  1146  001C4E  2EE8               	decfsz	wreg,f,c
  1147  001C50  D7FE               	bra	u2887
  1148  001C52  2E33               	decfsz	??_setorigin^0,f,c
  1149  001C54  D7FC               	bra	u2887
  1150  001C56                     
  1151                           ;proyectofinal.c: 148:       LATB3=0;
  1152  001C56  968A               	bcf	3978,3,c	;volatile
  1153  001C58                     
  1154                           ;proyectofinal.c: 149:       LATB4=0;
  1155  001C58  988A               	bcf	3978,4,c	;volatile
  1156                           
  1157                           ;proyectofinal.c: 150:       _delay((unsigned long)((stepDelay)*(8000000/4000.0)));
  1158  001C5A  0E03               	movlw	3
  1159  001C5C  6E33               	movwf	??_setorigin^0,c
  1160  001C5E  0E98               	movlw	152
  1161  001C60                     u2897:
  1162  001C60  2EE8               	decfsz	wreg,f,c
  1163  001C62  D7FE               	bra	u2897
  1164  001C64  2E33               	decfsz	??_setorigin^0,f,c
  1165  001C66  D7FC               	bra	u2897
  1166  001C68                     l1553:
  1167                           
  1168                           ;proyectofinal.c: 144:   while(RB0 == 1 || RB1 == 1){
  1169  001C68  B081               	btfsc	3969,0,c	;volatile
  1170  001C6A  EF39  F00E         	goto	u541
  1171  001C6E  EF3B  F00E         	goto	u540
  1172  001C72                     u541:
  1173  001C72  EF14  F00E         	goto	l299
  1174  001C76                     u540:
  1175  001C76  B281               	btfsc	3969,1,c	;volatile
  1176  001C78  EF40  F00E         	goto	u551
  1177  001C7C  EF42  F00E         	goto	u550
  1178  001C80                     u551:
  1179  001C80  EF14  F00E         	goto	l299
  1180  001C84                     u550:
  1181  001C84                     
  1182                           ;proyectofinal.c: 152:     if(RB0 == 0){
  1183  001C84  B081               	btfsc	3969,0,c	;volatile
  1184  001C86  EF47  F00E         	goto	u561
  1185  001C8A  EF49  F00E         	goto	u560
  1186  001C8E                     u561:
  1187  001C8E  EF4F  F00E         	goto	l1559
  1188  001C92                     u560:
  1189  001C92                     
  1190                           ;proyectofinal.c: 153:         posX = 0;
  1191  001C92  EE20  F009         	lfsr	2,_posX
  1192  001C96  0E07               	movlw	7
  1193  001C98                     u571:
  1194  001C98  6ADE               	clrf	postinc2,c
  1195  001C9A  06E8               	decf	wreg,f,c
  1196  001C9C  E2FD               	bc	u571
  1197  001C9E                     l1559:
  1198                           
  1199                           ;proyectofinal.c: 155:     if(RB1== 0){
  1200  001C9E  B281               	btfsc	3969,1,c	;volatile
  1201  001CA0  EF54  F00E         	goto	u581
  1202  001CA4  EF56  F00E         	goto	u580
  1203  001CA8                     u581:
  1204  001CA8  EF5C  F00E         	goto	l1563
  1205  001CAC                     u580:
  1206  001CAC                     
  1207                           ;proyectofinal.c: 156:         posY = 0;
  1208  001CAC  EE20  F001         	lfsr	2,_posY
  1209  001CB0  0E07               	movlw	7
  1210  001CB2                     u591:
  1211  001CB2  6ADE               	clrf	postinc2,c
  1212  001CB4  06E8               	decf	wreg,f,c
  1213  001CB6  E2FD               	bc	u591
  1214  001CB8                     l1563:
  1215                           
  1216                           ;proyectofinal.c: 158:     LATE2 = 1;
  1217  001CB8  848D               	bsf	3981,2,c	;volatile
  1218  001CBA                     
  1219                           ;proyectofinal.c: 159:    for(int i=0;i<800;i++){
  1220  001CBA  0E00               	movlw	0
  1221  001CBC  6E35               	movwf	(setorigin@i+1)^0,c
  1222  001CBE  0E00               	movlw	0
  1223  001CC0  6E34               	movwf	setorigin@i^0,c
  1224  001CC2                     l305:
  1225                           
  1226                           ;proyectofinal.c: 160:       LATB5 = 1;
  1227  001CC2  8A8A               	bsf	3978,5,c	;volatile
  1228  001CC4                     
  1229                           ;proyectofinal.c: 161:       _delay((unsigned long)((stepDelay)*(8000000/4000.0)));
  1230  001CC4  0E03               	movlw	3
  1231  001CC6  6E33               	movwf	??_setorigin^0,c
  1232  001CC8  0E98               	movlw	152
  1233  001CCA                     u2907:
  1234  001CCA  2EE8               	decfsz	wreg,f,c
  1235  001CCC  D7FE               	bra	u2907
  1236  001CCE  2E33               	decfsz	??_setorigin^0,f,c
  1237  001CD0  D7FC               	bra	u2907
  1238  001CD2                     
  1239                           ;proyectofinal.c: 162:       LATB5 =0;
  1240  001CD2  9A8A               	bcf	3978,5,c	;volatile
  1241                           
  1242                           ;proyectofinal.c: 163:       _delay((unsigned long)((stepDelay)*(8000000/4000.0)));
  1243  001CD4  0E03               	movlw	3
  1244  001CD6  6E33               	movwf	??_setorigin^0,c
  1245  001CD8  0E98               	movlw	152
  1246  001CDA                     u2917:
  1247  001CDA  2EE8               	decfsz	wreg,f,c
  1248  001CDC  D7FE               	bra	u2917
  1249  001CDE  2E33               	decfsz	??_setorigin^0,f,c
  1250  001CE0  D7FC               	bra	u2917
  1251  001CE2                     
  1252                           ;proyectofinal.c: 164:       }
  1253  001CE2  4A34               	infsnz	setorigin@i^0,f,c
  1254  001CE4  2A35               	incf	(setorigin@i+1)^0,f,c
  1255  001CE6  BE35               	btfsc	(setorigin@i+1)^0,7,c
  1256  001CE8  EF7F  F00E         	goto	u601
  1257  001CEC  0E20               	movlw	32
  1258  001CEE  5C34               	subwf	setorigin@i^0,w,c
  1259  001CF0  0E03               	movlw	3
  1260  001CF2  5835               	subwfb	(setorigin@i+1)^0,w,c
  1261  001CF4  A0D8               	btfss	status,0,c
  1262  001CF6  EF7F  F00E         	goto	u601
  1263  001CFA  EF81  F00E         	goto	u600
  1264  001CFE                     u601:
  1265  001CFE  EF61  F00E         	goto	l305
  1266  001D02                     u600:
  1267  001D02                     
  1268                           ;proyectofinal.c: 165:     estadob=0;
  1269  001D02  0E00               	movlw	0
  1270  001D04  6E12               	movwf	(_estadob+1)^0,c
  1271  001D06  0E00               	movlw	0
  1272  001D08  6E11               	movwf	_estadob^0,c
  1273                           
  1274                           ;proyectofinal.c: 166:     estado=1;
  1275  001D0A  0E00               	movlw	0
  1276  001D0C  6E14               	movwf	(_estado+1)^0,c
  1277  001D0E  0E01               	movlw	1
  1278  001D10  6E13               	movwf	_estado^0,c
  1279                           
  1280                           ;proyectofinal.c: 167:     vactual=0;
  1281  001D12  0E00               	movlw	0
  1282  001D14  6E1A               	movwf	(_vactual+1)^0,c
  1283  001D16  0E00               	movlw	0
  1284  001D18  6E19               	movwf	_vactual^0,c
  1285  001D1A  0012               	return		;funcret
  1286  001D1C                     __end_of_setorigin:
  1287                           	callstack 0
  1288                           
  1289 ;; *************** function _sacarV *****************
  1290 ;; Defined at:
  1291 ;;		line 220 in file "proyectofinal.c"
  1292 ;; Parameters:    Size  Location     Type
  1293 ;;		None
  1294 ;; Auto vars:     Size  Location     Type
  1295 ;;		None
  1296 ;; Return value:  Size  Location     Type
  1297 ;;                  1    wreg      void 
  1298 ;; Registers used:
  1299 ;;		wreg, status,2, status,0, cstack
  1300 ;; Tracked objects:
  1301 ;;		On entry : 0/0
  1302 ;;		On exit  : 0/0
  1303 ;;		Unchanged: 0/0
  1304 ;; Data sizes:     COMRAM   BANK0   BANK1   BANK2   BANK3   BANK4   BANK5   BANK6   BANK7
  1305 ;;      Params:         0       0       0       0       0       0       0       0       0
  1306 ;;      Locals:         0       0       0       0       0       0       0       0       0
  1307 ;;      Temps:          0       0       0       0       0       0       0       0       0
  1308 ;;      Totals:         0       0       0       0       0       0       0       0       0
  1309 ;;Total ram usage:        0 bytes
  1310 ;; Hardware stack levels used: 1
  1311 ;; Hardware stack levels required when called: 6
  1312 ;; This function calls:
  1313 ;;		_Transmitir
  1314 ;;		_extender
  1315 ;;		_ira
  1316 ;;		_recoger
  1317 ;; This function is called by:
  1318 ;;		_main
  1319 ;; This function uses a non-reentrant model
  1320 ;;
  1321                           
  1322                           	psect	text2
  1323  000EA2                     __ptext2:
  1324                           	callstack 0
  1325  000EA2                     _sacarV:
  1326                           	callstack 24
  1327  000EA2                     
  1328                           ;proyectofinal.c: 221:     vs=carro;
  1329  000EA2  C017  F04A         	movff	_carro,_vs
  1330  000EA6  C018  F04B         	movff	_carro+1,_vs+1
  1331  000EAA                     
  1332                           ;proyectofinal.c: 222:     if(vactual==0){
  1333  000EAA  5019               	movf	_vactual^0,w,c
  1334  000EAC  101A               	iorwf	(_vactual+1)^0,w,c
  1335  000EAE  A4D8               	btfss	status,2,c
  1336  000EB0  EF5C  F007         	goto	u2661
  1337  000EB4  EF5E  F007         	goto	u2660
  1338  000EB8                     u2661:
  1339  000EB8  EF7F  F008         	goto	l3349
  1340  000EBC                     u2660:
  1341  000EBC                     
  1342                           ;proyectofinal.c: 223:         recoger();
  1343  000EBC  EC13  F011         	call	_recoger	;wreg free
  1344  000EC0                     
  1345                           ;proyectofinal.c: 224:         if(vs==1){
  1346  000EC0  044A               	decf	_vs^0,w,c
  1347  000EC2  104B               	iorwf	(_vs+1)^0,w,c
  1348  000EC4  A4D8               	btfss	status,2,c
  1349  000EC6  EF67  F007         	goto	u2671
  1350  000ECA  EF69  F007         	goto	u2670
  1351  000ECE                     u2671:
  1352  000ECE  EF79  F007         	goto	l3287
  1353  000ED2                     u2670:
  1354  000ED2                     
  1355                           ;proyectofinal.c: 225:             ira(carro1[0],carro1[1]);
  1356  000ED2  C046  F033         	movff	_carro1,ira@desX
  1357  000ED6  C047  F034         	movff	_carro1+1,ira@desX+1
  1358  000EDA  C048  F035         	movff	_carro1+2,ira@desY
  1359  000EDE  C049  F036         	movff	_carro1+3,ira@desY+1
  1360  000EE2  EC45  F004         	call	_ira	;wreg free
  1361  000EE6                     
  1362                           ;proyectofinal.c: 226:             vactual=1;
  1363  000EE6  0E00               	movlw	0
  1364  000EE8  6E1A               	movwf	(_vactual+1)^0,c
  1365  000EEA  0E01               	movlw	1
  1366  000EEC  6E19               	movwf	_vactual^0,c
  1367                           
  1368                           ;proyectofinal.c: 227:         }
  1369  000EEE  EF49  F008         	goto	l3335
  1370  000EF2                     l3287:
  1371  000EF2  0E02               	movlw	2
  1372  000EF4  184A               	xorwf	_vs^0,w,c
  1373  000EF6  104B               	iorwf	(_vs+1)^0,w,c
  1374  000EF8  A4D8               	btfss	status,2,c
  1375  000EFA  EF81  F007         	goto	u2681
  1376  000EFE  EF83  F007         	goto	u2680
  1377  000F02                     u2681:
  1378  000F02  EF93  F007         	goto	l3293
  1379  000F06                     u2680:
  1380  000F06                     
  1381                           ;proyectofinal.c: 229:             ira(carro2[0],carro2[1]);
  1382  000F06  C042  F033         	movff	_carro2,ira@desX
  1383  000F0A  C043  F034         	movff	_carro2+1,ira@desX+1
  1384  000F0E  C044  F035         	movff	_carro2+2,ira@desY
  1385  000F12  C045  F036         	movff	_carro2+3,ira@desY+1
  1386  000F16  EC45  F004         	call	_ira	;wreg free
  1387  000F1A                     
  1388                           ;proyectofinal.c: 230:             vactual=2;
  1389  000F1A  0E00               	movlw	0
  1390  000F1C  6E1A               	movwf	(_vactual+1)^0,c
  1391  000F1E  0E02               	movlw	2
  1392  000F20  6E19               	movwf	_vactual^0,c
  1393                           
  1394                           ;proyectofinal.c: 231:         }
  1395  000F22  EF49  F008         	goto	l3335
  1396  000F26                     l3293:
  1397  000F26  0E03               	movlw	3
  1398  000F28  184A               	xorwf	_vs^0,w,c
  1399  000F2A  104B               	iorwf	(_vs+1)^0,w,c
  1400  000F2C  A4D8               	btfss	status,2,c
  1401  000F2E  EF9B  F007         	goto	u2691
  1402  000F32  EF9D  F007         	goto	u2690
  1403  000F36                     u2691:
  1404  000F36  EFAD  F007         	goto	l3299
  1405  000F3A                     u2690:
  1406  000F3A                     
  1407                           ;proyectofinal.c: 233:             ira(carro3[0],carro3[1]);
  1408  000F3A  C03E  F033         	movff	_carro3,ira@desX
  1409  000F3E  C03F  F034         	movff	_carro3+1,ira@desX+1
  1410  000F42  C040  F035         	movff	_carro3+2,ira@desY
  1411  000F46  C041  F036         	movff	_carro3+3,ira@desY+1
  1412  000F4A  EC45  F004         	call	_ira	;wreg free
  1413  000F4E                     
  1414                           ;proyectofinal.c: 234:             vactual=3;
  1415  000F4E  0E00               	movlw	0
  1416  000F50  6E1A               	movwf	(_vactual+1)^0,c
  1417  000F52  0E03               	movlw	3
  1418  000F54  6E19               	movwf	_vactual^0,c
  1419                           
  1420                           ;proyectofinal.c: 235:         }
  1421  000F56  EF49  F008         	goto	l3335
  1422  000F5A                     l3299:
  1423  000F5A  0E04               	movlw	4
  1424  000F5C  184A               	xorwf	_vs^0,w,c
  1425  000F5E  104B               	iorwf	(_vs+1)^0,w,c
  1426  000F60  A4D8               	btfss	status,2,c
  1427  000F62  EFB5  F007         	goto	u2701
  1428  000F66  EFB7  F007         	goto	u2700
  1429  000F6A                     u2701:
  1430  000F6A  EFC7  F007         	goto	l3305
  1431  000F6E                     u2700:
  1432  000F6E                     
  1433                           ;proyectofinal.c: 237:             ira(carro4[0],carro4[1]);
  1434  000F6E  C03A  F033         	movff	_carro4,ira@desX
  1435  000F72  C03B  F034         	movff	_carro4+1,ira@desX+1
  1436  000F76  C03C  F035         	movff	_carro4+2,ira@desY
  1437  000F7A  C03D  F036         	movff	_carro4+3,ira@desY+1
  1438  000F7E  EC45  F004         	call	_ira	;wreg free
  1439  000F82                     
  1440                           ;proyectofinal.c: 238:             vactual=4;
  1441  000F82  0E00               	movlw	0
  1442  000F84  6E1A               	movwf	(_vactual+1)^0,c
  1443  000F86  0E04               	movlw	4
  1444  000F88  6E19               	movwf	_vactual^0,c
  1445                           
  1446                           ;proyectofinal.c: 239:         }
  1447  000F8A  EF49  F008         	goto	l3335
  1448  000F8E                     l3305:
  1449  000F8E  0E05               	movlw	5
  1450  000F90  184A               	xorwf	_vs^0,w,c
  1451  000F92  104B               	iorwf	(_vs+1)^0,w,c
  1452  000F94  A4D8               	btfss	status,2,c
  1453  000F96  EFCF  F007         	goto	u2711
  1454  000F9A  EFD1  F007         	goto	u2710
  1455  000F9E                     u2711:
  1456  000F9E  EFE1  F007         	goto	l3311
  1457  000FA2                     u2710:
  1458  000FA2                     
  1459                           ;proyectofinal.c: 241:             ira(carro5[0],carro5[1]);
  1460  000FA2  C070  F033         	movff	_carro5,ira@desX
  1461  000FA6  C071  F034         	movff	_carro5+1,ira@desX+1
  1462  000FAA  C072  F035         	movff	_carro5+2,ira@desY
  1463  000FAE  C073  F036         	movff	_carro5+3,ira@desY+1
  1464  000FB2  EC45  F004         	call	_ira	;wreg free
  1465  000FB6                     
  1466                           ;proyectofinal.c: 242:             vactual=5;
  1467  000FB6  0E00               	movlw	0
  1468  000FB8  6E1A               	movwf	(_vactual+1)^0,c
  1469  000FBA  0E05               	movlw	5
  1470  000FBC  6E19               	movwf	_vactual^0,c
  1471                           
  1472                           ;proyectofinal.c: 243:         }else if(vs==6){
  1473  000FBE  EF49  F008         	goto	l3335
  1474  000FC2                     l3311:
  1475  000FC2  0E06               	movlw	6
  1476  000FC4  184A               	xorwf	_vs^0,w,c
  1477  000FC6  104B               	iorwf	(_vs+1)^0,w,c
  1478  000FC8  A4D8               	btfss	status,2,c
  1479  000FCA  EFE9  F007         	goto	u2721
  1480  000FCE  EFEB  F007         	goto	u2720
  1481  000FD2                     u2721:
  1482  000FD2  EFFB  F007         	goto	l3317
  1483  000FD6                     u2720:
  1484  000FD6                     
  1485                           ;proyectofinal.c: 244:             ira(carro6[0],carro6[1]);
  1486  000FD6  C06C  F033         	movff	_carro6,ira@desX
  1487  000FDA  C06D  F034         	movff	_carro6+1,ira@desX+1
  1488  000FDE  C06E  F035         	movff	_carro6+2,ira@desY
  1489  000FE2  C06F  F036         	movff	_carro6+3,ira@desY+1
  1490  000FE6  EC45  F004         	call	_ira	;wreg free
  1491  000FEA                     
  1492                           ;proyectofinal.c: 245:             vactual=6;
  1493  000FEA  0E00               	movlw	0
  1494  000FEC  6E1A               	movwf	(_vactual+1)^0,c
  1495  000FEE  0E06               	movlw	6
  1496  000FF0  6E19               	movwf	_vactual^0,c
  1497                           
  1498                           ;proyectofinal.c: 246:         }else if(vs==7){
  1499  000FF2  EF49  F008         	goto	l3335
  1500  000FF6                     l3317:
  1501  000FF6  0E07               	movlw	7
  1502  000FF8  184A               	xorwf	_vs^0,w,c
  1503  000FFA  104B               	iorwf	(_vs+1)^0,w,c
  1504  000FFC  A4D8               	btfss	status,2,c
  1505  000FFE  EF03  F008         	goto	u2731
  1506  001002  EF05  F008         	goto	u2730
  1507  001006                     u2731:
  1508  001006  EF15  F008         	goto	l3323
  1509  00100A                     u2730:
  1510  00100A                     
  1511                           ;proyectofinal.c: 247:             ira(carro7[0],carro7[1]);
  1512  00100A  C068  F033         	movff	_carro7,ira@desX
  1513  00100E  C069  F034         	movff	_carro7+1,ira@desX+1
  1514  001012  C06A  F035         	movff	_carro7+2,ira@desY
  1515  001016  C06B  F036         	movff	_carro7+3,ira@desY+1
  1516  00101A  EC45  F004         	call	_ira	;wreg free
  1517  00101E                     
  1518                           ;proyectofinal.c: 248:             vactual=7;
  1519  00101E  0E00               	movlw	0
  1520  001020  6E1A               	movwf	(_vactual+1)^0,c
  1521  001022  0E07               	movlw	7
  1522  001024  6E19               	movwf	_vactual^0,c
  1523                           
  1524                           ;proyectofinal.c: 249:         }else if(vs==8){
  1525  001026  EF49  F008         	goto	l3335
  1526  00102A                     l3323:
  1527  00102A  0E08               	movlw	8
  1528  00102C  184A               	xorwf	_vs^0,w,c
  1529  00102E  104B               	iorwf	(_vs+1)^0,w,c
  1530  001030  A4D8               	btfss	status,2,c
  1531  001032  EF1D  F008         	goto	u2741
  1532  001036  EF1F  F008         	goto	u2740
  1533  00103A                     u2741:
  1534  00103A  EF2F  F008         	goto	l3329
  1535  00103E                     u2740:
  1536  00103E                     
  1537                           ;proyectofinal.c: 250:             ira(carro8[0],carro8[1]);
  1538  00103E  C064  F033         	movff	_carro8,ira@desX
  1539  001042  C065  F034         	movff	_carro8+1,ira@desX+1
  1540  001046  C066  F035         	movff	_carro8+2,ira@desY
  1541  00104A  C067  F036         	movff	_carro8+3,ira@desY+1
  1542  00104E  EC45  F004         	call	_ira	;wreg free
  1543  001052                     
  1544                           ;proyectofinal.c: 251:             vactual=8;
  1545  001052  0E00               	movlw	0
  1546  001054  6E1A               	movwf	(_vactual+1)^0,c
  1547  001056  0E08               	movlw	8
  1548  001058  6E19               	movwf	_vactual^0,c
  1549                           
  1550                           ;proyectofinal.c: 252:         }else if(vs==9){
  1551  00105A  EF49  F008         	goto	l3335
  1552  00105E                     l3329:
  1553  00105E  0E09               	movlw	9
  1554  001060  184A               	xorwf	_vs^0,w,c
  1555  001062  104B               	iorwf	(_vs+1)^0,w,c
  1556  001064  A4D8               	btfss	status,2,c
  1557  001066  EF37  F008         	goto	u2751
  1558  00106A  EF39  F008         	goto	u2750
  1559  00106E                     u2751:
  1560  00106E  EF49  F008         	goto	l350
  1561  001072                     u2750:
  1562  001072                     
  1563                           ;proyectofinal.c: 253:             ira(carro9[0],carro9[1]);
  1564  001072  C060  F033         	movff	_carro9,ira@desX
  1565  001076  C061  F034         	movff	_carro9+1,ira@desX+1
  1566  00107A  C062  F035         	movff	_carro9+2,ira@desY
  1567  00107E  C063  F036         	movff	_carro9+3,ira@desY+1
  1568  001082  EC45  F004         	call	_ira	;wreg free
  1569  001086                     
  1570                           ;proyectofinal.c: 254:             vactual=9;
  1571  001086  0E00               	movlw	0
  1572  001088  6E1A               	movwf	(_vactual+1)^0,c
  1573  00108A  0E09               	movlw	9
  1574  00108C  6E19               	movwf	_vactual^0,c
  1575  00108E  EF49  F008         	goto	l3335
  1576  001092                     l350:
  1577  001092                     l3335:
  1578                           
  1579                           ;proyectofinal.c: 256:         ira(posX,posY-50);
  1580  001092  C009  F033         	movff	_posX,ira@desX
  1581  001096  C00A  F034         	movff	_posX+1,ira@desX+1
  1582  00109A  0ECE               	movlw	206
  1583  00109C  2401               	addwf	_posY^0,w,c
  1584  00109E  6E35               	movwf	ira@desY^0,c
  1585  0010A0  0EFF               	movlw	255
  1586  0010A2  2002               	addwfc	(_posY+1)^0,w,c
  1587  0010A4  6E36               	movwf	(ira@desY+1)^0,c
  1588  0010A6  EC45  F004         	call	_ira	;wreg free
  1589  0010AA                     
  1590                           ;proyectofinal.c: 257:         extender();
  1591  0010AA  EC46  F011         	call	_extender	;wreg free
  1592  0010AE                     
  1593                           ;proyectofinal.c: 258:         ira(posX,posY+50);
  1594  0010AE  C009  F033         	movff	_posX,ira@desX
  1595  0010B2  C00A  F034         	movff	_posX+1,ira@desX+1
  1596  0010B6  0E32               	movlw	50
  1597  0010B8  2401               	addwf	_posY^0,w,c
  1598  0010BA  6E35               	movwf	ira@desY^0,c
  1599  0010BC  0E00               	movlw	0
  1600  0010BE  2002               	addwfc	(_posY+1)^0,w,c
  1601  0010C0  6E36               	movwf	(ira@desY+1)^0,c
  1602  0010C2  EC45  F004         	call	_ira	;wreg free
  1603  0010C6                     
  1604                           ;proyectofinal.c: 259:         recoger();
  1605  0010C6  EC13  F011         	call	_recoger	;wreg free
  1606  0010CA                     
  1607                           ;proyectofinal.c: 260:         ira(columna2,piso3);
  1608  0010CA  0E04               	movlw	4
  1609  0010CC  6E34               	movwf	(ira@desX+1)^0,c
  1610  0010CE  0E4C               	movlw	76
  1611  0010D0  6E33               	movwf	ira@desX^0,c
  1612  0010D2  0E07               	movlw	7
  1613  0010D4  6E36               	movwf	(ira@desY+1)^0,c
  1614  0010D6  0ED0               	movlw	208
  1615  0010D8  6E35               	movwf	ira@desY^0,c
  1616  0010DA  EC45  F004         	call	_ira	;wreg free
  1617  0010DE                     
  1618                           ;proyectofinal.c: 261:         ira(columna2,piso4);
  1619  0010DE  0E04               	movlw	4
  1620  0010E0  6E34               	movwf	(ira@desX+1)^0,c
  1621  0010E2  0E4C               	movlw	76
  1622  0010E4  6E33               	movwf	ira@desX^0,c
  1623  0010E6  0E09               	movlw	9
  1624  0010E8  6E36               	movwf	(ira@desY+1)^0,c
  1625  0010EA  0E38               	movlw	56
  1626  0010EC  6E35               	movwf	ira@desY^0,c
  1627  0010EE  EC45  F004         	call	_ira	;wreg free
  1628  0010F2                     
  1629                           ;proyectofinal.c: 262:         vs=0;
  1630  0010F2  0E00               	movlw	0
  1631  0010F4  6E4B               	movwf	(_vs+1)^0,c
  1632  0010F6  0E00               	movlw	0
  1633  0010F8  6E4A               	movwf	_vs^0,c
  1634                           
  1635                           ;proyectofinal.c: 263:       }
  1636  0010FA  EFB5  F008         	goto	l3351
  1637  0010FE                     l3349:
  1638                           
  1639                           ;proyectofinal.c: 265:         Transmitir('E');
  1640  0010FE  0E45               	movlw	69
  1641  001100  EC90  F012         	call	_Transmitir
  1642                           
  1643                           ;proyectofinal.c: 266:         Transmitir('R');
  1644  001104  0E52               	movlw	82
  1645  001106  EC90  F012         	call	_Transmitir
  1646                           
  1647                           ;proyectofinal.c: 267:         Transmitir('R');
  1648  00110A  0E52               	movlw	82
  1649  00110C  EC90  F012         	call	_Transmitir
  1650                           
  1651                           ;proyectofinal.c: 268:         Transmitir('O');
  1652  001110  0E4F               	movlw	79
  1653  001112  EC90  F012         	call	_Transmitir
  1654                           
  1655                           ;proyectofinal.c: 269:         Transmitir('R');
  1656  001116  0E52               	movlw	82
  1657  001118  EC90  F012         	call	_Transmitir
  1658                           
  1659                           ;proyectofinal.c: 270:         Transmitir(' ');
  1660  00111C  0E20               	movlw	32
  1661  00111E  EC90  F012         	call	_Transmitir
  1662                           
  1663                           ;proyectofinal.c: 271:         Transmitir('G');
  1664  001122  0E47               	movlw	71
  1665  001124  EC90  F012         	call	_Transmitir
  1666                           
  1667                           ;proyectofinal.c: 272:         Transmitir('U');
  1668  001128  0E55               	movlw	85
  1669  00112A  EC90  F012         	call	_Transmitir
  1670                           
  1671                           ;proyectofinal.c: 273:         Transmitir('A');
  1672  00112E  0E41               	movlw	65
  1673  001130  EC90  F012         	call	_Transmitir
  1674                           
  1675                           ;proyectofinal.c: 274:         Transmitir('R');
  1676  001134  0E52               	movlw	82
  1677  001136  EC90  F012         	call	_Transmitir
  1678                           
  1679                           ;proyectofinal.c: 275:         Transmitir('D');
  1680  00113A  0E44               	movlw	68
  1681  00113C  EC90  F012         	call	_Transmitir
  1682                           
  1683                           ;proyectofinal.c: 276:         Transmitir('E');
  1684  001140  0E45               	movlw	69
  1685  001142  EC90  F012         	call	_Transmitir
  1686                           
  1687                           ;proyectofinal.c: 277:         Transmitir(' ');
  1688  001146  0E20               	movlw	32
  1689  001148  EC90  F012         	call	_Transmitir
  1690                           
  1691                           ;proyectofinal.c: 278:         Transmitir('A');
  1692  00114C  0E41               	movlw	65
  1693  00114E  EC90  F012         	call	_Transmitir
  1694                           
  1695                           ;proyectofinal.c: 279:         Transmitir('N');
  1696  001152  0E4E               	movlw	78
  1697  001154  EC90  F012         	call	_Transmitir
  1698                           
  1699                           ;proyectofinal.c: 280:         Transmitir('T');
  1700  001158  0E54               	movlw	84
  1701  00115A  EC90  F012         	call	_Transmitir
  1702                           
  1703                           ;proyectofinal.c: 281:         Transmitir('E');
  1704  00115E  0E45               	movlw	69
  1705  001160  EC90  F012         	call	_Transmitir
  1706                           
  1707                           ;proyectofinal.c: 282:         Transmitir('S');
  1708  001164  0E53               	movlw	83
  1709  001166  EC90  F012         	call	_Transmitir
  1710  00116A                     l3351:
  1711                           
  1712                           ;proyectofinal.c: 284:     estado=1;
  1713  00116A  0E00               	movlw	0
  1714  00116C  6E14               	movwf	(_estado+1)^0,c
  1715  00116E  0E01               	movlw	1
  1716  001170  6E13               	movwf	_estado^0,c
  1717  001172  0012               	return		;funcret
  1718  001174                     __end_of_sacarV:
  1719                           	callstack 0
  1720                           
  1721 ;; *************** function _guardarV *****************
  1722 ;; Defined at:
  1723 ;;		line 286 in file "proyectofinal.c"
  1724 ;; Parameters:    Size  Location     Type
  1725 ;;		None
  1726 ;; Auto vars:     Size  Location     Type
  1727 ;;		None
  1728 ;; Return value:  Size  Location     Type
  1729 ;;                  1    wreg      void 
  1730 ;; Registers used:
  1731 ;;		wreg, status,2, status,0, cstack
  1732 ;; Tracked objects:
  1733 ;;		On entry : 0/0
  1734 ;;		On exit  : 0/0
  1735 ;;		Unchanged: 0/0
  1736 ;; Data sizes:     COMRAM   BANK0   BANK1   BANK2   BANK3   BANK4   BANK5   BANK6   BANK7
  1737 ;;      Params:         0       0       0       0       0       0       0       0       0
  1738 ;;      Locals:         0       0       0       0       0       0       0       0       0
  1739 ;;      Temps:          0       0       0       0       0       0       0       0       0
  1740 ;;      Totals:         0       0       0       0       0       0       0       0       0
  1741 ;;Total ram usage:        0 bytes
  1742 ;; Hardware stack levels used: 1
  1743 ;; Hardware stack levels required when called: 6
  1744 ;; This function calls:
  1745 ;;		_Transmitir
  1746 ;;		_extender
  1747 ;;		_ira
  1748 ;;		_recoger
  1749 ;; This function is called by:
  1750 ;;		_main
  1751 ;; This function uses a non-reentrant model
  1752 ;;
  1753                           
  1754                           	psect	text3
  1755  001424                     __ptext3:
  1756                           	callstack 0
  1757  001424                     _guardarV:
  1758                           	callstack 24
  1759  001424                     
  1760                           ;proyectofinal.c: 287:     if(vactual!=0){
  1761  001424  5019               	movf	_vactual^0,w,c
  1762  001426  101A               	iorwf	(_vactual+1)^0,w,c
  1763  001428  B4D8               	btfsc	status,2,c
  1764  00142A  EF19  F00A         	goto	u2561
  1765  00142E  EF1B  F00A         	goto	u2560
  1766  001432                     u2561:
  1767  001432  EF02  F00B         	goto	l3271
  1768  001436                     u2560:
  1769  001436                     
  1770                           ;proyectofinal.c: 288:         ira(posX,posY-100);
  1771  001436  C009  F033         	movff	_posX,ira@desX
  1772  00143A  C00A  F034         	movff	_posX+1,ira@desX+1
  1773  00143E  0E9C               	movlw	156
  1774  001440  2401               	addwf	_posY^0,w,c
  1775  001442  6E35               	movwf	ira@desY^0,c
  1776  001444  0EFF               	movlw	255
  1777  001446  2002               	addwfc	(_posY+1)^0,w,c
  1778  001448  6E36               	movwf	(ira@desY+1)^0,c
  1779  00144A  EC45  F004         	call	_ira	;wreg free
  1780  00144E                     
  1781                           ;proyectofinal.c: 289:         if(vactual==1){
  1782  00144E  0419               	decf	_vactual^0,w,c
  1783  001450  101A               	iorwf	(_vactual+1)^0,w,c
  1784  001452  A4D8               	btfss	status,2,c
  1785  001454  EF2E  F00A         	goto	u2571
  1786  001458  EF30  F00A         	goto	u2570
  1787  00145C                     u2571:
  1788  00145C  EF3C  F00A         	goto	l3237
  1789  001460                     u2570:
  1790  001460                     
  1791                           ;proyectofinal.c: 290:             ira(carro1[0],carro1[1]);
  1792  001460  C046  F033         	movff	_carro1,ira@desX
  1793  001464  C047  F034         	movff	_carro1+1,ira@desX+1
  1794  001468  C048  F035         	movff	_carro1+2,ira@desY
  1795  00146C  C049  F036         	movff	_carro1+3,ira@desY+1
  1796  001470  EC45  F004         	call	_ira	;wreg free
  1797                           
  1798                           ;proyectofinal.c: 291:         }
  1799  001474  EFEC  F00A         	goto	l362
  1800  001478                     l3237:
  1801  001478  0E02               	movlw	2
  1802  00147A  1819               	xorwf	_vactual^0,w,c
  1803  00147C  101A               	iorwf	(_vactual+1)^0,w,c
  1804  00147E  A4D8               	btfss	status,2,c
  1805  001480  EF44  F00A         	goto	u2581
  1806  001484  EF46  F00A         	goto	u2580
  1807  001488                     u2581:
  1808  001488  EF52  F00A         	goto	l3241
  1809  00148C                     u2580:
  1810  00148C                     
  1811                           ;proyectofinal.c: 293:             ira(carro2[0],carro2[1]);
  1812  00148C  C042  F033         	movff	_carro2,ira@desX
  1813  001490  C043  F034         	movff	_carro2+1,ira@desX+1
  1814  001494  C044  F035         	movff	_carro2+2,ira@desY
  1815  001498  C045  F036         	movff	_carro2+3,ira@desY+1
  1816  00149C  EC45  F004         	call	_ira	;wreg free
  1817                           
  1818                           ;proyectofinal.c: 294:         }
  1819  0014A0  EFEC  F00A         	goto	l362
  1820  0014A4                     l3241:
  1821  0014A4  0E03               	movlw	3
  1822  0014A6  1819               	xorwf	_vactual^0,w,c
  1823  0014A8  101A               	iorwf	(_vactual+1)^0,w,c
  1824  0014AA  A4D8               	btfss	status,2,c
  1825  0014AC  EF5A  F00A         	goto	u2591
  1826  0014B0  EF5C  F00A         	goto	u2590
  1827  0014B4                     u2591:
  1828  0014B4  EF68  F00A         	goto	l3245
  1829  0014B8                     u2590:
  1830  0014B8                     
  1831                           ;proyectofinal.c: 296:             ira(carro3[0],carro3[1]);
  1832  0014B8  C03E  F033         	movff	_carro3,ira@desX
  1833  0014BC  C03F  F034         	movff	_carro3+1,ira@desX+1
  1834  0014C0  C040  F035         	movff	_carro3+2,ira@desY
  1835  0014C4  C041  F036         	movff	_carro3+3,ira@desY+1
  1836  0014C8  EC45  F004         	call	_ira	;wreg free
  1837                           
  1838                           ;proyectofinal.c: 297:         }
  1839  0014CC  EFEC  F00A         	goto	l362
  1840  0014D0                     l3245:
  1841  0014D0  0E04               	movlw	4
  1842  0014D2  1819               	xorwf	_vactual^0,w,c
  1843  0014D4  101A               	iorwf	(_vactual+1)^0,w,c
  1844  0014D6  A4D8               	btfss	status,2,c
  1845  0014D8  EF70  F00A         	goto	u2601
  1846  0014DC  EF72  F00A         	goto	u2600
  1847  0014E0                     u2601:
  1848  0014E0  EF7E  F00A         	goto	l3249
  1849  0014E4                     u2600:
  1850  0014E4                     
  1851                           ;proyectofinal.c: 299:             ira(carro4[0],carro4[1]);
  1852  0014E4  C03A  F033         	movff	_carro4,ira@desX
  1853  0014E8  C03B  F034         	movff	_carro4+1,ira@desX+1
  1854  0014EC  C03C  F035         	movff	_carro4+2,ira@desY
  1855  0014F0  C03D  F036         	movff	_carro4+3,ira@desY+1
  1856  0014F4  EC45  F004         	call	_ira	;wreg free
  1857                           
  1858                           ;proyectofinal.c: 300:         }
  1859  0014F8  EFEC  F00A         	goto	l362
  1860  0014FC                     l3249:
  1861  0014FC  0E05               	movlw	5
  1862  0014FE  1819               	xorwf	_vactual^0,w,c
  1863  001500  101A               	iorwf	(_vactual+1)^0,w,c
  1864  001502  A4D8               	btfss	status,2,c
  1865  001504  EF86  F00A         	goto	u2611
  1866  001508  EF88  F00A         	goto	u2610
  1867  00150C                     u2611:
  1868  00150C  EF94  F00A         	goto	l3253
  1869  001510                     u2610:
  1870  001510                     
  1871                           ;proyectofinal.c: 302:             ira(carro5[0],carro5[1]);
  1872  001510  C070  F033         	movff	_carro5,ira@desX
  1873  001514  C071  F034         	movff	_carro5+1,ira@desX+1
  1874  001518  C072  F035         	movff	_carro5+2,ira@desY
  1875  00151C  C073  F036         	movff	_carro5+3,ira@desY+1
  1876  001520  EC45  F004         	call	_ira	;wreg free
  1877                           
  1878                           ;proyectofinal.c: 303:         }else if(vactual==6){
  1879  001524  EFEC  F00A         	goto	l362
  1880  001528                     l3253:
  1881  001528  0E06               	movlw	6
  1882  00152A  1819               	xorwf	_vactual^0,w,c
  1883  00152C  101A               	iorwf	(_vactual+1)^0,w,c
  1884  00152E  A4D8               	btfss	status,2,c
  1885  001530  EF9C  F00A         	goto	u2621
  1886  001534  EF9E  F00A         	goto	u2620
  1887  001538                     u2621:
  1888  001538  EFAA  F00A         	goto	l3257
  1889  00153C                     u2620:
  1890  00153C                     
  1891                           ;proyectofinal.c: 304:             ira(carro6[0],carro6[1]);
  1892  00153C  C06C  F033         	movff	_carro6,ira@desX
  1893  001540  C06D  F034         	movff	_carro6+1,ira@desX+1
  1894  001544  C06E  F035         	movff	_carro6+2,ira@desY
  1895  001548  C06F  F036         	movff	_carro6+3,ira@desY+1
  1896  00154C  EC45  F004         	call	_ira	;wreg free
  1897                           
  1898                           ;proyectofinal.c: 305:         }else if(vactual==7){
  1899  001550  EFEC  F00A         	goto	l362
  1900  001554                     l3257:
  1901  001554  0E07               	movlw	7
  1902  001556  1819               	xorwf	_vactual^0,w,c
  1903  001558  101A               	iorwf	(_vactual+1)^0,w,c
  1904  00155A  A4D8               	btfss	status,2,c
  1905  00155C  EFB2  F00A         	goto	u2631
  1906  001560  EFB4  F00A         	goto	u2630
  1907  001564                     u2631:
  1908  001564  EFC0  F00A         	goto	l3261
  1909  001568                     u2630:
  1910  001568                     
  1911                           ;proyectofinal.c: 306:             ira(carro7[0],carro7[1]);
  1912  001568  C068  F033         	movff	_carro7,ira@desX
  1913  00156C  C069  F034         	movff	_carro7+1,ira@desX+1
  1914  001570  C06A  F035         	movff	_carro7+2,ira@desY
  1915  001574  C06B  F036         	movff	_carro7+3,ira@desY+1
  1916  001578  EC45  F004         	call	_ira	;wreg free
  1917                           
  1918                           ;proyectofinal.c: 307:         }else if(vactual==8){
  1919  00157C  EFEC  F00A         	goto	l362
  1920  001580                     l3261:
  1921  001580  0E08               	movlw	8
  1922  001582  1819               	xorwf	_vactual^0,w,c
  1923  001584  101A               	iorwf	(_vactual+1)^0,w,c
  1924  001586  A4D8               	btfss	status,2,c
  1925  001588  EFC8  F00A         	goto	u2641
  1926  00158C  EFCA  F00A         	goto	u2640
  1927  001590                     u2641:
  1928  001590  EFD6  F00A         	goto	l3265
  1929  001594                     u2640:
  1930  001594                     
  1931                           ;proyectofinal.c: 308:             ira(carro8[0],carro8[1]);
  1932  001594  C064  F033         	movff	_carro8,ira@desX
  1933  001598  C065  F034         	movff	_carro8+1,ira@desX+1
  1934  00159C  C066  F035         	movff	_carro8+2,ira@desY
  1935  0015A0  C067  F036         	movff	_carro8+3,ira@desY+1
  1936  0015A4  EC45  F004         	call	_ira	;wreg free
  1937                           
  1938                           ;proyectofinal.c: 309:         }else if(vactual==9){
  1939  0015A8  EFEC  F00A         	goto	l362
  1940  0015AC                     l3265:
  1941  0015AC  0E09               	movlw	9
  1942  0015AE  1819               	xorwf	_vactual^0,w,c
  1943  0015B0  101A               	iorwf	(_vactual+1)^0,w,c
  1944  0015B2  A4D8               	btfss	status,2,c
  1945  0015B4  EFDE  F00A         	goto	u2651
  1946  0015B8  EFE0  F00A         	goto	u2650
  1947  0015BC                     u2651:
  1948  0015BC  EFEC  F00A         	goto	l372
  1949  0015C0                     u2650:
  1950  0015C0                     
  1951                           ;proyectofinal.c: 310:             ira(carro9[0],carro9[1]);
  1952  0015C0  C060  F033         	movff	_carro9,ira@desX
  1953  0015C4  C061  F034         	movff	_carro9+1,ira@desX+1
  1954  0015C8  C062  F035         	movff	_carro9+2,ira@desY
  1955  0015CC  C063  F036         	movff	_carro9+3,ira@desY+1
  1956  0015D0  EC45  F004         	call	_ira	;wreg free
  1957  0015D4  EFEC  F00A         	goto	l362
  1958  0015D8                     l372:
  1959  0015D8                     l362:
  1960                           
  1961                           ;proyectofinal.c: 312:         extender();
  1962  0015D8  EC46  F011         	call	_extender	;wreg free
  1963                           
  1964                           ;proyectofinal.c: 313:         ira(posX,posY-50);
  1965  0015DC  C009  F033         	movff	_posX,ira@desX
  1966  0015E0  C00A  F034         	movff	_posX+1,ira@desX+1
  1967  0015E4  0ECE               	movlw	206
  1968  0015E6  2401               	addwf	_posY^0,w,c
  1969  0015E8  6E35               	movwf	ira@desY^0,c
  1970  0015EA  0EFF               	movlw	255
  1971  0015EC  2002               	addwfc	(_posY+1)^0,w,c
  1972  0015EE  6E36               	movwf	(ira@desY+1)^0,c
  1973  0015F0  EC45  F004         	call	_ira	;wreg free
  1974                           
  1975                           ;proyectofinal.c: 314:         recoger();
  1976  0015F4  EC13  F011         	call	_recoger	;wreg free
  1977  0015F8                     
  1978                           ;proyectofinal.c: 315:         vactual=0;
  1979  0015F8  0E00               	movlw	0
  1980  0015FA  6E1A               	movwf	(_vactual+1)^0,c
  1981  0015FC  0E00               	movlw	0
  1982  0015FE  6E19               	movwf	_vactual^0,c
  1983                           
  1984                           ;proyectofinal.c: 316:       }
  1985  001600  EF35  F00B         	goto	l3273
  1986  001604                     l3271:
  1987                           
  1988                           ;proyectofinal.c: 318:         Transmitir('E');
  1989  001604  0E45               	movlw	69
  1990  001606  EC90  F012         	call	_Transmitir
  1991                           
  1992                           ;proyectofinal.c: 319:         Transmitir('R');
  1993  00160A  0E52               	movlw	82
  1994  00160C  EC90  F012         	call	_Transmitir
  1995                           
  1996                           ;proyectofinal.c: 320:         Transmitir('R');
  1997  001610  0E52               	movlw	82
  1998  001612  EC90  F012         	call	_Transmitir
  1999                           
  2000                           ;proyectofinal.c: 321:         Transmitir('O');
  2001  001616  0E4F               	movlw	79
  2002  001618  EC90  F012         	call	_Transmitir
  2003                           
  2004                           ;proyectofinal.c: 322:         Transmitir('R');
  2005  00161C  0E52               	movlw	82
  2006  00161E  EC90  F012         	call	_Transmitir
  2007                           
  2008                           ;proyectofinal.c: 323:         Transmitir(' ');
  2009  001622  0E20               	movlw	32
  2010  001624  EC90  F012         	call	_Transmitir
  2011                           
  2012                           ;proyectofinal.c: 324:         Transmitir('S');
  2013  001628  0E53               	movlw	83
  2014  00162A  EC90  F012         	call	_Transmitir
  2015                           
  2016                           ;proyectofinal.c: 325:         Transmitir('A');
  2017  00162E  0E41               	movlw	65
  2018  001630  EC90  F012         	call	_Transmitir
  2019                           
  2020                           ;proyectofinal.c: 326:         Transmitir('Q');
  2021  001634  0E51               	movlw	81
  2022  001636  EC90  F012         	call	_Transmitir
  2023                           
  2024                           ;proyectofinal.c: 327:         Transmitir('U');
  2025  00163A  0E55               	movlw	85
  2026  00163C  EC90  F012         	call	_Transmitir
  2027                           
  2028                           ;proyectofinal.c: 328:         Transmitir('E');
  2029  001640  0E45               	movlw	69
  2030  001642  EC90  F012         	call	_Transmitir
  2031                           
  2032                           ;proyectofinal.c: 329:         Transmitir(' ');
  2033  001646  0E20               	movlw	32
  2034  001648  EC90  F012         	call	_Transmitir
  2035                           
  2036                           ;proyectofinal.c: 330:         Transmitir('A');
  2037  00164C  0E41               	movlw	65
  2038  00164E  EC90  F012         	call	_Transmitir
  2039                           
  2040                           ;proyectofinal.c: 331:         Transmitir('N');
  2041  001652  0E4E               	movlw	78
  2042  001654  EC90  F012         	call	_Transmitir
  2043                           
  2044                           ;proyectofinal.c: 332:         Transmitir('T');
  2045  001658  0E54               	movlw	84
  2046  00165A  EC90  F012         	call	_Transmitir
  2047                           
  2048                           ;proyectofinal.c: 333:         Transmitir('E');
  2049  00165E  0E45               	movlw	69
  2050  001660  EC90  F012         	call	_Transmitir
  2051                           
  2052                           ;proyectofinal.c: 334:         Transmitir('S');
  2053  001664  0E53               	movlw	83
  2054  001666  EC90  F012         	call	_Transmitir
  2055  00166A                     l3273:
  2056                           
  2057                           ;proyectofinal.c: 336:     estado=1;
  2058  00166A  0E00               	movlw	0
  2059  00166C  6E14               	movwf	(_estado+1)^0,c
  2060  00166E  0E01               	movlw	1
  2061  001670  6E13               	movwf	_estado^0,c
  2062  001672  0012               	return		;funcret
  2063  001674                     __end_of_guardarV:
  2064                           	callstack 0
  2065                           
  2066 ;; *************** function _recoger *****************
  2067 ;; Defined at:
  2068 ;;		line 207 in file "proyectofinal.c"
  2069 ;; Parameters:    Size  Location     Type
  2070 ;;		None
  2071 ;; Auto vars:     Size  Location     Type
  2072 ;;  i               2   19[COMRAM] int 
  2073 ;; Return value:  Size  Location     Type
  2074 ;;                  1    wreg      void 
  2075 ;; Registers used:
  2076 ;;		wreg, status,2, status,0
  2077 ;; Tracked objects:
  2078 ;;		On entry : 0/0
  2079 ;;		On exit  : 0/0
  2080 ;;		Unchanged: 0/0
  2081 ;; Data sizes:     COMRAM   BANK0   BANK1   BANK2   BANK3   BANK4   BANK5   BANK6   BANK7
  2082 ;;      Params:         0       0       0       0       0       0       0       0       0
  2083 ;;      Locals:         2       0       0       0       0       0       0       0       0
  2084 ;;      Temps:          1       0       0       0       0       0       0       0       0
  2085 ;;      Totals:         3       0       0       0       0       0       0       0       0
  2086 ;;Total ram usage:        3 bytes
  2087 ;; Hardware stack levels used: 1
  2088 ;; Hardware stack levels required when called: 5
  2089 ;; This function calls:
  2090 ;;		Nothing
  2091 ;; This function is called by:
  2092 ;;		_sacarV
  2093 ;;		_guardarV
  2094 ;; This function uses a non-reentrant model
  2095 ;;
  2096                           
  2097                           	psect	text4
  2098  002226                     __ptext4:
  2099                           	callstack 0
  2100  002226                     _recoger:
  2101                           	callstack 24
  2102  002226                     
  2103                           ;proyectofinal.c: 208:   LATE2 = 0;
  2104  002226  948D               	bcf	3981,2,c	;volatile
  2105  002228                     
  2106                           ;proyectofinal.c: 209:   if(estadob==1){
  2107  002228  0411               	decf	_estadob^0,w,c
  2108  00222A  1012               	iorwf	(_estadob+1)^0,w,c
  2109  00222C  A4D8               	btfss	status,2,c
  2110  00222E  EF1B  F011         	goto	u1451
  2111  002232  EF1D  F011         	goto	u1450
  2112  002236                     u1451:
  2113  002236  EF41  F011         	goto	l2341
  2114  00223A                     u1450:
  2115  00223A                     
  2116                           ;proyectofinal.c: 210:    for(int i=0;i<1500;i++){
  2117  00223A  0E00               	movlw	0
  2118  00223C  6E35               	movwf	(recoger@i+1)^0,c
  2119  00223E  0E00               	movlw	0
  2120  002240  6E34               	movwf	recoger@i^0,c
  2121  002242                     l333:
  2122                           
  2123                           ;proyectofinal.c: 211:       LATB5 = 1;
  2124  002242  8A8A               	bsf	3978,5,c	;volatile
  2125  002244                     
  2126                           ;proyectofinal.c: 212:       _delay((unsigned long)((stepDelay)*(8000000/4000.0)));
  2127  002244  0E03               	movlw	3
  2128  002246  6E33               	movwf	??_recoger^0,c
  2129  002248  0E98               	movlw	152
  2130  00224A                     u2927:
  2131  00224A  2EE8               	decfsz	wreg,f,c
  2132  00224C  D7FE               	bra	u2927
  2133  00224E  2E33               	decfsz	??_recoger^0,f,c
  2134  002250  D7FC               	bra	u2927
  2135  002252                     
  2136                           ;proyectofinal.c: 213:       LATB5 =0;
  2137  002252  9A8A               	bcf	3978,5,c	;volatile
  2138                           
  2139                           ;proyectofinal.c: 214:       _delay((unsigned long)((stepDelay)*(8000000/4000.0)));
  2140  002254  0E03               	movlw	3
  2141  002256  6E33               	movwf	??_recoger^0,c
  2142  002258  0E98               	movlw	152
  2143  00225A                     u2937:
  2144  00225A  2EE8               	decfsz	wreg,f,c
  2145  00225C  D7FE               	bra	u2937
  2146  00225E  2E33               	decfsz	??_recoger^0,f,c
  2147  002260  D7FC               	bra	u2937
  2148  002262                     
  2149                           ;proyectofinal.c: 215:       }
  2150  002262  4A34               	infsnz	recoger@i^0,f,c
  2151  002264  2A35               	incf	(recoger@i+1)^0,f,c
  2152  002266  BE35               	btfsc	(recoger@i+1)^0,7,c
  2153  002268  EF3F  F011         	goto	u1461
  2154  00226C  0EDC               	movlw	220
  2155  00226E  5C34               	subwf	recoger@i^0,w,c
  2156  002270  0E05               	movlw	5
  2157  002272  5835               	subwfb	(recoger@i+1)^0,w,c
  2158  002274  A0D8               	btfss	status,0,c
  2159  002276  EF3F  F011         	goto	u1461
  2160  00227A  EF41  F011         	goto	u1460
  2161  00227E                     u1461:
  2162  00227E  EF21  F011         	goto	l333
  2163  002282                     u1460:
  2164  002282                     l2341:
  2165                           
  2166                           ;proyectofinal.c: 217:   estadob=0;
  2167  002282  0E00               	movlw	0
  2168  002284  6E12               	movwf	(_estadob+1)^0,c
  2169  002286  0E00               	movlw	0
  2170  002288  6E11               	movwf	_estadob^0,c
  2171  00228A  0012               	return		;funcret
  2172  00228C                     __end_of_recoger:
  2173                           	callstack 0
  2174                           
  2175 ;; *************** function _ira *****************
  2176 ;; Defined at:
  2177 ;;		line 169 in file "proyectofinal.c"
  2178 ;; Parameters:    Size  Location     Type
  2179 ;;  desX            2   18[COMRAM] int 
  2180 ;;  desY            2   20[COMRAM] int 
  2181 ;; Auto vars:     Size  Location     Type
  2182 ;;		None
  2183 ;; Return value:  Size  Location     Type
  2184 ;;                  1    wreg      void 
  2185 ;; Registers used:
  2186 ;;		wreg, status,2, status,0
  2187 ;; Tracked objects:
  2188 ;;		On entry : 0/0
  2189 ;;		On exit  : 0/0
  2190 ;;		Unchanged: 0/0
  2191 ;; Data sizes:     COMRAM   BANK0   BANK1   BANK2   BANK3   BANK4   BANK5   BANK6   BANK7
  2192 ;;      Params:         4       0       0       0       0       0       0       0       0
  2193 ;;      Locals:         0       0       0       0       0       0       0       0       0
  2194 ;;      Temps:          0       8       0       0       0       0       0       0       0
  2195 ;;      Totals:         4       8       0       0       0       0       0       0       0
  2196 ;;Total ram usage:       12 bytes
  2197 ;; Hardware stack levels used: 1
  2198 ;; Hardware stack levels required when called: 5
  2199 ;; This function calls:
  2200 ;;		Nothing
  2201 ;; This function is called by:
  2202 ;;		_sacarV
  2203 ;;		_guardarV
  2204 ;; This function uses a non-reentrant model
  2205 ;;
  2206                           
  2207                           	psect	text5
  2208  00088A                     __ptext5:
  2209                           	callstack 0
  2210  00088A                     _ira:
  2211                           	callstack 24
  2212  00088A                     
  2213                           ;proyectofinal.c: 170:  if(desX < posX)LATE0= 1;
  2214  00088A  C033  F084         	movff	ira@desX,??_ira
  2215  00088E  C034  F085         	movff	ira@desX+1,??_ira+1
  2216  000892  0E00               	movlw	0
  2217  000894  0100               	movlb	0	; () banked
  2218  000896  BF85               	btfsc	(??_ira+1)& (0+255),7,b
  2219  000898  0EFF               	movlw	255
  2220  00089A  6F86               	movwf	(??_ira+2)& (0+255),b
  2221  00089C  6F87               	movwf	(??_ira+3)& (0+255),b
  2222  00089E  6F88               	movwf	(??_ira+4)& (0+255),b
  2223  0008A0  6F89               	movwf	(??_ira+5)& (0+255),b
  2224  0008A2  6F8A               	movwf	(??_ira+6)& (0+255),b
  2225  0008A4  6F8B               	movwf	(??_ira+7)& (0+255),b
  2226  0008A6  5009               	movf	_posX^0,w,c
  2227  0008A8  5D84               	subwf	??_ira& (0+255),w,b
  2228  0008AA  500A               	movf	(_posX+1)^0,w,c
  2229  0008AC  5985               	subwfb	(??_ira+1)& (0+255),w,b
  2230  0008AE  500B               	movf	(_posX+2)^0,w,c
  2231  0008B0  5986               	subwfb	(??_ira+2)& (0+255),w,b
  2232  0008B2  500C               	movf	(_posX+3)^0,w,c
  2233  0008B4  5987               	subwfb	(??_ira+3)& (0+255),w,b
  2234  0008B6  500D               	movf	(_posX+4)^0,w,c
  2235  0008B8  5988               	subwfb	(??_ira+4)& (0+255),w,b
  2236  0008BA  500E               	movf	(_posX+5)^0,w,c
  2237  0008BC  5989               	subwfb	(??_ira+5)& (0+255),w,b
  2238  0008BE  500F               	movf	(_posX+6)^0,w,c
  2239  0008C0  598A               	subwfb	(??_ira+6)& (0+255),w,b
  2240  0008C2  5010               	movf	(_posX+7)^0,w,c
  2241  0008C4  598B               	subwfb	(??_ira+7)& (0+255),w,b
  2242  0008C6  B0D8               	btfsc	status,0,c
  2243  0008C8  EF68  F004         	goto	u2311
  2244  0008CC  EF6A  F004         	goto	u2310
  2245  0008D0                     u2311:
  2246  0008D0  EF6D  F004         	goto	l310
  2247  0008D4                     u2310:
  2248  0008D4                     
  2249                           ; BSR set to: 0
  2250  0008D4  808D               	bsf	3981,0,c	;volatile
  2251  0008D6  EF6E  F004         	goto	l3005
  2252  0008DA                     l310:
  2253                           
  2254                           ; BSR set to: 0
  2255  0008DA  908D               	bcf	3981,0,c	;volatile
  2256  0008DC                     l3005:
  2257                           
  2258                           ; BSR set to: 0
  2259                           ;proyectofinal.c: 172:    if(desY < posY)LATE1 = 1;
  2260  0008DC  C035  F084         	movff	ira@desY,??_ira
  2261  0008E0  C036  F085         	movff	ira@desY+1,??_ira+1
  2262  0008E4  0E00               	movlw	0
  2263  0008E6  BF85               	btfsc	(??_ira+1)& (0+255),7,b
  2264  0008E8  0EFF               	movlw	255
  2265  0008EA  6F86               	movwf	(??_ira+2)& (0+255),b
  2266  0008EC  6F87               	movwf	(??_ira+3)& (0+255),b
  2267  0008EE  6F88               	movwf	(??_ira+4)& (0+255),b
  2268  0008F0  6F89               	movwf	(??_ira+5)& (0+255),b
  2269  0008F2  6F8A               	movwf	(??_ira+6)& (0+255),b
  2270  0008F4  6F8B               	movwf	(??_ira+7)& (0+255),b
  2271  0008F6  5001               	movf	_posY^0,w,c
  2272  0008F8  5D84               	subwf	??_ira& (0+255),w,b
  2273  0008FA  5002               	movf	(_posY+1)^0,w,c
  2274  0008FC  5985               	subwfb	(??_ira+1)& (0+255),w,b
  2275  0008FE  5003               	movf	(_posY+2)^0,w,c
  2276  000900  5986               	subwfb	(??_ira+2)& (0+255),w,b
  2277  000902  5004               	movf	(_posY+3)^0,w,c
  2278  000904  5987               	subwfb	(??_ira+3)& (0+255),w,b
  2279  000906  5005               	movf	(_posY+4)^0,w,c
  2280  000908  5988               	subwfb	(??_ira+4)& (0+255),w,b
  2281  00090A  5006               	movf	(_posY+5)^0,w,c
  2282  00090C  5989               	subwfb	(??_ira+5)& (0+255),w,b
  2283  00090E  5007               	movf	(_posY+6)^0,w,c
  2284  000910  598A               	subwfb	(??_ira+6)& (0+255),w,b
  2285  000912  5008               	movf	(_posY+7)^0,w,c
  2286  000914  598B               	subwfb	(??_ira+7)& (0+255),w,b
  2287  000916  B0D8               	btfsc	status,0,c
  2288  000918  EF90  F004         	goto	u2321
  2289  00091C  EF92  F004         	goto	u2320
  2290  000920                     u2321:
  2291  000920  EF95  F004         	goto	l312
  2292  000924                     u2320:
  2293  000924                     
  2294                           ; BSR set to: 0
  2295  000924  828D               	bsf	3981,1,c	;volatile
  2296  000926  EF76  F005         	goto	l314
  2297  00092A                     l312:
  2298                           
  2299                           ; BSR set to: 0
  2300  00092A  928D               	bcf	3981,1,c	;volatile
  2301  00092C  EF76  F005         	goto	l314
  2302  000930                     l3009:
  2303                           
  2304                           ; BSR set to: 0
  2305                           ;proyectofinal.c: 175:     if( desX != posX){
  2306  000930  C033  F084         	movff	ira@desX,??_ira
  2307  000934  C034  F085         	movff	ira@desX+1,??_ira+1
  2308  000938  0E00               	movlw	0
  2309  00093A  BF85               	btfsc	(??_ira+1)& (0+255),7,b
  2310  00093C  0EFF               	movlw	255
  2311  00093E  6F86               	movwf	(??_ira+2)& (0+255),b
  2312  000940  6F87               	movwf	(??_ira+3)& (0+255),b
  2313  000942  6F88               	movwf	(??_ira+4)& (0+255),b
  2314  000944  6F89               	movwf	(??_ira+5)& (0+255),b
  2315  000946  6F8A               	movwf	(??_ira+6)& (0+255),b
  2316  000948  6F8B               	movwf	(??_ira+7)& (0+255),b
  2317  00094A  5009               	movf	_posX^0,w,c
  2318  00094C  1984               	xorwf	??_ira& (0+255),w,b
  2319  00094E  E11B               	bnz	u2330
  2320  000950  500A               	movf	(_posX+1)^0,w,c
  2321  000952  1985               	xorwf	(??_ira+1)& (0+255),w,b
  2322  000954  E118               	bnz	u2330
  2323  000956  500B               	movf	(_posX+2)^0,w,c
  2324  000958  1986               	xorwf	(??_ira+2)& (0+255),w,b
  2325  00095A  E115               	bnz	u2330
  2326  00095C  500C               	movf	(_posX+3)^0,w,c
  2327  00095E  1987               	xorwf	(??_ira+3)& (0+255),w,b
  2328  000960  E112               	bnz	u2330
  2329  000962  500D               	movf	(_posX+4)^0,w,c
  2330  000964  1988               	xorwf	(??_ira+4)& (0+255),w,b
  2331  000966  E10F               	bnz	u2330
  2332  000968  500E               	movf	(_posX+5)^0,w,c
  2333  00096A  1989               	xorwf	(??_ira+5)& (0+255),w,b
  2334  00096C  E10C               	bnz	u2330
  2335  00096E  500F               	movf	(_posX+6)^0,w,c
  2336  000970  198A               	xorwf	(??_ira+6)& (0+255),w,b
  2337  000972  E109               	bnz	u2330
  2338  000974  5010               	movf	(_posX+7)^0,w,c
  2339  000976  198B               	xorwf	(??_ira+7)& (0+255),w,b
  2340  000978  B4D8               	btfsc	status,2,c
  2341  00097A  EFC1  F004         	goto	u2331
  2342  00097E  EFC3  F004         	goto	u2330
  2343  000982                     u2331:
  2344  000982  EFFD  F004         	goto	l316
  2345  000986                     u2330:
  2346  000986                     
  2347                           ; BSR set to: 0
  2348                           ;proyectofinal.c: 176:        LATB3= 1;
  2349  000986  868A               	bsf	3978,3,c	;volatile
  2350  000988                     
  2351                           ; BSR set to: 0
  2352                           ;proyectofinal.c: 177:       if(desX < posX)posX--;
  2353  000988  C033  F084         	movff	ira@desX,??_ira
  2354  00098C  C034  F085         	movff	ira@desX+1,??_ira+1
  2355  000990  0E00               	movlw	0
  2356  000992  BF85               	btfsc	(??_ira+1)& (0+255),7,b
  2357  000994  0EFF               	movlw	255
  2358  000996  6F86               	movwf	(??_ira+2)& (0+255),b
  2359  000998  6F87               	movwf	(??_ira+3)& (0+255),b
  2360  00099A  6F88               	movwf	(??_ira+4)& (0+255),b
  2361  00099C  6F89               	movwf	(??_ira+5)& (0+255),b
  2362  00099E  6F8A               	movwf	(??_ira+6)& (0+255),b
  2363  0009A0  6F8B               	movwf	(??_ira+7)& (0+255),b
  2364  0009A2  5009               	movf	_posX^0,w,c
  2365  0009A4  5D84               	subwf	??_ira& (0+255),w,b
  2366  0009A6  500A               	movf	(_posX+1)^0,w,c
  2367  0009A8  5985               	subwfb	(??_ira+1)& (0+255),w,b
  2368  0009AA  500B               	movf	(_posX+2)^0,w,c
  2369  0009AC  5986               	subwfb	(??_ira+2)& (0+255),w,b
  2370  0009AE  500C               	movf	(_posX+3)^0,w,c
  2371  0009B0  5987               	subwfb	(??_ira+3)& (0+255),w,b
  2372  0009B2  500D               	movf	(_posX+4)^0,w,c
  2373  0009B4  5988               	subwfb	(??_ira+4)& (0+255),w,b
  2374  0009B6  500E               	movf	(_posX+5)^0,w,c
  2375  0009B8  5989               	subwfb	(??_ira+5)& (0+255),w,b
  2376  0009BA  500F               	movf	(_posX+6)^0,w,c
  2377  0009BC  598A               	subwfb	(??_ira+6)& (0+255),w,b
  2378  0009BE  5010               	movf	(_posX+7)^0,w,c
  2379  0009C0  598B               	subwfb	(??_ira+7)& (0+255),w,b
  2380  0009C2  B0D8               	btfsc	status,0,c
  2381  0009C4  EFE6  F004         	goto	u2341
  2382  0009C8  EFE8  F004         	goto	u2340
  2383  0009CC                     u2341:
  2384  0009CC  EFF3  F004         	goto	l3017
  2385  0009D0                     u2340:
  2386  0009D0                     
  2387                           ; BSR set to: 0
  2388  0009D0  0609               	decf	_posX^0,f,c
  2389  0009D2  0E00               	movlw	0
  2390  0009D4  5A0A               	subwfb	(_posX+1)^0,f,c
  2391  0009D6  5A0B               	subwfb	(_posX+2)^0,f,c
  2392  0009D8  5A0C               	subwfb	(_posX+3)^0,f,c
  2393  0009DA  5A0D               	subwfb	(_posX+4)^0,f,c
  2394  0009DC  5A0E               	subwfb	(_posX+5)^0,f,c
  2395  0009DE  5A0F               	subwfb	(_posX+6)^0,f,c
  2396  0009E0  5A10               	subwfb	(_posX+7)^0,f,c
  2397  0009E2  EFFD  F004         	goto	l316
  2398  0009E6                     l3017:
  2399                           
  2400                           ; BSR set to: 0
  2401  0009E6  0E01               	movlw	1
  2402  0009E8  2609               	addwf	_posX^0,f,c
  2403  0009EA  0E00               	movlw	0
  2404  0009EC  220A               	addwfc	(_posX+1)^0,f,c
  2405  0009EE  220B               	addwfc	(_posX+2)^0,f,c
  2406  0009F0  220C               	addwfc	(_posX+3)^0,f,c
  2407  0009F2  220D               	addwfc	(_posX+4)^0,f,c
  2408  0009F4  220E               	addwfc	(_posX+5)^0,f,c
  2409  0009F6  220F               	addwfc	(_posX+6)^0,f,c
  2410  0009F8  2210               	addwfc	(_posX+7)^0,f,c
  2411  0009FA                     l316:
  2412                           
  2413                           ; BSR set to: 0
  2414                           ;proyectofinal.c: 180:     if( desY != posY){
  2415  0009FA  C035  F084         	movff	ira@desY,??_ira
  2416  0009FE  C036  F085         	movff	ira@desY+1,??_ira+1
  2417  000A02  0E00               	movlw	0
  2418  000A04  BF85               	btfsc	(??_ira+1)& (0+255),7,b
  2419  000A06  0EFF               	movlw	255
  2420  000A08  6F86               	movwf	(??_ira+2)& (0+255),b
  2421  000A0A  6F87               	movwf	(??_ira+3)& (0+255),b
  2422  000A0C  6F88               	movwf	(??_ira+4)& (0+255),b
  2423  000A0E  6F89               	movwf	(??_ira+5)& (0+255),b
  2424  000A10  6F8A               	movwf	(??_ira+6)& (0+255),b
  2425  000A12  6F8B               	movwf	(??_ira+7)& (0+255),b
  2426  000A14  5001               	movf	_posY^0,w,c
  2427  000A16  1984               	xorwf	??_ira& (0+255),w,b
  2428  000A18  E11B               	bnz	u2350
  2429  000A1A  5002               	movf	(_posY+1)^0,w,c
  2430  000A1C  1985               	xorwf	(??_ira+1)& (0+255),w,b
  2431  000A1E  E118               	bnz	u2350
  2432  000A20  5003               	movf	(_posY+2)^0,w,c
  2433  000A22  1986               	xorwf	(??_ira+2)& (0+255),w,b
  2434  000A24  E115               	bnz	u2350
  2435  000A26  5004               	movf	(_posY+3)^0,w,c
  2436  000A28  1987               	xorwf	(??_ira+3)& (0+255),w,b
  2437  000A2A  E112               	bnz	u2350
  2438  000A2C  5005               	movf	(_posY+4)^0,w,c
  2439  000A2E  1988               	xorwf	(??_ira+4)& (0+255),w,b
  2440  000A30  E10F               	bnz	u2350
  2441  000A32  5006               	movf	(_posY+5)^0,w,c
  2442  000A34  1989               	xorwf	(??_ira+5)& (0+255),w,b
  2443  000A36  E10C               	bnz	u2350
  2444  000A38  5007               	movf	(_posY+6)^0,w,c
  2445  000A3A  198A               	xorwf	(??_ira+6)& (0+255),w,b
  2446  000A3C  E109               	bnz	u2350
  2447  000A3E  5008               	movf	(_posY+7)^0,w,c
  2448  000A40  198B               	xorwf	(??_ira+7)& (0+255),w,b
  2449  000A42  B4D8               	btfsc	status,2,c
  2450  000A44  EF26  F005         	goto	u2351
  2451  000A48  EF28  F005         	goto	u2350
  2452  000A4C                     u2351:
  2453  000A4C  EF62  F005         	goto	l3027
  2454  000A50                     u2350:
  2455  000A50                     
  2456                           ; BSR set to: 0
  2457                           ;proyectofinal.c: 181:       LATB4 = 1;
  2458  000A50  888A               	bsf	3978,4,c	;volatile
  2459  000A52                     
  2460                           ; BSR set to: 0
  2461                           ;proyectofinal.c: 182:       if(desY < posY)posY--;
  2462  000A52  C035  F084         	movff	ira@desY,??_ira
  2463  000A56  C036  F085         	movff	ira@desY+1,??_ira+1
  2464  000A5A  0E00               	movlw	0
  2465  000A5C  BF85               	btfsc	(??_ira+1)& (0+255),7,b
  2466  000A5E  0EFF               	movlw	255
  2467  000A60  6F86               	movwf	(??_ira+2)& (0+255),b
  2468  000A62  6F87               	movwf	(??_ira+3)& (0+255),b
  2469  000A64  6F88               	movwf	(??_ira+4)& (0+255),b
  2470  000A66  6F89               	movwf	(??_ira+5)& (0+255),b
  2471  000A68  6F8A               	movwf	(??_ira+6)& (0+255),b
  2472  000A6A  6F8B               	movwf	(??_ira+7)& (0+255),b
  2473  000A6C  5001               	movf	_posY^0,w,c
  2474  000A6E  5D84               	subwf	??_ira& (0+255),w,b
  2475  000A70  5002               	movf	(_posY+1)^0,w,c
  2476  000A72  5985               	subwfb	(??_ira+1)& (0+255),w,b
  2477  000A74  5003               	movf	(_posY+2)^0,w,c
  2478  000A76  5986               	subwfb	(??_ira+2)& (0+255),w,b
  2479  000A78  5004               	movf	(_posY+3)^0,w,c
  2480  000A7A  5987               	subwfb	(??_ira+3)& (0+255),w,b
  2481  000A7C  5005               	movf	(_posY+4)^0,w,c
  2482  000A7E  5988               	subwfb	(??_ira+4)& (0+255),w,b
  2483  000A80  5006               	movf	(_posY+5)^0,w,c
  2484  000A82  5989               	subwfb	(??_ira+5)& (0+255),w,b
  2485  000A84  5007               	movf	(_posY+6)^0,w,c
  2486  000A86  598A               	subwfb	(??_ira+6)& (0+255),w,b
  2487  000A88  5008               	movf	(_posY+7)^0,w,c
  2488  000A8A  598B               	subwfb	(??_ira+7)& (0+255),w,b
  2489  000A8C  B0D8               	btfsc	status,0,c
  2490  000A8E  EF4B  F005         	goto	u2361
  2491  000A92  EF4D  F005         	goto	u2360
  2492  000A96                     u2361:
  2493  000A96  EF58  F005         	goto	l3025
  2494  000A9A                     u2360:
  2495  000A9A                     
  2496                           ; BSR set to: 0
  2497  000A9A  0601               	decf	_posY^0,f,c
  2498  000A9C  0E00               	movlw	0
  2499  000A9E  5A02               	subwfb	(_posY+1)^0,f,c
  2500  000AA0  5A03               	subwfb	(_posY+2)^0,f,c
  2501  000AA2  5A04               	subwfb	(_posY+3)^0,f,c
  2502  000AA4  5A05               	subwfb	(_posY+4)^0,f,c
  2503  000AA6  5A06               	subwfb	(_posY+5)^0,f,c
  2504  000AA8  5A07               	subwfb	(_posY+6)^0,f,c
  2505  000AAA  5A08               	subwfb	(_posY+7)^0,f,c
  2506  000AAC  EF62  F005         	goto	l3027
  2507  000AB0                     l3025:
  2508                           
  2509                           ; BSR set to: 0
  2510  000AB0  0E01               	movlw	1
  2511  000AB2  2601               	addwf	_posY^0,f,c
  2512  000AB4  0E00               	movlw	0
  2513  000AB6  2202               	addwfc	(_posY+1)^0,f,c
  2514  000AB8  2203               	addwfc	(_posY+2)^0,f,c
  2515  000ABA  2204               	addwfc	(_posY+3)^0,f,c
  2516  000ABC  2205               	addwfc	(_posY+4)^0,f,c
  2517  000ABE  2206               	addwfc	(_posY+5)^0,f,c
  2518  000AC0  2207               	addwfc	(_posY+6)^0,f,c
  2519  000AC2  2208               	addwfc	(_posY+7)^0,f,c
  2520  000AC4                     l3027:
  2521                           
  2522                           ; BSR set to: 0
  2523                           ;proyectofinal.c: 185:       _delay((unsigned long)((stepDelay)*(8000000/4000.0)));
  2524  000AC4  0E03               	movlw	3
  2525  000AC6  0100               	movlb	0	; () banked
  2526  000AC8  6F84               	movwf	??_ira& (0+255),b
  2527  000ACA  0E97               	movlw	151
  2528  000ACC                     u2947:
  2529  000ACC  2EE8               	decfsz	wreg,f,c
  2530  000ACE  D7FE               	bra	u2947
  2531  000AD0  2F84               	decfsz	??_ira& (0+255),f,b
  2532  000AD2  D7FC               	bra	u2947
  2533  000AD4  D000               	nop2	
  2534  000AD6                     
  2535                           ;proyectofinal.c: 186:       LATB3=0;
  2536  000AD6  968A               	bcf	3978,3,c	;volatile
  2537  000AD8                     
  2538                           ;proyectofinal.c: 187:       LATB4=0;
  2539  000AD8  988A               	bcf	3978,4,c	;volatile
  2540  000ADA                     
  2541                           ;proyectofinal.c: 188:       _delay((unsigned long)((stepDelay)*(8000000/4000.0)));
  2542  000ADA  0E03               	movlw	3
  2543  000ADC  0100               	movlb	0	; () banked
  2544  000ADE  6F84               	movwf	??_ira& (0+255),b
  2545  000AE0  0E97               	movlw	151
  2546  000AE2                     u2957:
  2547  000AE2  2EE8               	decfsz	wreg,f,c
  2548  000AE4  D7FE               	bra	u2957
  2549  000AE6  2F84               	decfsz	??_ira& (0+255),f,b
  2550  000AE8  D7FC               	bra	u2957
  2551  000AEA  D000               	nop2	
  2552  000AEC                     l314:
  2553                           
  2554                           ;proyectofinal.c: 174:   while(desX != posX || desY != posY){
  2555  000AEC  C033  F084         	movff	ira@desX,??_ira
  2556  000AF0  C034  F085         	movff	ira@desX+1,??_ira+1
  2557  000AF4  0E00               	movlw	0
  2558  000AF6  0100               	movlb	0	; () banked
  2559  000AF8  BF85               	btfsc	(??_ira+1)& (0+255),7,b
  2560  000AFA  0EFF               	movlw	255
  2561  000AFC  6F86               	movwf	(??_ira+2)& (0+255),b
  2562  000AFE  6F87               	movwf	(??_ira+3)& (0+255),b
  2563  000B00  6F88               	movwf	(??_ira+4)& (0+255),b
  2564  000B02  6F89               	movwf	(??_ira+5)& (0+255),b
  2565  000B04  6F8A               	movwf	(??_ira+6)& (0+255),b
  2566  000B06  6F8B               	movwf	(??_ira+7)& (0+255),b
  2567  000B08  5009               	movf	_posX^0,w,c
  2568  000B0A  1984               	xorwf	??_ira& (0+255),w,b
  2569  000B0C  E119               	bnz	u2371
  2570  000B0E  500A               	movf	(_posX+1)^0,w,c
  2571  000B10  1985               	xorwf	(??_ira+1)& (0+255),w,b
  2572  000B12  E116               	bnz	u2371
  2573  000B14  500B               	movf	(_posX+2)^0,w,c
  2574  000B16  1986               	xorwf	(??_ira+2)& (0+255),w,b
  2575  000B18  E113               	bnz	u2371
  2576  000B1A  500C               	movf	(_posX+3)^0,w,c
  2577  000B1C  1987               	xorwf	(??_ira+3)& (0+255),w,b
  2578  000B1E  E110               	bnz	u2371
  2579  000B20  500D               	movf	(_posX+4)^0,w,c
  2580  000B22  1988               	xorwf	(??_ira+4)& (0+255),w,b
  2581  000B24  E10D               	bnz	u2371
  2582  000B26  500E               	movf	(_posX+5)^0,w,c
  2583  000B28  1989               	xorwf	(??_ira+5)& (0+255),w,b
  2584  000B2A  E10A               	bnz	u2371
  2585  000B2C  500F               	movf	(_posX+6)^0,w,c
  2586  000B2E  198A               	xorwf	(??_ira+6)& (0+255),w,b
  2587  000B30  E107               	bnz	u2371
  2588  000B32  5010               	movf	(_posX+7)^0,w,c
  2589  000B34  198B               	xorwf	(??_ira+7)& (0+255),w,b
  2590  000B36  A4D8               	btfss	status,2,c
  2591  000B38  EFA0  F005         	goto	u2371
  2592  000B3C  EFA2  F005         	goto	u2370
  2593  000B40                     u2371:
  2594  000B40  EF98  F004         	goto	l3009
  2595  000B44                     u2370:
  2596  000B44                     
  2597                           ; BSR set to: 0
  2598  000B44  C035  F084         	movff	ira@desY,??_ira
  2599  000B48  C036  F085         	movff	ira@desY+1,??_ira+1
  2600  000B4C  0E00               	movlw	0
  2601  000B4E  BF85               	btfsc	(??_ira+1)& (0+255),7,b
  2602  000B50  0EFF               	movlw	255
  2603  000B52  6F86               	movwf	(??_ira+2)& (0+255),b
  2604  000B54  6F87               	movwf	(??_ira+3)& (0+255),b
  2605  000B56  6F88               	movwf	(??_ira+4)& (0+255),b
  2606  000B58  6F89               	movwf	(??_ira+5)& (0+255),b
  2607  000B5A  6F8A               	movwf	(??_ira+6)& (0+255),b
  2608  000B5C  6F8B               	movwf	(??_ira+7)& (0+255),b
  2609  000B5E  5001               	movf	_posY^0,w,c
  2610  000B60  1984               	xorwf	??_ira& (0+255),w,b
  2611  000B62  E119               	bnz	u2381
  2612  000B64  5002               	movf	(_posY+1)^0,w,c
  2613  000B66  1985               	xorwf	(??_ira+1)& (0+255),w,b
  2614  000B68  E116               	bnz	u2381
  2615  000B6A  5003               	movf	(_posY+2)^0,w,c
  2616  000B6C  1986               	xorwf	(??_ira+2)& (0+255),w,b
  2617  000B6E  E113               	bnz	u2381
  2618  000B70  5004               	movf	(_posY+3)^0,w,c
  2619  000B72  1987               	xorwf	(??_ira+3)& (0+255),w,b
  2620  000B74  E110               	bnz	u2381
  2621  000B76  5005               	movf	(_posY+4)^0,w,c
  2622  000B78  1988               	xorwf	(??_ira+4)& (0+255),w,b
  2623  000B7A  E10D               	bnz	u2381
  2624  000B7C  5006               	movf	(_posY+5)^0,w,c
  2625  000B7E  1989               	xorwf	(??_ira+5)& (0+255),w,b
  2626  000B80  E10A               	bnz	u2381
  2627  000B82  5007               	movf	(_posY+6)^0,w,c
  2628  000B84  198A               	xorwf	(??_ira+6)& (0+255),w,b
  2629  000B86  E107               	bnz	u2381
  2630  000B88  5008               	movf	(_posY+7)^0,w,c
  2631  000B8A  198B               	xorwf	(??_ira+7)& (0+255),w,b
  2632  000B8C  A4D8               	btfss	status,2,c
  2633  000B8E  EFCB  F005         	goto	u2381
  2634  000B92  EFCD  F005         	goto	u2380
  2635  000B96                     u2381:
  2636  000B96  EF98  F004         	goto	l3009
  2637  000B9A                     u2380:
  2638  000B9A                     
  2639                           ; BSR set to: 0
  2640  000B9A  0012               	return		;funcret
  2641  000B9C                     __end_of_ira:
  2642                           	callstack 0
  2643                           
  2644 ;; *************** function _extender *****************
  2645 ;; Defined at:
  2646 ;;		line 193 in file "proyectofinal.c"
  2647 ;; Parameters:    Size  Location     Type
  2648 ;;		None
  2649 ;; Auto vars:     Size  Location     Type
  2650 ;;  i               2   19[COMRAM] int 
  2651 ;; Return value:  Size  Location     Type
  2652 ;;                  1    wreg      void 
  2653 ;; Registers used:
  2654 ;;		wreg, status,2, status,0
  2655 ;; Tracked objects:
  2656 ;;		On entry : 0/0
  2657 ;;		On exit  : 0/0
  2658 ;;		Unchanged: 0/0
  2659 ;; Data sizes:     COMRAM   BANK0   BANK1   BANK2   BANK3   BANK4   BANK5   BANK6   BANK7
  2660 ;;      Params:         0       0       0       0       0       0       0       0       0
  2661 ;;      Locals:         2       0       0       0       0       0       0       0       0
  2662 ;;      Temps:          1       0       0       0       0       0       0       0       0
  2663 ;;      Totals:         3       0       0       0       0       0       0       0       0
  2664 ;;Total ram usage:        3 bytes
  2665 ;; Hardware stack levels used: 1
  2666 ;; Hardware stack levels required when called: 5
  2667 ;; This function calls:
  2668 ;;		Nothing
  2669 ;; This function is called by:
  2670 ;;		_sacarV
  2671 ;;		_guardarV
  2672 ;; This function uses a non-reentrant model
  2673 ;;
  2674                           
  2675                           	psect	text6
  2676  00228C                     __ptext6:
  2677                           	callstack 0
  2678  00228C                     _extender:
  2679                           	callstack 24
  2680  00228C                     
  2681                           ;proyectofinal.c: 194:     LATE2 = 1;
  2682  00228C  848D               	bsf	3981,2,c	;volatile
  2683  00228E                     
  2684                           ;proyectofinal.c: 195:    if(estadob==0){
  2685  00228E  5011               	movf	_estadob^0,w,c
  2686  002290  1012               	iorwf	(_estadob+1)^0,w,c
  2687  002292  A4D8               	btfss	status,2,c
  2688  002294  EF4E  F011         	goto	u1431
  2689  002298  EF50  F011         	goto	u1430
  2690  00229C                     u1431:
  2691  00229C  EF78  F011         	goto	l329
  2692  0022A0                     u1430:
  2693  0022A0                     
  2694                           ;proyectofinal.c: 196:    for(int i=0;i<1500;i++){
  2695  0022A0  0E00               	movlw	0
  2696  0022A2  6E35               	movwf	(extender@i+1)^0,c
  2697  0022A4  0E00               	movlw	0
  2698  0022A6  6E34               	movwf	extender@i^0,c
  2699  0022A8                     l327:
  2700                           
  2701                           ;proyectofinal.c: 197:       LATB5 = 1;
  2702  0022A8  8A8A               	bsf	3978,5,c	;volatile
  2703  0022AA                     
  2704                           ;proyectofinal.c: 198:       _delay((unsigned long)((stepDelay)*(8000000/4000.0)));
  2705  0022AA  0E03               	movlw	3
  2706  0022AC  6E33               	movwf	??_extender^0,c
  2707  0022AE  0E98               	movlw	152
  2708  0022B0                     u2967:
  2709  0022B0  2EE8               	decfsz	wreg,f,c
  2710  0022B2  D7FE               	bra	u2967
  2711  0022B4  2E33               	decfsz	??_extender^0,f,c
  2712  0022B6  D7FC               	bra	u2967
  2713  0022B8                     
  2714                           ;proyectofinal.c: 199:       LATB5 = 0;
  2715  0022B8  9A8A               	bcf	3978,5,c	;volatile
  2716                           
  2717                           ;proyectofinal.c: 200:       _delay((unsigned long)((stepDelay)*(8000000/4000.0)));
  2718  0022BA  0E03               	movlw	3
  2719  0022BC  6E33               	movwf	??_extender^0,c
  2720  0022BE  0E98               	movlw	152
  2721  0022C0                     u2977:
  2722  0022C0  2EE8               	decfsz	wreg,f,c
  2723  0022C2  D7FE               	bra	u2977
  2724  0022C4  2E33               	decfsz	??_extender^0,f,c
  2725  0022C6  D7FC               	bra	u2977
  2726  0022C8                     
  2727                           ;proyectofinal.c: 201:       }
  2728  0022C8  4A34               	infsnz	extender@i^0,f,c
  2729  0022CA  2A35               	incf	(extender@i+1)^0,f,c
  2730  0022CC  BE35               	btfsc	(extender@i+1)^0,7,c
  2731  0022CE  EF72  F011         	goto	u1441
  2732  0022D2  0EDC               	movlw	220
  2733  0022D4  5C34               	subwf	extender@i^0,w,c
  2734  0022D6  0E05               	movlw	5
  2735  0022D8  5835               	subwfb	(extender@i+1)^0,w,c
  2736  0022DA  A0D8               	btfss	status,0,c
  2737  0022DC  EF72  F011         	goto	u1441
  2738  0022E0  EF74  F011         	goto	u1440
  2739  0022E4                     u1441:
  2740  0022E4  EF54  F011         	goto	l327
  2741  0022E8                     u1440:
  2742  0022E8                     
  2743                           ;proyectofinal.c: 202:    estadob=1;
  2744  0022E8  0E00               	movlw	0
  2745  0022EA  6E12               	movwf	(_estadob+1)^0,c
  2746  0022EC  0E01               	movlw	1
  2747  0022EE  6E11               	movwf	_estadob^0,c
  2748  0022F0                     l329:
  2749  0022F0  0012               	return		;funcret
  2750  0022F2                     __end_of_extender:
  2751                           	callstack 0
  2752                           
  2753 ;; *************** function _Transmitir *****************
  2754 ;; Defined at:
  2755 ;;		line 129 in file "proyectofinal.c"
  2756 ;; Parameters:    Size  Location     Type
  2757 ;;  dato            1    wreg     unsigned char 
  2758 ;; Auto vars:     Size  Location     Type
  2759 ;;  dato            1   18[COMRAM] unsigned char 
  2760 ;; Return value:  Size  Location     Type
  2761 ;;                  1    wreg      void 
  2762 ;; Registers used:
  2763 ;;		wreg
  2764 ;; Tracked objects:
  2765 ;;		On entry : 0/0
  2766 ;;		On exit  : 0/0
  2767 ;;		Unchanged: 0/0
  2768 ;; Data sizes:     COMRAM   BANK0   BANK1   BANK2   BANK3   BANK4   BANK5   BANK6   BANK7
  2769 ;;      Params:         0       0       0       0       0       0       0       0       0
  2770 ;;      Locals:         1       0       0       0       0       0       0       0       0
  2771 ;;      Temps:          0       0       0       0       0       0       0       0       0
  2772 ;;      Totals:         1       0       0       0       0       0       0       0       0
  2773 ;;Total ram usage:        1 bytes
  2774 ;; Hardware stack levels used: 1
  2775 ;; Hardware stack levels required when called: 5
  2776 ;; This function calls:
  2777 ;;		Nothing
  2778 ;; This function is called by:
  2779 ;;		_sacarV
  2780 ;;		_guardarV
  2781 ;; This function uses a non-reentrant model
  2782 ;;
  2783                           
  2784                           	psect	text7
  2785  002520                     __ptext7:
  2786                           	callstack 0
  2787  002520                     _Transmitir:
  2788                           	callstack 24
  2789                           
  2790                           ;incstack = 0
  2791                           ;Transmitir@dato stored from wreg
  2792  002520  6E33               	movwf	Transmitir@dato^0,c
  2793  002522                     l288:
  2794  002522  A2AC               	btfss	4012,1,c	;volatile
  2795  002524  EF96  F012         	goto	u1341
  2796  002528  EF98  F012         	goto	u1340
  2797  00252C                     u1341:
  2798  00252C  EF91  F012         	goto	l288
  2799  002530                     u1340:
  2800  002530                     
  2801                           ;proyectofinal.c: 132:     TXREG=dato;
  2802  002530  C033  FFAD         	movff	Transmitir@dato,4013	;volatile
  2803  002534  0012               	return		;funcret
  2804  002536                     __end_of_Transmitir:
  2805                           	callstack 0
  2806                           
  2807 ;; *************** function _MensajeLCD_Var *****************
  2808 ;; Defined at:
  2809 ;;		line 344 in file "./LibLCDXC8.h"
  2810 ;; Parameters:    Size  Location     Type
  2811 ;;  a               2    0[BANK0 ] PTR unsigned char 
  2812 ;;		 -> STR_12(12), STR_11(15), STR_10(10), STR_9(12), 
  2813 ;;		 -> STR_8(16), STR_7(7), STR_6(8), STR_5(7), 
  2814 ;;		 -> STR_4(10), STR_3(11), STR_2(6), STR_1(12), 
  2815 ;; Auto vars:     Size  Location     Type
  2816 ;;  p               2    2[BANK0 ] PTR unsigned char 
  2817 ;;		 -> STR_12(12), STR_11(15), STR_10(10), STR_9(12), 
  2818 ;;		 -> STR_8(16), STR_7(7), STR_6(8), STR_5(7), 
  2819 ;;		 -> STR_4(10), STR_3(11), STR_2(6), STR_1(12), 
  2820 ;;		 -> NULL(0), 
  2821 ;; Return value:  Size  Location     Type
  2822 ;;                  1    wreg      void 
  2823 ;; Registers used:
  2824 ;;		wreg, status,2, status,0, tblptrl, tblptrh, tblptru, cstack
  2825 ;; Tracked objects:
  2826 ;;		On entry : 0/0
  2827 ;;		On exit  : 0/0
  2828 ;;		Unchanged: 0/0
  2829 ;; Data sizes:     COMRAM   BANK0   BANK1   BANK2   BANK3   BANK4   BANK5   BANK6   BANK7
  2830 ;;      Params:         0       2       0       0       0       0       0       0       0
  2831 ;;      Locals:         0       2       0       0       0       0       0       0       0
  2832 ;;      Temps:          0       0       0       0       0       0       0       0       0
  2833 ;;      Totals:         0       4       0       0       0       0       0       0       0
  2834 ;;Total ram usage:        4 bytes
  2835 ;; Hardware stack levels used: 1
  2836 ;; Hardware stack levels required when called: 8
  2837 ;; This function calls:
  2838 ;;		_EscribeLCD_c
  2839 ;; This function is called by:
  2840 ;;		_main
  2841 ;; This function uses a non-reentrant model
  2842 ;;
  2843                           
  2844                           	psect	text8
  2845  002476                     __ptext8:
  2846                           	callstack 0
  2847  002476                     _MensajeLCD_Var:
  2848                           	callstack 22
  2849  002476                     
  2850                           ;./LibLCDXC8.h: 348:     char * p = a;
  2851  002476  C084  F086         	movff	MensajeLCD_Var@a,MensajeLCD_Var@p
  2852  00247A  C085  F087         	movff	MensajeLCD_Var@a+1,MensajeLCD_Var@p+1
  2853                           
  2854                           ;./LibLCDXC8.h: 349:  while (*p != '\0') {
  2855  00247E  EF4C  F012         	goto	l3217
  2856  002482                     l3213:
  2857                           
  2858                           ;./LibLCDXC8.h: 350:    EscribeLCD_c(*p);
  2859  002482  C086  FFF6         	movff	MensajeLCD_Var@p,tblptrl
  2860  002486  C087  FFF7         	movff	MensajeLCD_Var@p+1,tblptrh
  2861  00248A                     	if	0	;tblptru may be non-zero
  2862  00248A                     	endif
  2863  00248A                     	if	0	;tblptru may be non-zero
  2864  00248A                     	endif
  2865  00248A  0008               	tblrd		*
  2866  00248C  50F5               	movf	tablat,w,c
  2867  00248E  EC9B  F012         	call	_EscribeLCD_c
  2868  002492                     
  2869                           ;./LibLCDXC8.h: 351:   p++;
  2870  002492  0100               	movlb	0	; () banked
  2871  002494  4B86               	infsnz	MensajeLCD_Var@p& (0+255),f,b
  2872  002496  2B87               	incf	(MensajeLCD_Var@p+1)& (0+255),f,b
  2873  002498                     l3217:
  2874                           
  2875                           ;./LibLCDXC8.h: 349:  while (*p != '\0') {
  2876  002498  C086  FFF6         	movff	MensajeLCD_Var@p,tblptrl
  2877  00249C  C087  FFF7         	movff	MensajeLCD_Var@p+1,tblptrh
  2878  0024A0                     	if	0	;tblptru may be non-zero
  2879  0024A0                     	endif
  2880  0024A0                     	if	0	;tblptru may be non-zero
  2881  0024A0                     	endif
  2882  0024A0  0008               	tblrd		*
  2883  0024A2  50F5               	movf	tablat,w,c
  2884  0024A4  0900               	iorlw	0
  2885  0024A6  A4D8               	btfss	status,2,c
  2886  0024A8  EF58  F012         	goto	u2551
  2887  0024AC  EF5A  F012         	goto	u2550
  2888  0024B0                     u2551:
  2889  0024B0  EF41  F012         	goto	l3213
  2890  0024B4                     u2550:
  2891  0024B4  0012               	return		;funcret
  2892  0024B6                     __end_of_MensajeLCD_Var:
  2893                           	callstack 0
  2894                           
  2895 ;; *************** function _EscribeLCD_c *****************
  2896 ;; Defined at:
  2897 ;;		line 137 in file "./LibLCDXC8.h"
  2898 ;; Parameters:    Size  Location     Type
  2899 ;;  a               1    wreg     unsigned char 
  2900 ;; Auto vars:     Size  Location     Type
  2901 ;;  a               1   23[COMRAM] unsigned char 
  2902 ;; Return value:  Size  Location     Type
  2903 ;;                  1    wreg      void 
  2904 ;; Registers used:
  2905 ;;		wreg, status,2, status,0, cstack
  2906 ;; Tracked objects:
  2907 ;;		On entry : 0/0
  2908 ;;		On exit  : 0/0
  2909 ;;		Unchanged: 0/0
  2910 ;; Data sizes:     COMRAM   BANK0   BANK1   BANK2   BANK3   BANK4   BANK5   BANK6   BANK7
  2911 ;;      Params:         0       0       0       0       0       0       0       0       0
  2912 ;;      Locals:         1       0       0       0       0       0       0       0       0
  2913 ;;      Temps:          0       0       0       0       0       0       0       0       0
  2914 ;;      Totals:         1       0       0       0       0       0       0       0       0
  2915 ;;Total ram usage:        1 bytes
  2916 ;; Hardware stack levels used: 1
  2917 ;; Hardware stack levels required when called: 7
  2918 ;; This function calls:
  2919 ;;		_EnviaDato
  2920 ;;		_HabilitaLCD
  2921 ;;		_RetardoLCD
  2922 ;; This function is called by:
  2923 ;;		_MensajeLCD_Var
  2924 ;;		_EscribeLCD_n16
  2925 ;;		_EscribeLCD_n64
  2926 ;;		_CaracterEspecial
  2927 ;; This function uses a non-reentrant model
  2928 ;;
  2929                           
  2930                           	psect	text9
  2931  002536                     __ptext9:
  2932                           	callstack 0
  2933  002536                     _EscribeLCD_c:
  2934                           	callstack 22
  2935                           
  2936                           ;incstack = 0
  2937                           ;EscribeLCD_c@a stored from wreg
  2938  002536  6E38               	movwf	EscribeLCD_c@a^0,c
  2939  002538                     
  2940                           ;./LibLCDXC8.h: 141:  LATD1=1;
  2941  002538  828C               	bsf	3980,1,c	;volatile
  2942  00253A                     
  2943                           ;./LibLCDXC8.h: 142:  EnviaDato(a);
  2944  00253A  5038               	movf	EscribeLCD_c@a^0,w,c
  2945  00253C  ECDF  F011         	call	_EnviaDato
  2946  002540                     
  2947                           ;./LibLCDXC8.h: 143:  HabilitaLCD();
  2948  002540  ECFA  F012         	call	_HabilitaLCD	;wreg free
  2949  002544                     
  2950                           ;./LibLCDXC8.h: 144:  RetardoLCD(4);
  2951  002544  0E04               	movlw	4
  2952  002546  EC50  F010         	call	_RetardoLCD
  2953  00254A  0012               	return		;funcret
  2954  00254C                     __end_of_EscribeLCD_c:
  2955                           	callstack 0
  2956                           
  2957 ;; *************** function _InicializaLCD *****************
  2958 ;; Defined at:
  2959 ;;		line 72 in file "./LibLCDXC8.h"
  2960 ;; Parameters:    Size  Location     Type
  2961 ;;		None
  2962 ;; Auto vars:     Size  Location     Type
  2963 ;;		None
  2964 ;; Return value:  Size  Location     Type
  2965 ;;                  1    wreg      void 
  2966 ;; Registers used:
  2967 ;;		wreg, status,2, status,0, cstack
  2968 ;; Tracked objects:
  2969 ;;		On entry : 0/0
  2970 ;;		On exit  : 0/0
  2971 ;;		Unchanged: 0/0
  2972 ;; Data sizes:     COMRAM   BANK0   BANK1   BANK2   BANK3   BANK4   BANK5   BANK6   BANK7
  2973 ;;      Params:         0       0       0       0       0       0       0       0       0
  2974 ;;      Locals:         0       0       0       0       0       0       0       0       0
  2975 ;;      Temps:          0       0       0       0       0       0       0       0       0
  2976 ;;      Totals:         0       0       0       0       0       0       0       0       0
  2977 ;;Total ram usage:        0 bytes
  2978 ;; Hardware stack levels used: 1
  2979 ;; Hardware stack levels required when called: 8
  2980 ;; This function calls:
  2981 ;;		_BorraLCD
  2982 ;;		_EnviaDato
  2983 ;;		_HabilitaLCD
  2984 ;;		_RetardoLCD
  2985 ;; This function is called by:
  2986 ;;		_main
  2987 ;; This function uses a non-reentrant model
  2988 ;;
  2989                           
  2990                           	psect	text10
  2991  001E5A                     __ptext10:
  2992                           	callstack 0
  2993  001E5A                     _InicializaLCD:
  2994                           	callstack 22
  2995  001E5A                     
  2996                           ;./LibLCDXC8.h: 74:  LATD1=0;
  2997  001E5A  928C               	bcf	3980,1,c	;volatile
  2998  001E5C                     
  2999                           ;./LibLCDXC8.h: 75:  if(interfaz==4)
  3000  001E5C  0E04               	movlw	4
  3001  001E5E  184C               	xorwf	_interfaz^0,w,c
  3002  001E60  A4D8               	btfss	status,2,c
  3003  001E62  EF35  F00F         	goto	u2511
  3004  001E66  EF37  F00F         	goto	u2510
  3005  001E6A                     u2511:
  3006  001E6A  EF3D  F00F         	goto	l3123
  3007  001E6E                     u2510:
  3008  001E6E                     
  3009                           ;./LibLCDXC8.h: 76:   LATD=(LATD & 0b00001111) | 0x30;
  3010  001E6E  508C               	movf	140,w,c	;volatile
  3011  001E70  0B0F               	andlw	15
  3012  001E72  0930               	iorlw	48
  3013  001E74  6E8C               	movwf	140,c	;volatile
  3014  001E76  EF3F  F00F         	goto	l3125
  3015  001E7A                     l3123:
  3016                           
  3017                           ;./LibLCDXC8.h: 78:   LATD=0x3F;
  3018  001E7A  0E3F               	movlw	63
  3019  001E7C  6E8C               	movwf	140,c	;volatile
  3020  001E7E                     l3125:
  3021                           
  3022                           ;./LibLCDXC8.h: 79:  HabilitaLCD();
  3023  001E7E  ECFA  F012         	call	_HabilitaLCD	;wreg free
  3024  001E82                     
  3025                           ;./LibLCDXC8.h: 80:  RetardoLCD(1);
  3026  001E82  0E01               	movlw	1
  3027  001E84  EC50  F010         	call	_RetardoLCD
  3028  001E88                     
  3029                           ;./LibLCDXC8.h: 81:  if(interfaz==4)
  3030  001E88  0E04               	movlw	4
  3031  001E8A  184C               	xorwf	_interfaz^0,w,c
  3032  001E8C  A4D8               	btfss	status,2,c
  3033  001E8E  EF4B  F00F         	goto	u2521
  3034  001E92  EF4D  F00F         	goto	u2520
  3035  001E96                     u2521:
  3036  001E96  EF53  F00F         	goto	l3133
  3037  001E9A                     u2520:
  3038  001E9A                     
  3039                           ;./LibLCDXC8.h: 82:   LATD=(LATD & 0b00001111) | 0x30;
  3040  001E9A  508C               	movf	140,w,c	;volatile
  3041  001E9C  0B0F               	andlw	15
  3042  001E9E  0930               	iorlw	48
  3043  001EA0  6E8C               	movwf	140,c	;volatile
  3044  001EA2  EF55  F00F         	goto	l3135
  3045  001EA6                     l3133:
  3046                           
  3047                           ;./LibLCDXC8.h: 84:   LATD=0x3F;
  3048  001EA6  0E3F               	movlw	63
  3049  001EA8  6E8C               	movwf	140,c	;volatile
  3050  001EAA                     l3135:
  3051                           
  3052                           ;./LibLCDXC8.h: 85:  HabilitaLCD();
  3053  001EAA  ECFA  F012         	call	_HabilitaLCD	;wreg free
  3054  001EAE                     
  3055                           ;./LibLCDXC8.h: 86:  RetardoLCD(3);
  3056  001EAE  0E03               	movlw	3
  3057  001EB0  EC50  F010         	call	_RetardoLCD
  3058  001EB4                     
  3059                           ;./LibLCDXC8.h: 87:  if(interfaz==4)
  3060  001EB4  0E04               	movlw	4
  3061  001EB6  184C               	xorwf	_interfaz^0,w,c
  3062  001EB8  A4D8               	btfss	status,2,c
  3063  001EBA  EF61  F00F         	goto	u2531
  3064  001EBE  EF63  F00F         	goto	u2530
  3065  001EC2                     u2531:
  3066  001EC2  EF69  F00F         	goto	l3143
  3067  001EC6                     u2530:
  3068  001EC6                     
  3069                           ;./LibLCDXC8.h: 88:   LATD=(LATD & 0b00001111) | 0x30;
  3070  001EC6  508C               	movf	140,w,c	;volatile
  3071  001EC8  0B0F               	andlw	15
  3072  001ECA  0930               	iorlw	48
  3073  001ECC  6E8C               	movwf	140,c	;volatile
  3074  001ECE  EF6B  F00F         	goto	l3145
  3075  001ED2                     l3143:
  3076                           
  3077                           ;./LibLCDXC8.h: 90:   LATD=0x3F;
  3078  001ED2  0E3F               	movlw	63
  3079  001ED4  6E8C               	movwf	140,c	;volatile
  3080  001ED6                     l3145:
  3081                           
  3082                           ;./LibLCDXC8.h: 91:  HabilitaLCD();
  3083  001ED6  ECFA  F012         	call	_HabilitaLCD	;wreg free
  3084  001EDA                     
  3085                           ;./LibLCDXC8.h: 92:  RetardoLCD(4);
  3086  001EDA  0E04               	movlw	4
  3087  001EDC  EC50  F010         	call	_RetardoLCD
  3088  001EE0                     
  3089                           ;./LibLCDXC8.h: 93:  if(interfaz==4){
  3090  001EE0  0E04               	movlw	4
  3091  001EE2  184C               	xorwf	_interfaz^0,w,c
  3092  001EE4  A4D8               	btfss	status,2,c
  3093  001EE6  EF77  F00F         	goto	u2541
  3094  001EEA  EF79  F00F         	goto	u2540
  3095  001EEE                     u2541:
  3096  001EEE  EF8A  F00F         	goto	l3163
  3097  001EF2                     u2540:
  3098  001EF2                     
  3099                           ;./LibLCDXC8.h: 94:   LATD=(LATD & 0b00001111) | 0x20;
  3100  001EF2  508C               	movf	140,w,c	;volatile
  3101  001EF4  0B0F               	andlw	15
  3102  001EF6  0920               	iorlw	32
  3103  001EF8  6E8C               	movwf	140,c	;volatile
  3104  001EFA                     
  3105                           ;./LibLCDXC8.h: 95:   HabilitaLCD();
  3106  001EFA  ECFA  F012         	call	_HabilitaLCD	;wreg free
  3107  001EFE                     
  3108                           ;./LibLCDXC8.h: 96:   RetardoLCD(4);
  3109  001EFE  0E04               	movlw	4
  3110  001F00  EC50  F010         	call	_RetardoLCD
  3111  001F04                     
  3112                           ;./LibLCDXC8.h: 97:   EnviaDato(0x2F);
  3113  001F04  0E2F               	movlw	47
  3114  001F06  ECDF  F011         	call	_EnviaDato
  3115  001F0A                     
  3116                           ;./LibLCDXC8.h: 98:   HabilitaLCD();
  3117  001F0A  ECFA  F012         	call	_HabilitaLCD	;wreg free
  3118  001F0E                     
  3119                           ;./LibLCDXC8.h: 99:   RetardoLCD(4);
  3120  001F0E  0E04               	movlw	4
  3121  001F10  EC50  F010         	call	_RetardoLCD
  3122  001F14                     l3163:
  3123                           
  3124                           ;./LibLCDXC8.h: 101:  BorraLCD();
  3125  001F14  ECDC  F012         	call	_BorraLCD	;wreg free
  3126  001F18                     
  3127                           ;./LibLCDXC8.h: 102:  EnviaDato(0xF);
  3128  001F18  0E0F               	movlw	15
  3129  001F1A  ECDF  F011         	call	_EnviaDato
  3130  001F1E                     
  3131                           ;./LibLCDXC8.h: 103:  HabilitaLCD();
  3132  001F1E  ECFA  F012         	call	_HabilitaLCD	;wreg free
  3133  001F22                     
  3134                           ;./LibLCDXC8.h: 104:  RetardoLCD(4);
  3135  001F22  0E04               	movlw	4
  3136  001F24  EC50  F010         	call	_RetardoLCD
  3137  001F28  0012               	return		;funcret
  3138  001F2A                     __end_of_InicializaLCD:
  3139                           	callstack 0
  3140                           
  3141 ;; *************** function _BorraLCD *****************
  3142 ;; Defined at:
  3143 ;;		line 113 in file "./LibLCDXC8.h"
  3144 ;; Parameters:    Size  Location     Type
  3145 ;;		None
  3146 ;; Auto vars:     Size  Location     Type
  3147 ;;		None
  3148 ;; Return value:  Size  Location     Type
  3149 ;;                  1    wreg      void 
  3150 ;; Registers used:
  3151 ;;		wreg, status,2, status,0, cstack
  3152 ;; Tracked objects:
  3153 ;;		On entry : 0/0
  3154 ;;		On exit  : 0/0
  3155 ;;		Unchanged: 0/0
  3156 ;; Data sizes:     COMRAM   BANK0   BANK1   BANK2   BANK3   BANK4   BANK5   BANK6   BANK7
  3157 ;;      Params:         0       0       0       0       0       0       0       0       0
  3158 ;;      Locals:         0       0       0       0       0       0       0       0       0
  3159 ;;      Temps:          0       0       0       0       0       0       0       0       0
  3160 ;;      Totals:         0       0       0       0       0       0       0       0       0
  3161 ;;Total ram usage:        0 bytes
  3162 ;; Hardware stack levels used: 1
  3163 ;; Hardware stack levels required when called: 7
  3164 ;; This function calls:
  3165 ;;		_EnviaDato
  3166 ;;		_HabilitaLCD
  3167 ;;		_RetardoLCD
  3168 ;; This function is called by:
  3169 ;;		_InicializaLCD
  3170 ;;		_main
  3171 ;;		_ComandoLCD
  3172 ;; This function uses a non-reentrant model
  3173 ;;
  3174                           
  3175                           	psect	text11
  3176  0025B8                     __ptext11:
  3177                           	callstack 0
  3178  0025B8                     _BorraLCD:
  3179                           	callstack 22
  3180  0025B8                     
  3181                           ;./LibLCDXC8.h: 115:  LATD1=0;
  3182  0025B8  928C               	bcf	3980,1,c	;volatile
  3183  0025BA                     
  3184                           ;./LibLCDXC8.h: 116:  EnviaDato(0x01);
  3185  0025BA  0E01               	movlw	1
  3186  0025BC  ECDF  F011         	call	_EnviaDato
  3187  0025C0                     
  3188                           ;./LibLCDXC8.h: 117:  HabilitaLCD();
  3189  0025C0  ECFA  F012         	call	_HabilitaLCD	;wreg free
  3190  0025C4                     
  3191                           ;./LibLCDXC8.h: 118:  RetardoLCD(2);
  3192  0025C4  0E02               	movlw	2
  3193  0025C6  EC50  F010         	call	_RetardoLCD
  3194  0025CA  0012               	return		;funcret
  3195  0025CC                     __end_of_BorraLCD:
  3196                           	callstack 0
  3197                           
  3198 ;; *************** function _EscribeLCD_n8 *****************
  3199 ;; Defined at:
  3200 ;;		line 146 in file "./LibLCDXC8.h"
  3201 ;; Parameters:    Size  Location     Type
  3202 ;;  a               1    wreg     unsigned char 
  3203 ;;  b               1   24[COMRAM] unsigned char 
  3204 ;; Auto vars:     Size  Location     Type
  3205 ;;  a               1   13[BANK0 ] unsigned char 
  3206 ;;  unidad          1   12[BANK0 ] unsigned char 
  3207 ;;  decena          1   11[BANK0 ] unsigned char 
  3208 ;;  centena         1   10[BANK0 ] unsigned char 
  3209 ;; Return value:  Size  Location     Type
  3210 ;;                  1    wreg      void 
  3211 ;; Registers used:
  3212 ;;		wreg, status,2, status,0, cstack
  3213 ;; Tracked objects:
  3214 ;;		On entry : 0/0
  3215 ;;		On exit  : 0/0
  3216 ;;		Unchanged: 0/0
  3217 ;; Data sizes:     COMRAM   BANK0   BANK1   BANK2   BANK3   BANK4   BANK5   BANK6   BANK7
  3218 ;;      Params:         1       0       0       0       0       0       0       0       0
  3219 ;;      Locals:         0       4       0       0       0       0       0       0       0
  3220 ;;      Temps:          0       2       0       0       0       0       0       0       0
  3221 ;;      Totals:         1       6       0       0       0       0       0       0       0
  3222 ;;Total ram usage:        7 bytes
  3223 ;; Hardware stack levels used: 1
  3224 ;; Hardware stack levels required when called: 7
  3225 ;; This function calls:
  3226 ;;		_EnviaDato
  3227 ;;		_HabilitaLCD
  3228 ;;		_RetardoLCD
  3229 ;;		___awdiv
  3230 ;;		___awmod
  3231 ;; This function is called by:
  3232 ;;		_main
  3233 ;; This function uses a non-reentrant model
  3234 ;;
  3235                           
  3236                           	psect	text12
  3237  001A64                     __ptext12:
  3238                           	callstack 0
  3239  001A64                     _EscribeLCD_n8:
  3240                           	callstack 23
  3241                           
  3242                           ;incstack = 0
  3243                           ;EscribeLCD_n8@a stored from wreg
  3244  001A64  0100               	movlb	0	; () banked
  3245  001A66  6F91               	movwf	EscribeLCD_n8@a& (0+255),b
  3246  001A68                     
  3247                           ;./LibLCDXC8.h: 151:     unsigned char centena,decena,unidad;;./LibLCDXC8.h: 152:  LATD1
      +                          =1;
  3248  001A68  828C               	bsf	3980,1,c	;volatile
  3249                           
  3250                           ;./LibLCDXC8.h: 153:  switch(b){
  3251  001A6A  EFD4  F00D         	goto	l3205
  3252  001A6E                     l3173:
  3253                           
  3254                           ; BSR set to: 0
  3255  001A6E  C091  F033         	movff	EscribeLCD_n8@a,___awmod@dividend
  3256  001A72  6A34               	clrf	(___awmod@dividend+1)^0,c
  3257  001A74  0E00               	movlw	0
  3258  001A76  6E36               	movwf	(___awmod@divisor+1)^0,c
  3259  001A78  0E0A               	movlw	10
  3260  001A7A  6E35               	movwf	___awmod@divisor^0,c
  3261  001A7C  ECF8  F00F         	call	___awmod	;wreg free
  3262  001A80  5033               	movf	?___awmod^0,w,c
  3263  001A82  0100               	movlb	0	; () banked
  3264  001A84  6F90               	movwf	EscribeLCD_n8@unidad& (0+255),b
  3265                           
  3266                           ;./LibLCDXC8.h: 155:     EnviaDato(unidad+48);
  3267  001A86  5190               	movf	EscribeLCD_n8@unidad& (0+255),w,b
  3268  001A88  0F30               	addlw	48
  3269  001A8A  ECDF  F011         	call	_EnviaDato
  3270  001A8E                     
  3271                           ;./LibLCDXC8.h: 156:     HabilitaLCD();
  3272  001A8E  ECFA  F012         	call	_HabilitaLCD	;wreg free
  3273  001A92                     
  3274                           ;./LibLCDXC8.h: 157:     RetardoLCD(4);
  3275  001A92  0E04               	movlw	4
  3276  001A94  EC50  F010         	call	_RetardoLCD
  3277                           
  3278                           ;./LibLCDXC8.h: 158:     break;
  3279  001A98  EFEE  F00D         	goto	l136
  3280  001A9C                     l3179:
  3281                           
  3282                           ; BSR set to: 0
  3283  001A9C  0E00               	movlw	0
  3284  001A9E  6E36               	movwf	(___awmod@divisor+1)^0,c
  3285  001AA0  0E64               	movlw	100
  3286  001AA2  6E35               	movwf	___awmod@divisor^0,c
  3287  001AA4  C091  F033         	movff	EscribeLCD_n8@a,___awmod@dividend
  3288  001AA8  6A34               	clrf	(___awmod@dividend+1)^0,c
  3289  001AAA  ECF8  F00F         	call	___awmod	;wreg free
  3290  001AAE  C033  F084         	movff	?___awmod,___awdiv@dividend
  3291  001AB2  C034  F085         	movff	?___awmod+1,___awdiv@dividend+1
  3292  001AB6  0E00               	movlw	0
  3293  001AB8  0100               	movlb	0	; () banked
  3294  001ABA  6F87               	movwf	(___awdiv@divisor+1)& (0+255),b
  3295  001ABC  0E0A               	movlw	10
  3296  001ABE  6F86               	movwf	___awdiv@divisor& (0+255),b
  3297  001AC0  EC95  F00F         	call	___awdiv	;wreg free
  3298  001AC4  0100               	movlb	0	; () banked
  3299  001AC6  5184               	movf	?___awdiv& (0+255),w,b
  3300  001AC8  6F8F               	movwf	EscribeLCD_n8@decena& (0+255),b
  3301                           
  3302                           ;./LibLCDXC8.h: 160:     unidad=a%10;
  3303  001ACA  C091  F033         	movff	EscribeLCD_n8@a,___awmod@dividend
  3304  001ACE  6A34               	clrf	(___awmod@dividend+1)^0,c
  3305  001AD0  0E00               	movlw	0
  3306  001AD2  6E36               	movwf	(___awmod@divisor+1)^0,c
  3307  001AD4  0E0A               	movlw	10
  3308  001AD6  6E35               	movwf	___awmod@divisor^0,c
  3309  001AD8  ECF8  F00F         	call	___awmod	;wreg free
  3310  001ADC  5033               	movf	?___awmod^0,w,c
  3311  001ADE  0100               	movlb	0	; () banked
  3312  001AE0  6F90               	movwf	EscribeLCD_n8@unidad& (0+255),b
  3313                           
  3314                           ;./LibLCDXC8.h: 161:     EnviaDato(decena+48);
  3315  001AE2  518F               	movf	EscribeLCD_n8@decena& (0+255),w,b
  3316  001AE4  0F30               	addlw	48
  3317  001AE6  ECDF  F011         	call	_EnviaDato
  3318  001AEA                     
  3319                           ;./LibLCDXC8.h: 162:     HabilitaLCD();
  3320  001AEA  ECFA  F012         	call	_HabilitaLCD	;wreg free
  3321  001AEE                     
  3322                           ;./LibLCDXC8.h: 163:     RetardoLCD(4);
  3323  001AEE  0E04               	movlw	4
  3324  001AF0  EC50  F010         	call	_RetardoLCD
  3325  001AF4                     
  3326                           ;./LibLCDXC8.h: 164:     EnviaDato(unidad+48);
  3327  001AF4  0100               	movlb	0	; () banked
  3328  001AF6  5190               	movf	EscribeLCD_n8@unidad& (0+255),w,b
  3329  001AF8  0F30               	addlw	48
  3330  001AFA  ECDF  F011         	call	_EnviaDato
  3331  001AFE                     
  3332                           ;./LibLCDXC8.h: 165:     HabilitaLCD();
  3333  001AFE  ECFA  F012         	call	_HabilitaLCD	;wreg free
  3334                           
  3335                           ;./LibLCDXC8.h: 166:     RetardoLCD(4);
  3336  001B02  0E04               	movlw	4
  3337  001B04  EC50  F010         	call	_RetardoLCD
  3338                           
  3339                           ;./LibLCDXC8.h: 167:     break;
  3340  001B08  EFEE  F00D         	goto	l136
  3341  001B0C                     l3189:
  3342                           
  3343                           ; BSR set to: 0
  3344  001B0C  C091  F084         	movff	EscribeLCD_n8@a,___awdiv@dividend
  3345  001B10  6B85               	clrf	(___awdiv@dividend+1)& (0+255),b
  3346  001B12  0E00               	movlw	0
  3347  001B14  6F87               	movwf	(___awdiv@divisor+1)& (0+255),b
  3348  001B16  0E64               	movlw	100
  3349  001B18  6F86               	movwf	___awdiv@divisor& (0+255),b
  3350  001B1A  EC95  F00F         	call	___awdiv	;wreg free
  3351  001B1E  0100               	movlb	0	; () banked
  3352  001B20  5184               	movf	?___awdiv& (0+255),w,b
  3353  001B22  6F8E               	movwf	EscribeLCD_n8@centena& (0+255),b
  3354                           
  3355                           ;./LibLCDXC8.h: 169:     decena=(a%100)/10;
  3356  001B24  0E00               	movlw	0
  3357  001B26  6E36               	movwf	(___awmod@divisor+1)^0,c
  3358  001B28  0E64               	movlw	100
  3359  001B2A  6E35               	movwf	___awmod@divisor^0,c
  3360  001B2C  C091  F033         	movff	EscribeLCD_n8@a,___awmod@dividend
  3361  001B30  6A34               	clrf	(___awmod@dividend+1)^0,c
  3362  001B32  ECF8  F00F         	call	___awmod	;wreg free
  3363  001B36  C033  F084         	movff	?___awmod,___awdiv@dividend
  3364  001B3A  C034  F085         	movff	?___awmod+1,___awdiv@dividend+1
  3365  001B3E  0E00               	movlw	0
  3366  001B40  0100               	movlb	0	; () banked
  3367  001B42  6F87               	movwf	(___awdiv@divisor+1)& (0+255),b
  3368  001B44  0E0A               	movlw	10
  3369  001B46  6F86               	movwf	___awdiv@divisor& (0+255),b
  3370  001B48  EC95  F00F         	call	___awdiv	;wreg free
  3371  001B4C  0100               	movlb	0	; () banked
  3372  001B4E  5184               	movf	?___awdiv& (0+255),w,b
  3373  001B50  6F8F               	movwf	EscribeLCD_n8@decena& (0+255),b
  3374                           
  3375                           ;./LibLCDXC8.h: 170:     unidad=a%10;
  3376  001B52  C091  F033         	movff	EscribeLCD_n8@a,___awmod@dividend
  3377  001B56  6A34               	clrf	(___awmod@dividend+1)^0,c
  3378  001B58  0E00               	movlw	0
  3379  001B5A  6E36               	movwf	(___awmod@divisor+1)^0,c
  3380  001B5C  0E0A               	movlw	10
  3381  001B5E  6E35               	movwf	___awmod@divisor^0,c
  3382  001B60  ECF8  F00F         	call	___awmod	;wreg free
  3383  001B64  5033               	movf	?___awmod^0,w,c
  3384  001B66  0100               	movlb	0	; () banked
  3385  001B68  6F90               	movwf	EscribeLCD_n8@unidad& (0+255),b
  3386                           
  3387                           ;./LibLCDXC8.h: 171:     EnviaDato(centena+48);
  3388  001B6A  518E               	movf	EscribeLCD_n8@centena& (0+255),w,b
  3389  001B6C  0F30               	addlw	48
  3390  001B6E  ECDF  F011         	call	_EnviaDato
  3391  001B72                     
  3392                           ;./LibLCDXC8.h: 172:     HabilitaLCD();
  3393  001B72  ECFA  F012         	call	_HabilitaLCD	;wreg free
  3394  001B76                     
  3395                           ;./LibLCDXC8.h: 173:     RetardoLCD(4);
  3396  001B76  0E04               	movlw	4
  3397  001B78  EC50  F010         	call	_RetardoLCD
  3398  001B7C                     
  3399                           ;./LibLCDXC8.h: 174:     EnviaDato(decena+48);
  3400  001B7C  0100               	movlb	0	; () banked
  3401  001B7E  518F               	movf	EscribeLCD_n8@decena& (0+255),w,b
  3402  001B80  0F30               	addlw	48
  3403  001B82  ECDF  F011         	call	_EnviaDato
  3404  001B86                     
  3405                           ;./LibLCDXC8.h: 175:     HabilitaLCD();
  3406  001B86  ECFA  F012         	call	_HabilitaLCD	;wreg free
  3407                           
  3408                           ;./LibLCDXC8.h: 176:     RetardoLCD(4);
  3409  001B8A  0E04               	movlw	4
  3410  001B8C  EC50  F010         	call	_RetardoLCD
  3411                           
  3412                           ;./LibLCDXC8.h: 177:     EnviaDato(unidad+48);
  3413  001B90  0100               	movlb	0	; () banked
  3414  001B92  5190               	movf	EscribeLCD_n8@unidad& (0+255),w,b
  3415  001B94  0F30               	addlw	48
  3416  001B96  ECDF  F011         	call	_EnviaDato
  3417  001B9A                     
  3418                           ;./LibLCDXC8.h: 178:     HabilitaLCD();
  3419  001B9A  ECFA  F012         	call	_HabilitaLCD	;wreg free
  3420  001B9E                     
  3421                           ;./LibLCDXC8.h: 179:     RetardoLCD(4);
  3422  001B9E  0E04               	movlw	4
  3423  001BA0  EC50  F010         	call	_RetardoLCD
  3424                           
  3425                           ;./LibLCDXC8.h: 180:     break;
  3426  001BA4  EFEE  F00D         	goto	l136
  3427  001BA8                     l3205:
  3428  001BA8  5039               	movf	EscribeLCD_n8@b^0,w,c
  3429  001BAA  0100               	movlb	0	; () banked
  3430  001BAC  6F8C               	movwf	??_EscribeLCD_n8& (0+255),b
  3431  001BAE  6B8D               	clrf	(??_EscribeLCD_n8+1)& (0+255),b
  3432                           
  3433                           ; Switch on 2 bytes has been partitioned into a top level switch of size 1, and 1 sub-sw
      +                          itches
  3434                           ; Switch size 1, requested type "simple"
  3435                           ; Number of cases is 1, Range of values is 0 to 0
  3436                           ; switch strategies available:
  3437                           ; Name         Instructions Cycles
  3438                           ; simple_byte            4     3 (average)
  3439                           ;	Chosen strategy is simple_byte
  3440  001BB0  518D               	movf	(??_EscribeLCD_n8+1)& (0+255),w,b
  3441  001BB2  0A00               	xorlw	0	; case 0
  3442  001BB4  B4D8               	btfsc	status,2,c
  3443  001BB6  EFDF  F00D         	goto	l3707
  3444  001BBA  EFEE  F00D         	goto	l136
  3445  001BBE                     l3707:
  3446                           
  3447                           ; BSR set to: 0
  3448                           ; Switch size 1, requested type "simple"
  3449                           ; Number of cases is 3, Range of values is 1 to 3
  3450                           ; switch strategies available:
  3451                           ; Name         Instructions Cycles
  3452                           ; simple_byte           10     6 (average)
  3453                           ;	Chosen strategy is simple_byte
  3454  001BBE  518C               	movf	??_EscribeLCD_n8& (0+255),w,b
  3455  001BC0  0A01               	xorlw	1	; case 1
  3456  001BC2  B4D8               	btfsc	status,2,c
  3457  001BC4  EF37  F00D         	goto	l3173
  3458  001BC8  0A03               	xorlw	3	; case 2
  3459  001BCA  B4D8               	btfsc	status,2,c
  3460  001BCC  EF4E  F00D         	goto	l3179
  3461  001BD0  0A01               	xorlw	1	; case 3
  3462  001BD2  B4D8               	btfsc	status,2,c
  3463  001BD4  EF86  F00D         	goto	l3189
  3464  001BD8  EFEE  F00D         	goto	l136
  3465  001BDC                     l136:
  3466  001BDC  0012               	return		;funcret
  3467  001BDE                     __end_of_EscribeLCD_n8:
  3468                           	callstack 0
  3469                           
  3470 ;; *************** function ___awmod *****************
  3471 ;; Defined at:
  3472 ;;		line 7 in file "C:\Program Files\Microchip\xc8\v2.36\pic\sources\c99\common\awmod.c"
  3473 ;; Parameters:    Size  Location     Type
  3474 ;;  dividend        2   18[COMRAM] int 
  3475 ;;  divisor         2   20[COMRAM] int 
  3476 ;; Auto vars:     Size  Location     Type
  3477 ;;  sign            1   23[COMRAM] unsigned char 
  3478 ;;  counter         1   22[COMRAM] unsigned char 
  3479 ;; Return value:  Size  Location     Type
  3480 ;;                  2   18[COMRAM] int 
  3481 ;; Registers used:
  3482 ;;		wreg, status,2, status,0
  3483 ;; Tracked objects:
  3484 ;;		On entry : 0/0
  3485 ;;		On exit  : 0/0
  3486 ;;		Unchanged: 0/0
  3487 ;; Data sizes:     COMRAM   BANK0   BANK1   BANK2   BANK3   BANK4   BANK5   BANK6   BANK7
  3488 ;;      Params:         4       0       0       0       0       0       0       0       0
  3489 ;;      Locals:         2       0       0       0       0       0       0       0       0
  3490 ;;      Temps:          0       0       0       0       0       0       0       0       0
  3491 ;;      Totals:         6       0       0       0       0       0       0       0       0
  3492 ;;Total ram usage:        6 bytes
  3493 ;; Hardware stack levels used: 1
  3494 ;; Hardware stack levels required when called: 5
  3495 ;; This function calls:
  3496 ;;		Nothing
  3497 ;; This function is called by:
  3498 ;;		_EscribeLCD_n8
  3499 ;; This function uses a non-reentrant model
  3500 ;;
  3501                           
  3502                           	psect	text13
  3503  001FF0                     __ptext13:
  3504                           	callstack 0
  3505  001FF0                     ___awmod:
  3506                           	callstack 24
  3507  001FF0  0E00               	movlw	0
  3508  001FF2  6E38               	movwf	___awmod@sign^0,c
  3509  001FF4  BE34               	btfsc	(___awmod@dividend+1)^0,7,c
  3510  001FF6  EF01  F010         	goto	u2450
  3511  001FFA  EFFF  F00F         	goto	u2451
  3512  001FFE                     u2451:
  3513  001FFE  EF07  F010         	goto	l3089
  3514  002002                     u2450:
  3515  002002  6C33               	negf	___awmod@dividend^0,c
  3516  002004  1E34               	comf	(___awmod@dividend+1)^0,f,c
  3517  002006  B0D8               	btfsc	status,0,c
  3518  002008  2A34               	incf	(___awmod@dividend+1)^0,f,c
  3519  00200A  0E01               	movlw	1
  3520  00200C  6E38               	movwf	___awmod@sign^0,c
  3521  00200E                     l3089:
  3522  00200E  BE36               	btfsc	(___awmod@divisor+1)^0,7,c
  3523  002010  EF0E  F010         	goto	u2460
  3524  002014  EF0C  F010         	goto	u2461
  3525  002018                     u2461:
  3526  002018  EF12  F010         	goto	l3093
  3527  00201C                     u2460:
  3528  00201C  6C35               	negf	___awmod@divisor^0,c
  3529  00201E  1E36               	comf	(___awmod@divisor+1)^0,f,c
  3530  002020  B0D8               	btfsc	status,0,c
  3531  002022  2A36               	incf	(___awmod@divisor+1)^0,f,c
  3532  002024                     l3093:
  3533  002024  5035               	movf	___awmod@divisor^0,w,c
  3534  002026  1036               	iorwf	(___awmod@divisor+1)^0,w,c
  3535  002028  B4D8               	btfsc	status,2,c
  3536  00202A  EF19  F010         	goto	u2471
  3537  00202E  EF1B  F010         	goto	u2470
  3538  002032                     u2471:
  3539  002032  EF3F  F010         	goto	l3109
  3540  002036                     u2470:
  3541  002036  0E01               	movlw	1
  3542  002038  6E37               	movwf	___awmod@counter^0,c
  3543  00203A  EF23  F010         	goto	l3099
  3544  00203E                     l3097:
  3545  00203E  90D8               	bcf	status,0,c
  3546  002040  3635               	rlcf	___awmod@divisor^0,f,c
  3547  002042  3636               	rlcf	(___awmod@divisor+1)^0,f,c
  3548  002044  2A37               	incf	___awmod@counter^0,f,c
  3549  002046                     l3099:
  3550  002046  AE36               	btfss	(___awmod@divisor+1)^0,7,c
  3551  002048  EF28  F010         	goto	u2481
  3552  00204C  EF2A  F010         	goto	u2480
  3553  002050                     u2481:
  3554  002050  EF1F  F010         	goto	l3097
  3555  002054                     u2480:
  3556  002054                     l3101:
  3557  002054  5035               	movf	___awmod@divisor^0,w,c
  3558  002056  5C33               	subwf	___awmod@dividend^0,w,c
  3559  002058  5036               	movf	(___awmod@divisor+1)^0,w,c
  3560  00205A  5834               	subwfb	(___awmod@dividend+1)^0,w,c
  3561  00205C  A0D8               	btfss	status,0,c
  3562  00205E  EF33  F010         	goto	u2491
  3563  002062  EF35  F010         	goto	u2490
  3564  002066                     u2491:
  3565  002066  EF39  F010         	goto	l3105
  3566  00206A                     u2490:
  3567  00206A  5035               	movf	___awmod@divisor^0,w,c
  3568  00206C  5E33               	subwf	___awmod@dividend^0,f,c
  3569  00206E  5036               	movf	(___awmod@divisor+1)^0,w,c
  3570  002070  5A34               	subwfb	(___awmod@dividend+1)^0,f,c
  3571  002072                     l3105:
  3572  002072  90D8               	bcf	status,0,c
  3573  002074  3236               	rrcf	(___awmod@divisor+1)^0,f,c
  3574  002076  3235               	rrcf	___awmod@divisor^0,f,c
  3575  002078  2E37               	decfsz	___awmod@counter^0,f,c
  3576  00207A  EF2A  F010         	goto	l3101
  3577  00207E                     l3109:
  3578  00207E  5038               	movf	___awmod@sign^0,w,c
  3579  002080  B4D8               	btfsc	status,2,c
  3580  002082  EF45  F010         	goto	u2501
  3581  002086  EF47  F010         	goto	u2500
  3582  00208A                     u2501:
  3583  00208A  EF4B  F010         	goto	l3113
  3584  00208E                     u2500:
  3585  00208E  6C33               	negf	___awmod@dividend^0,c
  3586  002090  1E34               	comf	(___awmod@dividend+1)^0,f,c
  3587  002092  B0D8               	btfsc	status,0,c
  3588  002094  2A34               	incf	(___awmod@dividend+1)^0,f,c
  3589  002096                     l3113:
  3590  002096  C033  F033         	movff	___awmod@dividend,?___awmod
  3591  00209A  C034  F034         	movff	___awmod@dividend+1,?___awmod+1
  3592  00209E  0012               	return		;funcret
  3593  0020A0                     __end_of___awmod:
  3594                           	callstack 0
  3595                           
  3596 ;; *************** function ___awdiv *****************
  3597 ;; Defined at:
  3598 ;;		line 7 in file "C:\Program Files\Microchip\xc8\v2.36\pic\sources\c99\common\awdiv.c"
  3599 ;; Parameters:    Size  Location     Type
  3600 ;;  dividend        2    0[BANK0 ] int 
  3601 ;;  divisor         2    2[BANK0 ] int 
  3602 ;; Auto vars:     Size  Location     Type
  3603 ;;  quotient        2    6[BANK0 ] int 
  3604 ;;  sign            1    5[BANK0 ] unsigned char 
  3605 ;;  counter         1    4[BANK0 ] unsigned char 
  3606 ;; Return value:  Size  Location     Type
  3607 ;;                  2    0[BANK0 ] int 
  3608 ;; Registers used:
  3609 ;;		wreg, status,2, status,0
  3610 ;; Tracked objects:
  3611 ;;		On entry : 0/0
  3612 ;;		On exit  : 0/0
  3613 ;;		Unchanged: 0/0
  3614 ;; Data sizes:     COMRAM   BANK0   BANK1   BANK2   BANK3   BANK4   BANK5   BANK6   BANK7
  3615 ;;      Params:         0       4       0       0       0       0       0       0       0
  3616 ;;      Locals:         0       4       0       0       0       0       0       0       0
  3617 ;;      Temps:          0       0       0       0       0       0       0       0       0
  3618 ;;      Totals:         0       8       0       0       0       0       0       0       0
  3619 ;;Total ram usage:        8 bytes
  3620 ;; Hardware stack levels used: 1
  3621 ;; Hardware stack levels required when called: 5
  3622 ;; This function calls:
  3623 ;;		Nothing
  3624 ;; This function is called by:
  3625 ;;		_EscribeLCD_n8
  3626 ;; This function uses a non-reentrant model
  3627 ;;
  3628                           
  3629                           	psect	text14
  3630  001F2A                     __ptext14:
  3631                           	callstack 0
  3632  001F2A                     ___awdiv:
  3633                           	callstack 24
  3634  001F2A  0E00               	movlw	0
  3635  001F2C  0100               	movlb	0	; () banked
  3636  001F2E  6F89               	movwf	___awdiv@sign& (0+255),b
  3637  001F30                     
  3638                           ; BSR set to: 0
  3639  001F30  BF87               	btfsc	(___awdiv@divisor+1)& (0+255),7,b
  3640  001F32  EF9F  F00F         	goto	u2390
  3641  001F36  EF9D  F00F         	goto	u2391
  3642  001F3A                     u2391:
  3643  001F3A  EFA5  F00F         	goto	l3045
  3644  001F3E                     u2390:
  3645  001F3E                     
  3646                           ; BSR set to: 0
  3647  001F3E  6D86               	negf	___awdiv@divisor& (0+255),b
  3648  001F40  1F87               	comf	(___awdiv@divisor+1)& (0+255),f,b
  3649  001F42  B0D8               	btfsc	status,0,c
  3650  001F44  2B87               	incf	(___awdiv@divisor+1)& (0+255),f,b
  3651  001F46                     
  3652                           ; BSR set to: 0
  3653  001F46  0E01               	movlw	1
  3654  001F48  6F89               	movwf	___awdiv@sign& (0+255),b
  3655  001F4A                     l3045:
  3656                           
  3657                           ; BSR set to: 0
  3658  001F4A  BF85               	btfsc	(___awdiv@dividend+1)& (0+255),7,b
  3659  001F4C  EFAC  F00F         	goto	u2400
  3660  001F50  EFAA  F00F         	goto	u2401
  3661  001F54                     u2401:
  3662  001F54  EFB2  F00F         	goto	l3051
  3663  001F58                     u2400:
  3664  001F58                     
  3665                           ; BSR set to: 0
  3666  001F58  6D84               	negf	___awdiv@dividend& (0+255),b
  3667  001F5A  1F85               	comf	(___awdiv@dividend+1)& (0+255),f,b
  3668  001F5C  B0D8               	btfsc	status,0,c
  3669  001F5E  2B85               	incf	(___awdiv@dividend+1)& (0+255),f,b
  3670  001F60                     
  3671                           ; BSR set to: 0
  3672  001F60  0E01               	movlw	1
  3673  001F62  1B89               	xorwf	___awdiv@sign& (0+255),f,b
  3674  001F64                     l3051:
  3675                           
  3676                           ; BSR set to: 0
  3677  001F64  0E00               	movlw	0
  3678  001F66  6F8B               	movwf	(___awdiv@quotient+1)& (0+255),b
  3679  001F68  0E00               	movlw	0
  3680  001F6A  6F8A               	movwf	___awdiv@quotient& (0+255),b
  3681  001F6C                     
  3682                           ; BSR set to: 0
  3683  001F6C  5186               	movf	___awdiv@divisor& (0+255),w,b
  3684  001F6E  1187               	iorwf	(___awdiv@divisor+1)& (0+255),w,b
  3685  001F70  B4D8               	btfsc	status,2,c
  3686  001F72  EFBD  F00F         	goto	u2411
  3687  001F76  EFBF  F00F         	goto	u2410
  3688  001F7A                     u2411:
  3689  001F7A  EFE7  F00F         	goto	l3073
  3690  001F7E                     u2410:
  3691  001F7E                     
  3692                           ; BSR set to: 0
  3693  001F7E  0E01               	movlw	1
  3694  001F80  6F88               	movwf	___awdiv@counter& (0+255),b
  3695  001F82  EFC7  F00F         	goto	l3059
  3696  001F86                     l3057:
  3697                           
  3698                           ; BSR set to: 0
  3699  001F86  90D8               	bcf	status,0,c
  3700  001F88  3786               	rlcf	___awdiv@divisor& (0+255),f,b
  3701  001F8A  3787               	rlcf	(___awdiv@divisor+1)& (0+255),f,b
  3702  001F8C  2B88               	incf	___awdiv@counter& (0+255),f,b
  3703  001F8E                     l3059:
  3704                           
  3705                           ; BSR set to: 0
  3706  001F8E  AF87               	btfss	(___awdiv@divisor+1)& (0+255),7,b
  3707  001F90  EFCC  F00F         	goto	u2421
  3708  001F94  EFCE  F00F         	goto	u2420
  3709  001F98                     u2421:
  3710  001F98  EFC3  F00F         	goto	l3057
  3711  001F9C                     u2420:
  3712  001F9C                     l3061:
  3713                           
  3714                           ; BSR set to: 0
  3715  001F9C  90D8               	bcf	status,0,c
  3716  001F9E  378A               	rlcf	___awdiv@quotient& (0+255),f,b
  3717  001FA0  378B               	rlcf	(___awdiv@quotient+1)& (0+255),f,b
  3718  001FA2                     
  3719                           ; BSR set to: 0
  3720  001FA2  5186               	movf	___awdiv@divisor& (0+255),w,b
  3721  001FA4  5D84               	subwf	___awdiv@dividend& (0+255),w,b
  3722  001FA6  5187               	movf	(___awdiv@divisor+1)& (0+255),w,b
  3723  001FA8  5985               	subwfb	(___awdiv@dividend+1)& (0+255),w,b
  3724  001FAA  A0D8               	btfss	status,0,c
  3725  001FAC  EFDA  F00F         	goto	u2431
  3726  001FB0  EFDC  F00F         	goto	u2430
  3727  001FB4                     u2431:
  3728  001FB4  EFE1  F00F         	goto	l3069
  3729  001FB8                     u2430:
  3730  001FB8                     
  3731                           ; BSR set to: 0
  3732  001FB8  5186               	movf	___awdiv@divisor& (0+255),w,b
  3733  001FBA  5F84               	subwf	___awdiv@dividend& (0+255),f,b
  3734  001FBC  5187               	movf	(___awdiv@divisor+1)& (0+255),w,b
  3735  001FBE  5B85               	subwfb	(___awdiv@dividend+1)& (0+255),f,b
  3736  001FC0                     
  3737                           ; BSR set to: 0
  3738  001FC0  818A               	bsf	___awdiv@quotient& (0+255),0,b
  3739  001FC2                     l3069:
  3740                           
  3741                           ; BSR set to: 0
  3742  001FC2  90D8               	bcf	status,0,c
  3743  001FC4  3387               	rrcf	(___awdiv@divisor+1)& (0+255),f,b
  3744  001FC6  3386               	rrcf	___awdiv@divisor& (0+255),f,b
  3745  001FC8                     
  3746                           ; BSR set to: 0
  3747  001FC8  2F88               	decfsz	___awdiv@counter& (0+255),f,b
  3748  001FCA  EFCE  F00F         	goto	l3061
  3749  001FCE                     l3073:
  3750                           
  3751                           ; BSR set to: 0
  3752  001FCE  5189               	movf	___awdiv@sign& (0+255),w,b
  3753  001FD0  B4D8               	btfsc	status,2,c
  3754  001FD2  EFED  F00F         	goto	u2441
  3755  001FD6  EFEF  F00F         	goto	u2440
  3756  001FDA                     u2441:
  3757  001FDA  EFF3  F00F         	goto	l3077
  3758  001FDE                     u2440:
  3759  001FDE                     
  3760                           ; BSR set to: 0
  3761  001FDE  6D8A               	negf	___awdiv@quotient& (0+255),b
  3762  001FE0  1F8B               	comf	(___awdiv@quotient+1)& (0+255),f,b
  3763  001FE2  B0D8               	btfsc	status,0,c
  3764  001FE4  2B8B               	incf	(___awdiv@quotient+1)& (0+255),f,b
  3765  001FE6                     l3077:
  3766                           
  3767                           ; BSR set to: 0
  3768  001FE6  C08A  F084         	movff	___awdiv@quotient,?___awdiv
  3769  001FEA  C08B  F085         	movff	___awdiv@quotient+1,?___awdiv+1
  3770  001FEE                     
  3771                           ; BSR set to: 0
  3772  001FEE  0012               	return		;funcret
  3773  001FF0                     __end_of___awdiv:
  3774                           	callstack 0
  3775                           
  3776 ;; *************** function _DireccionaLCD *****************
  3777 ;; Defined at:
  3778 ;;		line 355 in file "./LibLCDXC8.h"
  3779 ;; Parameters:    Size  Location     Type
  3780 ;;  a               1    wreg     unsigned char 
  3781 ;; Auto vars:     Size  Location     Type
  3782 ;;  a               1   23[COMRAM] unsigned char 
  3783 ;; Return value:  Size  Location     Type
  3784 ;;                  1    wreg      void 
  3785 ;; Registers used:
  3786 ;;		wreg, status,2, status,0, cstack
  3787 ;; Tracked objects:
  3788 ;;		On entry : 0/0
  3789 ;;		On exit  : 0/0
  3790 ;;		Unchanged: 0/0
  3791 ;; Data sizes:     COMRAM   BANK0   BANK1   BANK2   BANK3   BANK4   BANK5   BANK6   BANK7
  3792 ;;      Params:         0       0       0       0       0       0       0       0       0
  3793 ;;      Locals:         1       0       0       0       0       0       0       0       0
  3794 ;;      Temps:          0       0       0       0       0       0       0       0       0
  3795 ;;      Totals:         1       0       0       0       0       0       0       0       0
  3796 ;;Total ram usage:        1 bytes
  3797 ;; Hardware stack levels used: 1
  3798 ;; Hardware stack levels required when called: 7
  3799 ;; This function calls:
  3800 ;;		_EnviaDato
  3801 ;;		_HabilitaLCD
  3802 ;;		_RetardoLCD
  3803 ;; This function is called by:
  3804 ;;		_main
  3805 ;;		_CaracterEspecial
  3806 ;; This function uses a non-reentrant model
  3807 ;;
  3808                           
  3809                           	psect	text15
  3810  00254C                     __ptext15:
  3811                           	callstack 0
  3812  00254C                     _DireccionaLCD:
  3813                           	callstack 23
  3814                           
  3815                           ; BSR set to: 0
  3816                           ;incstack = 0
  3817                           ;DireccionaLCD@a stored from wreg
  3818  00254C  6E38               	movwf	DireccionaLCD@a^0,c
  3819  00254E                     
  3820                           ;./LibLCDXC8.h: 358:  LATD1=0;
  3821  00254E  928C               	bcf	3980,1,c	;volatile
  3822  002550                     
  3823                           ;./LibLCDXC8.h: 359:  EnviaDato(a);
  3824  002550  5038               	movf	DireccionaLCD@a^0,w,c
  3825  002552  ECDF  F011         	call	_EnviaDato
  3826  002556                     
  3827                           ;./LibLCDXC8.h: 360:  HabilitaLCD();
  3828  002556  ECFA  F012         	call	_HabilitaLCD	;wreg free
  3829  00255A                     
  3830                           ;./LibLCDXC8.h: 361:  RetardoLCD(4);
  3831  00255A  0E04               	movlw	4
  3832  00255C  EC50  F010         	call	_RetardoLCD
  3833  002560  0012               	return		;funcret
  3834  002562                     __end_of_DireccionaLCD:
  3835                           	callstack 0
  3836                           
  3837 ;; *************** function _EnviaDato *****************
  3838 ;; Defined at:
  3839 ;;		line 60 in file "./LibLCDXC8.h"
  3840 ;; Parameters:    Size  Location     Type
  3841 ;;  a               1    wreg     unsigned char 
  3842 ;; Auto vars:     Size  Location     Type
  3843 ;;  a               1   22[COMRAM] unsigned char 
  3844 ;; Return value:  Size  Location     Type
  3845 ;;                  1    wreg      void 
  3846 ;; Registers used:
  3847 ;;		wreg, status,2, status,0, cstack
  3848 ;; Tracked objects:
  3849 ;;		On entry : 0/0
  3850 ;;		On exit  : 0/0
  3851 ;;		Unchanged: 0/0
  3852 ;; Data sizes:     COMRAM   BANK0   BANK1   BANK2   BANK3   BANK4   BANK5   BANK6   BANK7
  3853 ;;      Params:         0       0       0       0       0       0       0       0       0
  3854 ;;      Locals:         1       0       0       0       0       0       0       0       0
  3855 ;;      Temps:          1       0       0       0       0       0       0       0       0
  3856 ;;      Totals:         2       0       0       0       0       0       0       0       0
  3857 ;;Total ram usage:        2 bytes
  3858 ;; Hardware stack levels used: 1
  3859 ;; Hardware stack levels required when called: 6
  3860 ;; This function calls:
  3861 ;;		_HabilitaLCD
  3862 ;;		_RetardoLCD
  3863 ;; This function is called by:
  3864 ;;		_InicializaLCD
  3865 ;;		_BorraLCD
  3866 ;;		_EscribeLCD_c
  3867 ;;		_EscribeLCD_n8
  3868 ;;		_DireccionaLCD
  3869 ;;		_ComandoLCD
  3870 ;;		_DesplazaPantallaD
  3871 ;;		_DesplazaCursorI
  3872 ;; This function uses a non-reentrant model
  3873 ;;
  3874                           
  3875                           	psect	text16
  3876  0023BE                     __ptext16:
  3877                           	callstack 0
  3878  0023BE                     _EnviaDato:
  3879                           	callstack 22
  3880                           
  3881                           ;incstack = 0
  3882                           ;EnviaDato@a stored from wreg
  3883  0023BE  6E37               	movwf	EnviaDato@a^0,c
  3884  0023C0                     
  3885                           ;./LibLCDXC8.h: 61:  if(interfaz==4){
  3886  0023C0  0E04               	movlw	4
  3887  0023C2  184C               	xorwf	_interfaz^0,w,c
  3888  0023C4  A4D8               	btfss	status,2,c
  3889  0023C6  EFE7  F011         	goto	u2291
  3890  0023CA  EFE9  F011         	goto	u2290
  3891  0023CE                     u2291:
  3892  0023CE  EF01  F012         	goto	l2981
  3893  0023D2                     u2290:
  3894  0023D2                     
  3895                           ;./LibLCDXC8.h: 62:   LATD=(LATD & 0b00001111) | (a & 0b11110000);
  3896  0023D2  C037  F036         	movff	EnviaDato@a,??_EnviaDato
  3897  0023D6  0EF0               	movlw	240
  3898  0023D8  1636               	andwf	??_EnviaDato^0,f,c
  3899  0023DA  508C               	movf	140,w,c	;volatile
  3900  0023DC  0B0F               	andlw	15
  3901  0023DE  1036               	iorwf	??_EnviaDato^0,w,c
  3902  0023E0  6E8C               	movwf	140,c	;volatile
  3903  0023E2                     
  3904                           ;./LibLCDXC8.h: 63:   HabilitaLCD();
  3905  0023E2  ECFA  F012         	call	_HabilitaLCD	;wreg free
  3906  0023E6                     
  3907                           ;./LibLCDXC8.h: 64:   RetardoLCD(1);
  3908  0023E6  0E01               	movlw	1
  3909  0023E8  EC50  F010         	call	_RetardoLCD
  3910  0023EC                     
  3911                           ;./LibLCDXC8.h: 65:   LATD=(LATD & 0b00001111) | (a<<4);
  3912  0023EC  C037  F036         	movff	EnviaDato@a,??_EnviaDato
  3913  0023F0  3A36               	swapf	??_EnviaDato^0,f,c
  3914  0023F2  0EF0               	movlw	240
  3915  0023F4  1636               	andwf	??_EnviaDato^0,f,c
  3916  0023F6  508C               	movf	140,w,c	;volatile
  3917  0023F8  0B0F               	andlw	15
  3918  0023FA  1036               	iorwf	??_EnviaDato^0,w,c
  3919  0023FC  6E8C               	movwf	140,c	;volatile
  3920                           
  3921                           ;./LibLCDXC8.h: 68:  }else if(interfaz==8){
  3922  0023FE  EF0C  F012         	goto	l98
  3923  002402                     l2981:
  3924  002402  0E08               	movlw	8
  3925  002404  184C               	xorwf	_interfaz^0,w,c
  3926  002406  A4D8               	btfss	status,2,c
  3927  002408  EF08  F012         	goto	u2301
  3928  00240C  EF0A  F012         	goto	u2300
  3929  002410                     u2301:
  3930  002410  EF0C  F012         	goto	l98
  3931  002414                     u2300:
  3932  002414                     
  3933                           ;./LibLCDXC8.h: 69:   LATD=a;
  3934  002414  C037  FF8C         	movff	EnviaDato@a,3980	;volatile
  3935  002418                     l98:
  3936  002418  0012               	return		;funcret
  3937  00241A                     __end_of_EnviaDato:
  3938                           	callstack 0
  3939                           
  3940 ;; *************** function _RetardoLCD *****************
  3941 ;; Defined at:
  3942 ;;		line 403 in file "./LibLCDXC8.h"
  3943 ;; Parameters:    Size  Location     Type
  3944 ;;  a               1    wreg     unsigned char 
  3945 ;; Auto vars:     Size  Location     Type
  3946 ;;  a               1   20[COMRAM] unsigned char 
  3947 ;; Return value:  Size  Location     Type
  3948 ;;                  1    wreg      void 
  3949 ;; Registers used:
  3950 ;;		wreg, status,2, status,0
  3951 ;; Tracked objects:
  3952 ;;		On entry : 0/0
  3953 ;;		On exit  : 0/0
  3954 ;;		Unchanged: 0/0
  3955 ;; Data sizes:     COMRAM   BANK0   BANK1   BANK2   BANK3   BANK4   BANK5   BANK6   BANK7
  3956 ;;      Params:         0       0       0       0       0       0       0       0       0
  3957 ;;      Locals:         1       0       0       0       0       0       0       0       0
  3958 ;;      Temps:          2       0       0       0       0       0       0       0       0
  3959 ;;      Totals:         3       0       0       0       0       0       0       0       0
  3960 ;;Total ram usage:        3 bytes
  3961 ;; Hardware stack levels used: 1
  3962 ;; Hardware stack levels required when called: 5
  3963 ;; This function calls:
  3964 ;;		Nothing
  3965 ;; This function is called by:
  3966 ;;		_EnviaDato
  3967 ;;		_InicializaLCD
  3968 ;;		_BorraLCD
  3969 ;;		_EscribeLCD_c
  3970 ;;		_EscribeLCD_n8
  3971 ;;		_DireccionaLCD
  3972 ;;		_ComandoLCD
  3973 ;;		_DesplazaPantallaD
  3974 ;;		_DesplazaCursorI
  3975 ;; This function uses a non-reentrant model
  3976 ;;
  3977                           
  3978                           	psect	text17
  3979  0020A0                     __ptext17:
  3980                           	callstack 0
  3981  0020A0                     _RetardoLCD:
  3982                           	callstack 23
  3983                           
  3984                           ;incstack = 0
  3985                           ;RetardoLCD@a stored from wreg
  3986  0020A0  6E35               	movwf	RetardoLCD@a^0,c
  3987  0020A2                     
  3988                           ;./LibLCDXC8.h: 404:  switch(a){
  3989  0020A2  EF7A  F010         	goto	l2965
  3990  0020A6                     l2955:
  3991  0020A6  0E27               	movlw	39
  3992  0020A8  6E33               	movwf	??_RetardoLCD^0,c
  3993  0020AA  0EF5               	movlw	245
  3994  0020AC                     u2987:
  3995  0020AC  2EE8               	decfsz	wreg,f,c
  3996  0020AE  D7FE               	bra	u2987
  3997  0020B0  2E33               	decfsz	??_RetardoLCD^0,f,c
  3998  0020B2  D7FC               	bra	u2987
  3999  0020B4  F000               	nop	
  4000                           
  4001                           ;./LibLCDXC8.h: 407:     break;
  4002  0020B6  EF97  F010         	goto	l205
  4003  0020BA                     l2957:
  4004  0020BA  0E03               	movlw	3
  4005  0020BC  6E33               	movwf	??_RetardoLCD^0,c
  4006  0020BE  0E98               	movlw	152
  4007  0020C0                     u2997:
  4008  0020C0  2EE8               	decfsz	wreg,f,c
  4009  0020C2  D7FE               	bra	u2997
  4010  0020C4  2E33               	decfsz	??_RetardoLCD^0,f,c
  4011  0020C6  D7FC               	bra	u2997
  4012                           
  4013                           ;./LibLCDXC8.h: 409:                 _delay((unsigned long)((640)*(8000000/4000000.0)));
  4014  0020C8  0EB6               	movlw	182
  4015  0020CA                     u3007:
  4016  0020CA  D000               	nop2	
  4017  0020CC  D000               	nop2	
  4018  0020CE  2EE8               	decfsz	wreg,f,c
  4019  0020D0  D7FC               	bra	u3007
  4020  0020D2  D000               	nop2	
  4021  0020D4  D000               	nop2	
  4022  0020D6  D000               	nop2	
  4023                           
  4024                           ;./LibLCDXC8.h: 411:     break;
  4025  0020D8  EF97  F010         	goto	l205
  4026  0020DC                     l2959:
  4027  0020DC  0E42               	movlw	66
  4028  0020DE                     u3017:
  4029  0020DE  2EE8               	decfsz	wreg,f,c
  4030  0020E0  D7FE               	bra	u3017
  4031  0020E2  D000               	nop2	
  4032                           
  4033                           ;./LibLCDXC8.h: 414:     break;
  4034  0020E4  EF97  F010         	goto	l205
  4035  0020E8                     l2961:
  4036  0020E8  0E1A               	movlw	26
  4037  0020EA                     u3027:
  4038  0020EA  2EE8               	decfsz	wreg,f,c
  4039  0020EC  D7FE               	bra	u3027
  4040  0020EE  D000               	nop2	
  4041                           
  4042                           ;./LibLCDXC8.h: 417:     break;
  4043  0020F0  EF97  F010         	goto	l205
  4044  0020F4                     l2965:
  4045  0020F4  5035               	movf	RetardoLCD@a^0,w,c
  4046  0020F6  6E33               	movwf	??_RetardoLCD^0,c
  4047  0020F8  6A34               	clrf	(??_RetardoLCD+1)^0,c
  4048                           
  4049                           ; Switch on 2 bytes has been partitioned into a top level switch of size 1, and 1 sub-sw
      +                          itches
  4050                           ; Switch size 1, requested type "simple"
  4051                           ; Number of cases is 1, Range of values is 0 to 0
  4052                           ; switch strategies available:
  4053                           ; Name         Instructions Cycles
  4054                           ; simple_byte            4     3 (average)
  4055                           ;	Chosen strategy is simple_byte
  4056  0020FA  5034               	movf	(??_RetardoLCD+1)^0,w,c
  4057  0020FC  0A00               	xorlw	0	; case 0
  4058  0020FE  B4D8               	btfsc	status,2,c
  4059  002100  EF84  F010         	goto	l3709
  4060  002104  EF97  F010         	goto	l205
  4061  002108                     l3709:
  4062                           
  4063                           ; Switch size 1, requested type "simple"
  4064                           ; Number of cases is 4, Range of values is 1 to 4
  4065                           ; switch strategies available:
  4066                           ; Name         Instructions Cycles
  4067                           ; simple_byte           13     7 (average)
  4068                           ;	Chosen strategy is simple_byte
  4069  002108  5033               	movf	??_RetardoLCD^0,w,c
  4070  00210A  0A01               	xorlw	1	; case 1
  4071  00210C  B4D8               	btfsc	status,2,c
  4072  00210E  EF53  F010         	goto	l2955
  4073  002112  0A03               	xorlw	3	; case 2
  4074  002114  B4D8               	btfsc	status,2,c
  4075  002116  EF5D  F010         	goto	l2957
  4076  00211A  0A01               	xorlw	1	; case 3
  4077  00211C  B4D8               	btfsc	status,2,c
  4078  00211E  EF6E  F010         	goto	l2959
  4079  002122  0A07               	xorlw	7	; case 4
  4080  002124  B4D8               	btfsc	status,2,c
  4081  002126  EF74  F010         	goto	l2961
  4082  00212A  EF97  F010         	goto	l205
  4083  00212E                     l205:
  4084  00212E  0012               	return		;funcret
  4085  002130                     __end_of_RetardoLCD:
  4086                           	callstack 0
  4087                           
  4088 ;; *************** function _HabilitaLCD *****************
  4089 ;; Defined at:
  4090 ;;		line 106 in file "./LibLCDXC8.h"
  4091 ;; Parameters:    Size  Location     Type
  4092 ;;		None
  4093 ;; Auto vars:     Size  Location     Type
  4094 ;;		None
  4095 ;; Return value:  Size  Location     Type
  4096 ;;                  1    wreg      void 
  4097 ;; Registers used:
  4098 ;;		wreg
  4099 ;; Tracked objects:
  4100 ;;		On entry : 0/0
  4101 ;;		On exit  : 0/0
  4102 ;;		Unchanged: 0/0
  4103 ;; Data sizes:     COMRAM   BANK0   BANK1   BANK2   BANK3   BANK4   BANK5   BANK6   BANK7
  4104 ;;      Params:         0       0       0       0       0       0       0       0       0
  4105 ;;      Locals:         0       0       0       0       0       0       0       0       0
  4106 ;;      Temps:          0       0       0       0       0       0       0       0       0
  4107 ;;      Totals:         0       0       0       0       0       0       0       0       0
  4108 ;;Total ram usage:        0 bytes
  4109 ;; Hardware stack levels used: 1
  4110 ;; Hardware stack levels required when called: 5
  4111 ;; This function calls:
  4112 ;;		Nothing
  4113 ;; This function is called by:
  4114 ;;		_EnviaDato
  4115 ;;		_InicializaLCD
  4116 ;;		_BorraLCD
  4117 ;;		_EscribeLCD_c
  4118 ;;		_EscribeLCD_n8
  4119 ;;		_DireccionaLCD
  4120 ;;		_ComandoLCD
  4121 ;;		_DesplazaPantallaD
  4122 ;;		_DesplazaCursorI
  4123 ;; This function uses a non-reentrant model
  4124 ;;
  4125                           
  4126                           	psect	text18
  4127  0025F4                     __ptext18:
  4128                           	callstack 0
  4129  0025F4                     _HabilitaLCD:
  4130                           	callstack 23
  4131  0025F4                     
  4132                           ;./LibLCDXC8.h: 108:  LATD0=1;
  4133  0025F4  808C               	bsf	3980,0,c	;volatile
  4134  0025F6                     
  4135                           ;./LibLCDXC8.h: 109:  _delay((unsigned long)((40)*(8000000/4000000.0)));
  4136  0025F6  0E1A               	movlw	26
  4137  0025F8                     u3037:
  4138  0025F8  2EE8               	decfsz	wreg,f,c
  4139  0025FA  D7FE               	bra	u3037
  4140  0025FC  D000               	nop2	
  4141  0025FE                     
  4142                           ;./LibLCDXC8.h: 111:  LATD0=0;
  4143  0025FE  908C               	bcf	3980,0,c	;volatile
  4144  002600  0012               	return		;funcret
  4145  002602                     __end_of_HabilitaLCD:
  4146                           	callstack 0
  4147                           
  4148 ;; *************** function _ConfiguraLCD *****************
  4149 ;; Defined at:
  4150 ;;		line 56 in file "./LibLCDXC8.h"
  4151 ;; Parameters:    Size  Location     Type
  4152 ;;  a               1    wreg     unsigned char 
  4153 ;; Auto vars:     Size  Location     Type
  4154 ;;  a               1   18[COMRAM] unsigned char 
  4155 ;; Return value:  Size  Location     Type
  4156 ;;                  1    wreg      void 
  4157 ;; Registers used:
  4158 ;;		wreg, status,2, status,0
  4159 ;; Tracked objects:
  4160 ;;		On entry : 0/0
  4161 ;;		On exit  : 0/0
  4162 ;;		Unchanged: 0/0
  4163 ;; Data sizes:     COMRAM   BANK0   BANK1   BANK2   BANK3   BANK4   BANK5   BANK6   BANK7
  4164 ;;      Params:         0       0       0       0       0       0       0       0       0
  4165 ;;      Locals:         1       0       0       0       0       0       0       0       0
  4166 ;;      Temps:          0       0       0       0       0       0       0       0       0
  4167 ;;      Totals:         1       0       0       0       0       0       0       0       0
  4168 ;;Total ram usage:        1 bytes
  4169 ;; Hardware stack levels used: 1
  4170 ;; Hardware stack levels required when called: 5
  4171 ;; This function calls:
  4172 ;;		Nothing
  4173 ;; This function is called by:
  4174 ;;		_main
  4175 ;; This function uses a non-reentrant model
  4176 ;;
  4177                           
  4178                           	psect	text19
  4179  0024F4                     __ptext19:
  4180                           	callstack 0
  4181  0024F4                     _ConfiguraLCD:
  4182                           	callstack 25
  4183                           
  4184                           ;incstack = 0
  4185                           ;ConfiguraLCD@a stored from wreg
  4186  0024F4  6E33               	movwf	ConfiguraLCD@a^0,c
  4187  0024F6                     
  4188                           ;./LibLCDXC8.h: 57:  if(a==4 | a ==8)
  4189  0024F6  0E04               	movlw	4
  4190  0024F8  1833               	xorwf	ConfiguraLCD@a^0,w,c
  4191  0024FA  B4D8               	btfsc	status,2,c
  4192  0024FC  EF82  F012         	goto	u431
  4193  002500  EF84  F012         	goto	u430
  4194  002504                     u431:
  4195  002504  EF8D  F012         	goto	l91
  4196  002508                     u430:
  4197  002508  0E08               	movlw	8
  4198  00250A  1833               	xorwf	ConfiguraLCD@a^0,w,c
  4199  00250C  A4D8               	btfss	status,2,c
  4200  00250E  EF8B  F012         	goto	u441
  4201  002512  EF8D  F012         	goto	u440
  4202  002516                     u441:
  4203  002516  EF8F  F012         	goto	l92
  4204  00251A                     u440:
  4205  00251A                     l91:
  4206                           
  4207                           ;./LibLCDXC8.h: 58:   interfaz=a;
  4208  00251A  C033  F04C         	movff	ConfiguraLCD@a,_interfaz
  4209  00251E                     l92:
  4210  00251E  0012               	return		;funcret
  4211  002520                     __end_of_ConfiguraLCD:
  4212                           	callstack 0
  4213                           
  4214 ;; *************** function _ISR *****************
  4215 ;; Defined at:
  4216 ;;		line 338 in file "proyectofinal.c"
  4217 ;; Parameters:    Size  Location     Type
  4218 ;;		None
  4219 ;; Auto vars:     Size  Location     Type
  4220 ;;		None
  4221 ;; Return value:  Size  Location     Type
  4222 ;;                  1    wreg      void 
  4223 ;; Registers used:
  4224 ;;		wreg, fsr2l, fsr2h, status,2, status,0, tblptrl, tblptrh, tblptru, cstack
  4225 ;; Tracked objects:
  4226 ;;		On entry : 0/0
  4227 ;;		On exit  : 0/0
  4228 ;;		Unchanged: 0/0
  4229 ;; Data sizes:     COMRAM   BANK0   BANK1   BANK2   BANK3   BANK4   BANK5   BANK6   BANK7
  4230 ;;      Params:         0       0       0       0       0       0       0       0       0
  4231 ;;      Locals:         0       0       0       0       0       0       0       0       0
  4232 ;;      Temps:          6       0       0       0       0       0       0       0       0
  4233 ;;      Totals:         6       0       0       0       0       0       0       0       0
  4234 ;;Total ram usage:        6 bytes
  4235 ;; Hardware stack levels used: 1
  4236 ;; Hardware stack levels required when called: 4
  4237 ;; This function calls:
  4238 ;;		i2_BorraLCD
  4239 ;;		i2_DireccionaLCD
  4240 ;;		i2_MensajeLCD_Var
  4241 ;;		i2_Transmitir
  4242 ;;		i2_guardarV
  4243 ;;		i2_setorigin
  4244 ;; This function is called by:
  4245 ;;		Interrupt level 2
  4246 ;; This function uses a non-reentrant model
  4247 ;;
  4248                           
  4249                           	psect	intcode
  4250  000008                     __pintcode:
  4251                           	callstack 0
  4252  000008                     _ISR:
  4253                           	callstack 22
  4254                           
  4255                           ;incstack = 0
  4256  000008  824D               	bsf	int$flags,1,c	;set compiler interrupt flag (level 2)
  4257  00000A  EDBA  F008         	call	int_func,f	;refresh shadow registers
  4258                           
  4259                           	psect	intcode_body
  4260  001174                     __pintcode_body:
  4261                           	callstack 22
  4262  001174                     int_func:
  4263                           	callstack 22
  4264  001174  0006               	pop		; remove dummy address from shadow register refresh
  4265  001176  CFD9 F02D          	movff	fsr2l,??_ISR
  4266  00117A  CFDA F02E          	movff	fsr2h,??_ISR+1
  4267  00117E  CFF6 F02F          	movff	tblptrl,??_ISR+2
  4268  001182  CFF7 F030          	movff	tblptrh,??_ISR+3
  4269  001186  CFF8 F031          	movff	tblptru,??_ISR+4
  4270  00118A  CFF5 F032          	movff	tablat,??_ISR+5
  4271  00118E                     
  4272                           ;proyectofinal.c: 339:     if(RCIF==1){
  4273  00118E  AA9E               	btfss	3998,5,c	;volatile
  4274  001190  EFCC  F008         	goto	i2u207_41
  4275  001194  EFCE  F008         	goto	i2u207_40
  4276  001198                     i2u207_41:
  4277  001198  EF98  F009         	goto	i2l2899
  4278  00119C                     i2u207_40:
  4279  00119C                     
  4280                           ;proyectofinal.c: 340:        lectura=RCREG;
  4281  00119C  CFAE F01D          	movff	4014,_lectura	;volatile
  4282  0011A0                     
  4283                           ;proyectofinal.c: 341:        contador=0;
  4284  0011A0  0E00               	movlw	0
  4285  0011A2  6E16               	movwf	(_contador+1)^0,c
  4286  0011A4  0E00               	movlw	0
  4287  0011A6  6E15               	movwf	_contador^0,c
  4288  0011A8                     
  4289                           ;proyectofinal.c: 342:        if(estado==1){
  4290  0011A8  0413               	decf	_estado^0,w,c
  4291  0011AA  1014               	iorwf	(_estado+1)^0,w,c
  4292  0011AC  A4D8               	btfss	status,2,c
  4293  0011AE  EFDB  F008         	goto	i2u208_41
  4294  0011B2  EFDD  F008         	goto	i2u208_40
  4295  0011B6                     i2u208_41:
  4296  0011B6  EF97  F009         	goto	i2l2897
  4297  0011BA                     i2u208_40:
  4298  0011BA                     
  4299                           ;proyectofinal.c: 343:        Transmitir(lectura);
  4300  0011BA  501D               	movf	_lectura^0,w,c
  4301  0011BC  ECB1  F012         	call	i2_Transmitir
  4302  0011C0                     
  4303                           ;proyectofinal.c: 344:        if(lectura=='1')carro=1;
  4304  0011C0  0E31               	movlw	49
  4305  0011C2  181D               	xorwf	_lectura^0,w,c
  4306  0011C4  A4D8               	btfss	status,2,c
  4307  0011C6  EFE7  F008         	goto	i2u209_41
  4308  0011CA  EFE9  F008         	goto	i2u209_40
  4309  0011CE                     i2u209_41:
  4310  0011CE  EFED  F008         	goto	i2l2847
  4311  0011D2                     i2u209_40:
  4312  0011D2  0E00               	movlw	0
  4313  0011D4  6E18               	movwf	(_carro+1)^0,c
  4314  0011D6  0E01               	movlw	1
  4315  0011D8  6E17               	movwf	_carro^0,c
  4316  0011DA                     i2l2847:
  4317                           
  4318                           ;proyectofinal.c: 345:        if(lectura=='2')carro=2;
  4319  0011DA  0E32               	movlw	50
  4320  0011DC  181D               	xorwf	_lectura^0,w,c
  4321  0011DE  A4D8               	btfss	status,2,c
  4322  0011E0  EFF4  F008         	goto	i2u210_41
  4323  0011E4  EFF6  F008         	goto	i2u210_40
  4324  0011E8                     i2u210_41:
  4325  0011E8  EFFA  F008         	goto	i2l2851
  4326  0011EC                     i2u210_40:
  4327  0011EC  0E00               	movlw	0
  4328  0011EE  6E18               	movwf	(_carro+1)^0,c
  4329  0011F0  0E02               	movlw	2
  4330  0011F2  6E17               	movwf	_carro^0,c
  4331  0011F4                     i2l2851:
  4332                           
  4333                           ;proyectofinal.c: 346:        if(lectura=='3')carro=3;
  4334  0011F4  0E33               	movlw	51
  4335  0011F6  181D               	xorwf	_lectura^0,w,c
  4336  0011F8  A4D8               	btfss	status,2,c
  4337  0011FA  EF01  F009         	goto	i2u211_41
  4338  0011FE  EF03  F009         	goto	i2u211_40
  4339  001202                     i2u211_41:
  4340  001202  EF07  F009         	goto	i2l2855
  4341  001206                     i2u211_40:
  4342  001206  0E00               	movlw	0
  4343  001208  6E18               	movwf	(_carro+1)^0,c
  4344  00120A  0E03               	movlw	3
  4345  00120C  6E17               	movwf	_carro^0,c
  4346  00120E                     i2l2855:
  4347                           
  4348                           ;proyectofinal.c: 347:        if(lectura=='4')carro=4;
  4349  00120E  0E34               	movlw	52
  4350  001210  181D               	xorwf	_lectura^0,w,c
  4351  001212  A4D8               	btfss	status,2,c
  4352  001214  EF0E  F009         	goto	i2u212_41
  4353  001218  EF10  F009         	goto	i2u212_40
  4354  00121C                     i2u212_41:
  4355  00121C  EF14  F009         	goto	i2l2859
  4356  001220                     i2u212_40:
  4357  001220  0E00               	movlw	0
  4358  001222  6E18               	movwf	(_carro+1)^0,c
  4359  001224  0E04               	movlw	4
  4360  001226  6E17               	movwf	_carro^0,c
  4361  001228                     i2l2859:
  4362                           
  4363                           ;proyectofinal.c: 348:        if(lectura=='5')carro=5;
  4364  001228  0E35               	movlw	53
  4365  00122A  181D               	xorwf	_lectura^0,w,c
  4366  00122C  A4D8               	btfss	status,2,c
  4367  00122E  EF1B  F009         	goto	i2u213_41
  4368  001232  EF1D  F009         	goto	i2u213_40
  4369  001236                     i2u213_41:
  4370  001236  EF21  F009         	goto	i2l2863
  4371  00123A                     i2u213_40:
  4372  00123A  0E00               	movlw	0
  4373  00123C  6E18               	movwf	(_carro+1)^0,c
  4374  00123E  0E05               	movlw	5
  4375  001240  6E17               	movwf	_carro^0,c
  4376  001242                     i2l2863:
  4377                           
  4378                           ;proyectofinal.c: 349:        if(lectura=='6')carro=6;
  4379  001242  0E36               	movlw	54
  4380  001244  181D               	xorwf	_lectura^0,w,c
  4381  001246  A4D8               	btfss	status,2,c
  4382  001248  EF28  F009         	goto	i2u214_41
  4383  00124C  EF2A  F009         	goto	i2u214_40
  4384  001250                     i2u214_41:
  4385  001250  EF2E  F009         	goto	i2l2867
  4386  001254                     i2u214_40:
  4387  001254  0E00               	movlw	0
  4388  001256  6E18               	movwf	(_carro+1)^0,c
  4389  001258  0E06               	movlw	6
  4390  00125A  6E17               	movwf	_carro^0,c
  4391  00125C                     i2l2867:
  4392                           
  4393                           ;proyectofinal.c: 350:        if(lectura=='7')carro=7;
  4394  00125C  0E37               	movlw	55
  4395  00125E  181D               	xorwf	_lectura^0,w,c
  4396  001260  A4D8               	btfss	status,2,c
  4397  001262  EF35  F009         	goto	i2u215_41
  4398  001266  EF37  F009         	goto	i2u215_40
  4399  00126A                     i2u215_41:
  4400  00126A  EF3B  F009         	goto	i2l2871
  4401  00126E                     i2u215_40:
  4402  00126E  0E00               	movlw	0
  4403  001270  6E18               	movwf	(_carro+1)^0,c
  4404  001272  0E07               	movlw	7
  4405  001274  6E17               	movwf	_carro^0,c
  4406  001276                     i2l2871:
  4407                           
  4408                           ;proyectofinal.c: 351:        if(lectura=='8')carro=8;
  4409  001276  0E38               	movlw	56
  4410  001278  181D               	xorwf	_lectura^0,w,c
  4411  00127A  A4D8               	btfss	status,2,c
  4412  00127C  EF42  F009         	goto	i2u216_41
  4413  001280  EF44  F009         	goto	i2u216_40
  4414  001284                     i2u216_41:
  4415  001284  EF48  F009         	goto	i2l2875
  4416  001288                     i2u216_40:
  4417  001288  0E00               	movlw	0
  4418  00128A  6E18               	movwf	(_carro+1)^0,c
  4419  00128C  0E08               	movlw	8
  4420  00128E  6E17               	movwf	_carro^0,c
  4421  001290                     i2l2875:
  4422                           
  4423                           ;proyectofinal.c: 352:        if(lectura=='9')carro=9;
  4424  001290  0E39               	movlw	57
  4425  001292  181D               	xorwf	_lectura^0,w,c
  4426  001294  A4D8               	btfss	status,2,c
  4427  001296  EF4F  F009         	goto	i2u217_41
  4428  00129A  EF51  F009         	goto	i2u217_40
  4429  00129E                     i2u217_41:
  4430  00129E  EF55  F009         	goto	i2l2879
  4431  0012A2                     i2u217_40:
  4432  0012A2  0E00               	movlw	0
  4433  0012A4  6E18               	movwf	(_carro+1)^0,c
  4434  0012A6  0E09               	movlw	9
  4435  0012A8  6E17               	movwf	_carro^0,c
  4436  0012AA                     i2l2879:
  4437                           
  4438                           ;proyectofinal.c: 353:        if(lectura=='G'||lectura=='g')estado=3;
  4439  0012AA  0E47               	movlw	71
  4440  0012AC  181D               	xorwf	_lectura^0,w,c
  4441  0012AE  B4D8               	btfsc	status,2,c
  4442  0012B0  EF5C  F009         	goto	i2u218_41
  4443  0012B4  EF5E  F009         	goto	i2u218_40
  4444  0012B8                     i2u218_41:
  4445  0012B8  EF67  F009         	goto	i2l2883
  4446  0012BC                     i2u218_40:
  4447  0012BC  0E67               	movlw	103
  4448  0012BE  181D               	xorwf	_lectura^0,w,c
  4449  0012C0  A4D8               	btfss	status,2,c
  4450  0012C2  EF65  F009         	goto	i2u219_41
  4451  0012C6  EF67  F009         	goto	i2u219_40
  4452  0012CA                     i2u219_41:
  4453  0012CA  EF6B  F009         	goto	i2l2885
  4454  0012CE                     i2u219_40:
  4455  0012CE                     i2l2883:
  4456  0012CE  0E00               	movlw	0
  4457  0012D0  6E14               	movwf	(_estado+1)^0,c
  4458  0012D2  0E03               	movlw	3
  4459  0012D4  6E13               	movwf	_estado^0,c
  4460  0012D6                     i2l2885:
  4461                           
  4462                           ;proyectofinal.c: 354:        if(lectura=='S'||lectura=='s')estado=4;
  4463  0012D6  0E53               	movlw	83
  4464  0012D8  181D               	xorwf	_lectura^0,w,c
  4465  0012DA  B4D8               	btfsc	status,2,c
  4466  0012DC  EF72  F009         	goto	i2u220_41
  4467  0012E0  EF74  F009         	goto	i2u220_40
  4468  0012E4                     i2u220_41:
  4469  0012E4  EF7D  F009         	goto	i2l2889
  4470  0012E8                     i2u220_40:
  4471  0012E8  0E73               	movlw	115
  4472  0012EA  181D               	xorwf	_lectura^0,w,c
  4473  0012EC  A4D8               	btfss	status,2,c
  4474  0012EE  EF7B  F009         	goto	i2u221_41
  4475  0012F2  EF7D  F009         	goto	i2u221_40
  4476  0012F6                     i2u221_41:
  4477  0012F6  EF81  F009         	goto	i2l2891
  4478  0012FA                     i2u221_40:
  4479  0012FA                     i2l2889:
  4480  0012FA  0E00               	movlw	0
  4481  0012FC  6E14               	movwf	(_estado+1)^0,c
  4482  0012FE  0E04               	movlw	4
  4483  001300  6E13               	movwf	_estado^0,c
  4484  001302                     i2l2891:
  4485                           
  4486                           ;proyectofinal.c: 355:        if(lectura=='H'||lectura=='h')estado=0;
  4487  001302  0E48               	movlw	72
  4488  001304  181D               	xorwf	_lectura^0,w,c
  4489  001306  B4D8               	btfsc	status,2,c
  4490  001308  EF88  F009         	goto	i2u222_41
  4491  00130C  EF8A  F009         	goto	i2u222_40
  4492  001310                     i2u222_41:
  4493  001310  EF93  F009         	goto	i2l2895
  4494  001314                     i2u222_40:
  4495  001314  0E68               	movlw	104
  4496  001316  181D               	xorwf	_lectura^0,w,c
  4497  001318  A4D8               	btfss	status,2,c
  4498  00131A  EF91  F009         	goto	i2u223_41
  4499  00131E  EF93  F009         	goto	i2u223_40
  4500  001322                     i2u223_41:
  4501  001322  EF97  F009         	goto	i2l2897
  4502  001326                     i2u223_40:
  4503  001326                     i2l2895:
  4504  001326  0E00               	movlw	0
  4505  001328  6E14               	movwf	(_estado+1)^0,c
  4506  00132A  0E00               	movlw	0
  4507  00132C  6E13               	movwf	_estado^0,c
  4508  00132E                     i2l2897:
  4509                           
  4510                           ;proyectofinal.c: 357:        RCIF=0;
  4511  00132E  9A9E               	bcf	3998,5,c	;volatile
  4512  001330                     i2l2899:
  4513                           
  4514                           ;proyectofinal.c: 359:     if(TMR0IF==1){
  4515  001330  A4F2               	btfss	4082,2,c	;volatile
  4516  001332  EF9D  F009         	goto	i2u224_41
  4517  001336  EF9F  F009         	goto	i2u224_40
  4518  00133A                     i2u224_41:
  4519  00133A  EF04  F00A         	goto	i2l409
  4520  00133E                     i2u224_40:
  4521  00133E                     
  4522                           ;proyectofinal.c: 360:         TMR0IF=0;
  4523  00133E  94F2               	bcf	4082,2,c	;volatile
  4524  001340                     
  4525                           ;proyectofinal.c: 361:         if(estado==1){
  4526  001340  0413               	decf	_estado^0,w,c
  4527  001342  1014               	iorwf	(_estado+1)^0,w,c
  4528  001344  A4D8               	btfss	status,2,c
  4529  001346  EFA7  F009         	goto	i2u225_41
  4530  00134A  EFA9  F009         	goto	i2u225_40
  4531  00134E                     i2u225_41:
  4532  00134E  EFAB  F009         	goto	i2l2907
  4533  001352                     i2u225_40:
  4534  001352                     
  4535                           ;proyectofinal.c: 362:             contador++;
  4536  001352  4A15               	infsnz	_contador^0,f,c
  4537  001354  2A16               	incf	(_contador+1)^0,f,c
  4538  001356                     i2l2907:
  4539                           
  4540                           ;proyectofinal.c: 364:         if(contador>80 && vactual==0 ){
  4541  001356  BE16               	btfsc	(_contador+1)^0,7,c
  4542  001358  EFB7  F009         	goto	i2u226_41
  4543  00135C  5016               	movf	(_contador+1)^0,w,c
  4544  00135E  E109               	bnz	i2u226_40
  4545  001360  0E51               	movlw	81
  4546  001362  5C15               	subwf	_contador^0,w,c
  4547  001364  A0D8               	btfss	status,0,c
  4548  001366  EFB7  F009         	goto	i2u226_41
  4549  00136A  EFB9  F009         	goto	i2u226_40
  4550  00136E                     i2u226_41:
  4551  00136E  EFDB  F009         	goto	i2l2921
  4552  001372                     i2u226_40:
  4553  001372  5019               	movf	_vactual^0,w,c
  4554  001374  101A               	iorwf	(_vactual+1)^0,w,c
  4555  001376  A4D8               	btfss	status,2,c
  4556  001378  EFC0  F009         	goto	i2u227_41
  4557  00137C  EFC2  F009         	goto	i2u227_40
  4558  001380                     i2u227_41:
  4559  001380  EFDB  F009         	goto	i2l2921
  4560  001384                     i2u227_40:
  4561  001384                     
  4562                           ;proyectofinal.c: 365:             BorraLCD();
  4563  001384  ECE6  F012         	call	i2_BorraLCD	;wreg free
  4564  001388                     
  4565                           ;proyectofinal.c: 366:             MensajeLCD_Var("calibracion");
  4566  001388  0E3C               	movlw	low STR_9
  4567  00138A  6E27               	movwf	i2MensajeLCD_Var@a^0,c
  4568  00138C  0E08               	movlw	high STR_9
  4569  00138E  6E28               	movwf	(i2MensajeLCD_Var@a+1)^0,c
  4570  001390  EC5B  F012         	call	i2_MensajeLCD_Var	;wreg free
  4571  001394                     
  4572                           ;proyectofinal.c: 367:             DireccionaLCD(0xC0);
  4573  001394  0EC0               	movlw	192
  4574  001396  ECC7  F012         	call	i2_DireccionaLCD
  4575                           
  4576                           ;proyectofinal.c: 368:             MensajeLCD_Var("Rutinaria");
  4577  00139A  0E5F               	movlw	low STR_10
  4578  00139C  6E27               	movwf	i2MensajeLCD_Var@a^0,c
  4579  00139E  0E08               	movlw	high STR_10
  4580  0013A0  6E28               	movwf	(i2MensajeLCD_Var@a+1)^0,c
  4581  0013A2  EC5B  F012         	call	i2_MensajeLCD_Var	;wreg free
  4582  0013A6                     
  4583                           ;proyectofinal.c: 369:             contador=0;
  4584  0013A6  0E00               	movlw	0
  4585  0013A8  6E16               	movwf	(_contador+1)^0,c
  4586  0013AA  0E00               	movlw	0
  4587  0013AC  6E15               	movwf	_contador^0,c
  4588  0013AE                     
  4589                           ;proyectofinal.c: 370:             setorigin();
  4590  0013AE  EC8E  F00E         	call	i2_setorigin	;wreg free
  4591                           
  4592                           ;proyectofinal.c: 371:         }
  4593  0013B2  EF00  F00A         	goto	i2l2933
  4594  0013B6                     i2l2921:
  4595  0013B6  BE16               	btfsc	(_contador+1)^0,7,c
  4596  0013B8  EFE7  F009         	goto	i2u228_41
  4597  0013BC  5016               	movf	(_contador+1)^0,w,c
  4598  0013BE  E109               	bnz	i2u228_40
  4599  0013C0  0E65               	movlw	101
  4600  0013C2  5C15               	subwf	_contador^0,w,c
  4601  0013C4  A0D8               	btfss	status,0,c
  4602  0013C6  EFE7  F009         	goto	i2u228_41
  4603  0013CA  EFE9  F009         	goto	i2u228_40
  4604  0013CE                     i2u228_41:
  4605  0013CE  EF00  F00A         	goto	i2l2933
  4606  0013D2                     i2u228_40:
  4607  0013D2                     
  4608                           ;proyectofinal.c: 373:             BorraLCD();
  4609  0013D2  ECE6  F012         	call	i2_BorraLCD	;wreg free
  4610  0013D6                     
  4611                           ;proyectofinal.c: 374:             MensajeLCD_Var("guardando por:");
  4612  0013D6  0E21               	movlw	low STR_11
  4613  0013D8  6E27               	movwf	i2MensajeLCD_Var@a^0,c
  4614  0013DA  0E08               	movlw	high STR_11
  4615  0013DC  6E28               	movwf	(i2MensajeLCD_Var@a+1)^0,c
  4616  0013DE  EC5B  F012         	call	i2_MensajeLCD_Var	;wreg free
  4617  0013E2                     
  4618                           ;proyectofinal.c: 375:             DireccionaLCD(0xC0);
  4619  0013E2  0EC0               	movlw	192
  4620  0013E4  ECC7  F012         	call	i2_DireccionaLCD
  4621                           
  4622                           ;proyectofinal.c: 376:             MensajeLCD_Var("inactividad");
  4623  0013E8  0E30               	movlw	low STR_12
  4624  0013EA  6E27               	movwf	i2MensajeLCD_Var@a^0,c
  4625  0013EC  0E08               	movlw	high STR_12
  4626  0013EE  6E28               	movwf	(i2MensajeLCD_Var@a+1)^0,c
  4627  0013F0  EC5B  F012         	call	i2_MensajeLCD_Var	;wreg free
  4628  0013F4                     
  4629                           ;proyectofinal.c: 377:             contador=60;
  4630  0013F4  0E00               	movlw	0
  4631  0013F6  6E16               	movwf	(_contador+1)^0,c
  4632  0013F8  0E3C               	movlw	60
  4633  0013FA  6E15               	movwf	_contador^0,c
  4634  0013FC                     
  4635                           ;proyectofinal.c: 378:             guardarV();
  4636  0013FC  EC3A  F00B         	call	i2_guardarV	;wreg free
  4637  001400                     i2l2933:
  4638                           
  4639                           ;proyectofinal.c: 381:         TMR0=3036;
  4640  001400  0E0B               	movlw	11
  4641  001402  6ED7               	movwf	215,c	;volatile
  4642  001404  0EDC               	movlw	220
  4643  001406  6ED6               	movwf	214,c	;volatile
  4644  001408                     i2l409:
  4645  001408  C032  FFF5         	movff	??_ISR+5,tablat
  4646  00140C  C031  FFF8         	movff	??_ISR+4,tblptru
  4647  001410  C030  FFF7         	movff	??_ISR+3,tblptrh
  4648  001414  C02F  FFF6         	movff	??_ISR+2,tblptrl
  4649  001418  C02E  FFDA         	movff	??_ISR+1,fsr2h
  4650  00141C  C02D  FFD9         	movff	??_ISR,fsr2l
  4651  001420  924D               	bcf	int$flags,1,c	;clear compiler interrupt flag (level 2)
  4652  001422  0011               	retfie		f
  4653  001424                     __end_of_ISR:
  4654                           	callstack 0
  4655                           
  4656 ;; *************** function i2_setorigin *****************
  4657 ;; Defined at:
  4658 ;;		line 134 in file "proyectofinal.c"
  4659 ;; Parameters:    Size  Location     Type
  4660 ;;		None
  4661 ;; Auto vars:     Size  Location     Type
  4662 ;;  i               2    1[COMRAM] int 
  4663 ;; Return value:  Size  Location     Type
  4664 ;;                  1    wreg      void 
  4665 ;; Registers used:
  4666 ;;		wreg, fsr2l, fsr2h, status,2, status,0
  4667 ;; Tracked objects:
  4668 ;;		On entry : 0/0
  4669 ;;		On exit  : 0/0
  4670 ;;		Unchanged: 0/0
  4671 ;; Data sizes:     COMRAM   BANK0   BANK1   BANK2   BANK3   BANK4   BANK5   BANK6   BANK7
  4672 ;;      Params:         0       0       0       0       0       0       0       0       0
  4673 ;;      Locals:         2       0       0       0       0       0       0       0       0
  4674 ;;      Temps:          1       0       0       0       0       0       0       0       0
  4675 ;;      Totals:         3       0       0       0       0       0       0       0       0
  4676 ;;Total ram usage:        3 bytes
  4677 ;; Hardware stack levels used: 1
  4678 ;; This function calls:
  4679 ;;		Nothing
  4680 ;; This function is called by:
  4681 ;;		_ISR
  4682 ;; This function uses a non-reentrant model
  4683 ;;
  4684                           
  4685                           	psect	text21
  4686  001D1C                     __ptext21:
  4687                           	callstack 0
  4688  001D1C                     i2_setorigin:
  4689                           	callstack 25
  4690  001D1C                     
  4691                           ;proyectofinal.c: 135:   LATE0 = 1;
  4692  001D1C  808D               	bsf	3981,0,c	;volatile
  4693                           
  4694                           ;proyectofinal.c: 136:   LATE1 = 1;
  4695  001D1E  828D               	bsf	3981,1,c	;volatile
  4696                           
  4697                           ;proyectofinal.c: 137:   LATE2 = 0;
  4698  001D20  948D               	bcf	3981,2,c	;volatile
  4699                           
  4700                           ;proyectofinal.c: 138:   while(RB2==1){
  4701  001D22  EFAA  F00E         	goto	i2l1737
  4702  001D26                     i2l295:
  4703                           
  4704                           ;proyectofinal.c: 139:         if(RB2 == 1)LATB5=1;
  4705  001D26  A481               	btfss	3969,2,c	;volatile
  4706  001D28  EF98  F00E         	goto	i2u82_41
  4707  001D2C  EF9A  F00E         	goto	i2u82_40
  4708  001D30                     i2u82_41:
  4709  001D30  EF9B  F00E         	goto	i2l1733
  4710  001D34                     i2u82_40:
  4711  001D34  8A8A               	bsf	3978,5,c	;volatile
  4712  001D36                     i2l1733:
  4713                           
  4714                           ;proyectofinal.c: 140:         _delay((unsigned long)((stepDelay)*(8000000/4000.0)));
  4715  001D36  0E03               	movlw	3
  4716  001D38  6E21               	movwf	??i2_setorigin^0,c
  4717  001D3A  0E98               	movlw	152
  4718  001D3C                     i2u304_47:
  4719  001D3C  2EE8               	decfsz	wreg,f,c
  4720  001D3E  D7FE               	bra	i2u304_47
  4721  001D40  2E21               	decfsz	??i2_setorigin^0,f,c
  4722  001D42  D7FC               	bra	i2u304_47
  4723  001D44                     
  4724                           ;proyectofinal.c: 141:         LATB5=0;
  4725  001D44  9A8A               	bcf	3978,5,c	;volatile
  4726                           
  4727                           ;proyectofinal.c: 142:         _delay((unsigned long)((stepDelay)*(8000000/4000.0)));
  4728  001D46  0E03               	movlw	3
  4729  001D48  6E21               	movwf	??i2_setorigin^0,c
  4730  001D4A  0E98               	movlw	152
  4731  001D4C                     i2u305_47:
  4732  001D4C  2EE8               	decfsz	wreg,f,c
  4733  001D4E  D7FE               	bra	i2u305_47
  4734  001D50  2E21               	decfsz	??i2_setorigin^0,f,c
  4735  001D52  D7FC               	bra	i2u305_47
  4736  001D54                     i2l1737:
  4737                           
  4738                           ;proyectofinal.c: 138:   while(RB2==1){
  4739  001D54  B481               	btfsc	3969,2,c	;volatile
  4740  001D56  EFAF  F00E         	goto	i2u83_41
  4741  001D5A  EFB1  F00E         	goto	i2u83_40
  4742  001D5E                     i2u83_41:
  4743  001D5E  EF93  F00E         	goto	i2l295
  4744  001D62                     i2u83_40:
  4745  001D62  EFD3  F00E         	goto	i2l1749
  4746  001D66                     i2l299:
  4747                           
  4748                           ;proyectofinal.c: 145:     if(RB0 == 1)LATB3=1;
  4749  001D66  A081               	btfss	3969,0,c	;volatile
  4750  001D68  EFB8  F00E         	goto	i2u84_41
  4751  001D6C  EFBA  F00E         	goto	i2u84_40
  4752  001D70                     i2u84_41:
  4753  001D70  EFBB  F00E         	goto	i2l300
  4754  001D74                     i2u84_40:
  4755  001D74  868A               	bsf	3978,3,c	;volatile
  4756  001D76                     i2l300:
  4757                           
  4758                           ;proyectofinal.c: 146:     if(RB1 == 1)LATB4=1;
  4759  001D76  A281               	btfss	3969,1,c	;volatile
  4760  001D78  EFC0  F00E         	goto	i2u85_41
  4761  001D7C  EFC2  F00E         	goto	i2u85_40
  4762  001D80                     i2u85_41:
  4763  001D80  EFC3  F00E         	goto	i2l1743
  4764  001D84                     i2u85_40:
  4765  001D84  888A               	bsf	3978,4,c	;volatile
  4766  001D86                     i2l1743:
  4767                           
  4768                           ;proyectofinal.c: 147:       _delay((unsigned long)((stepDelay)*(8000000/4000.0)));
  4769  001D86  0E03               	movlw	3
  4770  001D88  6E21               	movwf	??i2_setorigin^0,c
  4771  001D8A  0E98               	movlw	152
  4772  001D8C                     i2u306_47:
  4773  001D8C  2EE8               	decfsz	wreg,f,c
  4774  001D8E  D7FE               	bra	i2u306_47
  4775  001D90  2E21               	decfsz	??i2_setorigin^0,f,c
  4776  001D92  D7FC               	bra	i2u306_47
  4777  001D94                     
  4778                           ;proyectofinal.c: 148:       LATB3=0;
  4779  001D94  968A               	bcf	3978,3,c	;volatile
  4780  001D96                     
  4781                           ;proyectofinal.c: 149:       LATB4=0;
  4782  001D96  988A               	bcf	3978,4,c	;volatile
  4783                           
  4784                           ;proyectofinal.c: 150:       _delay((unsigned long)((stepDelay)*(8000000/4000.0)));
  4785  001D98  0E03               	movlw	3
  4786  001D9A  6E21               	movwf	??i2_setorigin^0,c
  4787  001D9C  0E98               	movlw	152
  4788  001D9E                     i2u307_47:
  4789  001D9E  2EE8               	decfsz	wreg,f,c
  4790  001DA0  D7FE               	bra	i2u307_47
  4791  001DA2  2E21               	decfsz	??i2_setorigin^0,f,c
  4792  001DA4  D7FC               	bra	i2u307_47
  4793  001DA6                     i2l1749:
  4794                           
  4795                           ;proyectofinal.c: 144:   while(RB0 == 1 || RB1 == 1){
  4796  001DA6  B081               	btfsc	3969,0,c	;volatile
  4797  001DA8  EFD8  F00E         	goto	i2u86_41
  4798  001DAC  EFDA  F00E         	goto	i2u86_40
  4799  001DB0                     i2u86_41:
  4800  001DB0  EFB3  F00E         	goto	i2l299
  4801  001DB4                     i2u86_40:
  4802  001DB4  B281               	btfsc	3969,1,c	;volatile
  4803  001DB6  EFDF  F00E         	goto	i2u87_41
  4804  001DBA  EFE1  F00E         	goto	i2u87_40
  4805  001DBE                     i2u87_41:
  4806  001DBE  EFB3  F00E         	goto	i2l299
  4807  001DC2                     i2u87_40:
  4808  001DC2                     
  4809                           ;proyectofinal.c: 152:     if(RB0 == 0){
  4810  001DC2  B081               	btfsc	3969,0,c	;volatile
  4811  001DC4  EFE6  F00E         	goto	i2u88_41
  4812  001DC8  EFE8  F00E         	goto	i2u88_40
  4813  001DCC                     i2u88_41:
  4814  001DCC  EFEE  F00E         	goto	i2l1755
  4815  001DD0                     i2u88_40:
  4816  001DD0                     
  4817                           ;proyectofinal.c: 153:         posX = 0;
  4818  001DD0  EE20  F009         	lfsr	2,_posX
  4819  001DD4  0E07               	movlw	7
  4820  001DD6                     i2u89_41:
  4821  001DD6  6ADE               	clrf	postinc2,c
  4822  001DD8  06E8               	decf	wreg,f,c
  4823  001DDA  E2FD               	bc	i2u89_41
  4824  001DDC                     i2l1755:
  4825                           
  4826                           ;proyectofinal.c: 155:     if(RB1== 0){
  4827  001DDC  B281               	btfsc	3969,1,c	;volatile
  4828  001DDE  EFF3  F00E         	goto	i2u90_41
  4829  001DE2  EFF5  F00E         	goto	i2u90_40
  4830  001DE6                     i2u90_41:
  4831  001DE6  EFFB  F00E         	goto	i2l1759
  4832  001DEA                     i2u90_40:
  4833  001DEA                     
  4834                           ;proyectofinal.c: 156:         posY = 0;
  4835  001DEA  EE20  F001         	lfsr	2,_posY
  4836  001DEE  0E07               	movlw	7
  4837  001DF0                     i2u91_41:
  4838  001DF0  6ADE               	clrf	postinc2,c
  4839  001DF2  06E8               	decf	wreg,f,c
  4840  001DF4  E2FD               	bc	i2u91_41
  4841  001DF6                     i2l1759:
  4842                           
  4843                           ;proyectofinal.c: 158:     LATE2 = 1;
  4844  001DF6  848D               	bsf	3981,2,c	;volatile
  4845  001DF8                     
  4846                           ;proyectofinal.c: 159:    for(int i=0;i<800;i++){
  4847  001DF8  0E00               	movlw	0
  4848  001DFA  6E23               	movwf	(i2setorigin@i+1)^0,c
  4849  001DFC  0E00               	movlw	0
  4850  001DFE  6E22               	movwf	i2setorigin@i^0,c
  4851  001E00                     i2l305:
  4852                           
  4853                           ;proyectofinal.c: 160:       LATB5 = 1;
  4854  001E00  8A8A               	bsf	3978,5,c	;volatile
  4855  001E02                     
  4856                           ;proyectofinal.c: 161:       _delay((unsigned long)((stepDelay)*(8000000/4000.0)));
  4857  001E02  0E03               	movlw	3
  4858  001E04  6E21               	movwf	??i2_setorigin^0,c
  4859  001E06  0E98               	movlw	152
  4860  001E08                     i2u308_47:
  4861  001E08  2EE8               	decfsz	wreg,f,c
  4862  001E0A  D7FE               	bra	i2u308_47
  4863  001E0C  2E21               	decfsz	??i2_setorigin^0,f,c
  4864  001E0E  D7FC               	bra	i2u308_47
  4865  001E10                     
  4866                           ;proyectofinal.c: 162:       LATB5 =0;
  4867  001E10  9A8A               	bcf	3978,5,c	;volatile
  4868                           
  4869                           ;proyectofinal.c: 163:       _delay((unsigned long)((stepDelay)*(8000000/4000.0)));
  4870  001E12  0E03               	movlw	3
  4871  001E14  6E21               	movwf	??i2_setorigin^0,c
  4872  001E16  0E98               	movlw	152
  4873  001E18                     i2u309_47:
  4874  001E18  2EE8               	decfsz	wreg,f,c
  4875  001E1A  D7FE               	bra	i2u309_47
  4876  001E1C  2E21               	decfsz	??i2_setorigin^0,f,c
  4877  001E1E  D7FC               	bra	i2u309_47
  4878  001E20                     
  4879                           ;proyectofinal.c: 164:       }
  4880  001E20  4A22               	infsnz	i2setorigin@i^0,f,c
  4881  001E22  2A23               	incf	(i2setorigin@i+1)^0,f,c
  4882  001E24  BE23               	btfsc	(i2setorigin@i+1)^0,7,c
  4883  001E26  EF1E  F00F         	goto	i2u92_41
  4884  001E2A  0E20               	movlw	32
  4885  001E2C  5C22               	subwf	i2setorigin@i^0,w,c
  4886  001E2E  0E03               	movlw	3
  4887  001E30  5823               	subwfb	(i2setorigin@i+1)^0,w,c
  4888  001E32  A0D8               	btfss	status,0,c
  4889  001E34  EF1E  F00F         	goto	i2u92_41
  4890  001E38  EF20  F00F         	goto	i2u92_40
  4891  001E3C                     i2u92_41:
  4892  001E3C  EF00  F00F         	goto	i2l305
  4893  001E40                     i2u92_40:
  4894  001E40                     
  4895                           ;proyectofinal.c: 165:     estadob=0;
  4896  001E40  0E00               	movlw	0
  4897  001E42  6E12               	movwf	(_estadob+1)^0,c
  4898  001E44  0E00               	movlw	0
  4899  001E46  6E11               	movwf	_estadob^0,c
  4900                           
  4901                           ;proyectofinal.c: 166:     estado=1;
  4902  001E48  0E00               	movlw	0
  4903  001E4A  6E14               	movwf	(_estado+1)^0,c
  4904  001E4C  0E01               	movlw	1
  4905  001E4E  6E13               	movwf	_estado^0,c
  4906                           
  4907                           ;proyectofinal.c: 167:     vactual=0;
  4908  001E50  0E00               	movlw	0
  4909  001E52  6E1A               	movwf	(_vactual+1)^0,c
  4910  001E54  0E00               	movlw	0
  4911  001E56  6E19               	movwf	_vactual^0,c
  4912  001E58  0012               	return		;funcret
  4913  001E5A                     __end_ofi2_setorigin:
  4914                           	callstack 0
  4915                           
  4916 ;; *************** function i2_guardarV *****************
  4917 ;; Defined at:
  4918 ;;		line 286 in file "proyectofinal.c"
  4919 ;; Parameters:    Size  Location     Type
  4920 ;;		None
  4921 ;; Auto vars:     Size  Location     Type
  4922 ;;		None
  4923 ;; Return value:  Size  Location     Type
  4924 ;;                  1    wreg      void 
  4925 ;; Registers used:
  4926 ;;		wreg, status,2, status,0, cstack
  4927 ;; Tracked objects:
  4928 ;;		On entry : 0/0
  4929 ;;		On exit  : 0/0
  4930 ;;		Unchanged: 0/0
  4931 ;; Data sizes:     COMRAM   BANK0   BANK1   BANK2   BANK3   BANK4   BANK5   BANK6   BANK7
  4932 ;;      Params:         0       0       0       0       0       0       0       0       0
  4933 ;;      Locals:         0       0       0       0       0       0       0       0       0
  4934 ;;      Temps:          0       0       0       0       0       0       0       0       0
  4935 ;;      Totals:         0       0       0       0       0       0       0       0       0
  4936 ;;Total ram usage:        0 bytes
  4937 ;; Hardware stack levels used: 1
  4938 ;; Hardware stack levels required when called: 1
  4939 ;; This function calls:
  4940 ;;		i2_Transmitir
  4941 ;;		i2_extender
  4942 ;;		i2_ira
  4943 ;;		i2_recoger
  4944 ;; This function is called by:
  4945 ;;		_ISR
  4946 ;; This function uses a non-reentrant model
  4947 ;;
  4948                           
  4949                           	psect	text22
  4950  001674                     __ptext22:
  4951                           	callstack 0
  4952  001674                     i2_guardarV:
  4953                           	callstack 24
  4954  001674                     
  4955                           ;proyectofinal.c: 287:     if(vactual!=0){
  4956  001674  5019               	movf	_vactual^0,w,c
  4957  001676  101A               	iorwf	(_vactual+1)^0,w,c
  4958  001678  B4D8               	btfsc	status,2,c
  4959  00167A  EF41  F00B         	goto	i2u194_41
  4960  00167E  EF43  F00B         	goto	i2u194_40
  4961  001682                     i2u194_41:
  4962  001682  EF2A  F00C         	goto	i2l2749
  4963  001686                     i2u194_40:
  4964  001686                     
  4965                           ;proyectofinal.c: 288:         ira(posX,posY-100);
  4966  001686  C009  F021         	movff	_posX,i2ira@desX
  4967  00168A  C00A  F022         	movff	_posX+1,i2ira@desX+1
  4968  00168E  0E9C               	movlw	156
  4969  001690  2401               	addwf	_posY^0,w,c
  4970  001692  6E23               	movwf	i2ira@desY^0,c
  4971  001694  0EFF               	movlw	255
  4972  001696  2002               	addwfc	(_posY+1)^0,w,c
  4973  001698  6E24               	movwf	(i2ira@desY+1)^0,c
  4974  00169A  ECCE  F005         	call	i2_ira	;wreg free
  4975  00169E                     
  4976                           ;proyectofinal.c: 289:         if(vactual==1){
  4977  00169E  0419               	decf	_vactual^0,w,c
  4978  0016A0  101A               	iorwf	(_vactual+1)^0,w,c
  4979  0016A2  A4D8               	btfss	status,2,c
  4980  0016A4  EF56  F00B         	goto	i2u195_41
  4981  0016A8  EF58  F00B         	goto	i2u195_40
  4982  0016AC                     i2u195_41:
  4983  0016AC  EF64  F00B         	goto	i2l2715
  4984  0016B0                     i2u195_40:
  4985  0016B0                     
  4986                           ;proyectofinal.c: 290:             ira(carro1[0],carro1[1]);
  4987  0016B0  C046  F021         	movff	_carro1,i2ira@desX
  4988  0016B4  C047  F022         	movff	_carro1+1,i2ira@desX+1
  4989  0016B8  C048  F023         	movff	_carro1+2,i2ira@desY
  4990  0016BC  C049  F024         	movff	_carro1+3,i2ira@desY+1
  4991  0016C0  ECCE  F005         	call	i2_ira	;wreg free
  4992                           
  4993                           ;proyectofinal.c: 291:         }
  4994  0016C4  EF14  F00C         	goto	i2l362
  4995  0016C8                     i2l2715:
  4996  0016C8  0E02               	movlw	2
  4997  0016CA  1819               	xorwf	_vactual^0,w,c
  4998  0016CC  101A               	iorwf	(_vactual+1)^0,w,c
  4999  0016CE  A4D8               	btfss	status,2,c
  5000  0016D0  EF6C  F00B         	goto	i2u196_41
  5001  0016D4  EF6E  F00B         	goto	i2u196_40
  5002  0016D8                     i2u196_41:
  5003  0016D8  EF7A  F00B         	goto	i2l2719
  5004  0016DC                     i2u196_40:
  5005  0016DC                     
  5006                           ;proyectofinal.c: 293:             ira(carro2[0],carro2[1]);
  5007  0016DC  C042  F021         	movff	_carro2,i2ira@desX
  5008  0016E0  C043  F022         	movff	_carro2+1,i2ira@desX+1
  5009  0016E4  C044  F023         	movff	_carro2+2,i2ira@desY
  5010  0016E8  C045  F024         	movff	_carro2+3,i2ira@desY+1
  5011  0016EC  ECCE  F005         	call	i2_ira	;wreg free
  5012                           
  5013                           ;proyectofinal.c: 294:         }
  5014  0016F0  EF14  F00C         	goto	i2l362
  5015  0016F4                     i2l2719:
  5016  0016F4  0E03               	movlw	3
  5017  0016F6  1819               	xorwf	_vactual^0,w,c
  5018  0016F8  101A               	iorwf	(_vactual+1)^0,w,c
  5019  0016FA  A4D8               	btfss	status,2,c
  5020  0016FC  EF82  F00B         	goto	i2u197_41
  5021  001700  EF84  F00B         	goto	i2u197_40
  5022  001704                     i2u197_41:
  5023  001704  EF90  F00B         	goto	i2l2723
  5024  001708                     i2u197_40:
  5025  001708                     
  5026                           ;proyectofinal.c: 296:             ira(carro3[0],carro3[1]);
  5027  001708  C03E  F021         	movff	_carro3,i2ira@desX
  5028  00170C  C03F  F022         	movff	_carro3+1,i2ira@desX+1
  5029  001710  C040  F023         	movff	_carro3+2,i2ira@desY
  5030  001714  C041  F024         	movff	_carro3+3,i2ira@desY+1
  5031  001718  ECCE  F005         	call	i2_ira	;wreg free
  5032                           
  5033                           ;proyectofinal.c: 297:         }
  5034  00171C  EF14  F00C         	goto	i2l362
  5035  001720                     i2l2723:
  5036  001720  0E04               	movlw	4
  5037  001722  1819               	xorwf	_vactual^0,w,c
  5038  001724  101A               	iorwf	(_vactual+1)^0,w,c
  5039  001726  A4D8               	btfss	status,2,c
  5040  001728  EF98  F00B         	goto	i2u198_41
  5041  00172C  EF9A  F00B         	goto	i2u198_40
  5042  001730                     i2u198_41:
  5043  001730  EFA6  F00B         	goto	i2l2727
  5044  001734                     i2u198_40:
  5045  001734                     
  5046                           ;proyectofinal.c: 299:             ira(carro4[0],carro4[1]);
  5047  001734  C03A  F021         	movff	_carro4,i2ira@desX
  5048  001738  C03B  F022         	movff	_carro4+1,i2ira@desX+1
  5049  00173C  C03C  F023         	movff	_carro4+2,i2ira@desY
  5050  001740  C03D  F024         	movff	_carro4+3,i2ira@desY+1
  5051  001744  ECCE  F005         	call	i2_ira	;wreg free
  5052                           
  5053                           ;proyectofinal.c: 300:         }
  5054  001748  EF14  F00C         	goto	i2l362
  5055  00174C                     i2l2727:
  5056  00174C  0E05               	movlw	5
  5057  00174E  1819               	xorwf	_vactual^0,w,c
  5058  001750  101A               	iorwf	(_vactual+1)^0,w,c
  5059  001752  A4D8               	btfss	status,2,c
  5060  001754  EFAE  F00B         	goto	i2u199_41
  5061  001758  EFB0  F00B         	goto	i2u199_40
  5062  00175C                     i2u199_41:
  5063  00175C  EFBC  F00B         	goto	i2l2731
  5064  001760                     i2u199_40:
  5065  001760                     
  5066                           ;proyectofinal.c: 302:             ira(carro5[0],carro5[1]);
  5067  001760  C070  F021         	movff	_carro5,i2ira@desX
  5068  001764  C071  F022         	movff	_carro5+1,i2ira@desX+1
  5069  001768  C072  F023         	movff	_carro5+2,i2ira@desY
  5070  00176C  C073  F024         	movff	_carro5+3,i2ira@desY+1
  5071  001770  ECCE  F005         	call	i2_ira	;wreg free
  5072                           
  5073                           ;proyectofinal.c: 303:         }else if(vactual==6){
  5074  001774  EF14  F00C         	goto	i2l362
  5075  001778                     i2l2731:
  5076  001778  0E06               	movlw	6
  5077  00177A  1819               	xorwf	_vactual^0,w,c
  5078  00177C  101A               	iorwf	(_vactual+1)^0,w,c
  5079  00177E  A4D8               	btfss	status,2,c
  5080  001780  EFC4  F00B         	goto	i2u200_41
  5081  001784  EFC6  F00B         	goto	i2u200_40
  5082  001788                     i2u200_41:
  5083  001788  EFD2  F00B         	goto	i2l2735
  5084  00178C                     i2u200_40:
  5085  00178C                     
  5086                           ;proyectofinal.c: 304:             ira(carro6[0],carro6[1]);
  5087  00178C  C06C  F021         	movff	_carro6,i2ira@desX
  5088  001790  C06D  F022         	movff	_carro6+1,i2ira@desX+1
  5089  001794  C06E  F023         	movff	_carro6+2,i2ira@desY
  5090  001798  C06F  F024         	movff	_carro6+3,i2ira@desY+1
  5091  00179C  ECCE  F005         	call	i2_ira	;wreg free
  5092                           
  5093                           ;proyectofinal.c: 305:         }else if(vactual==7){
  5094  0017A0  EF14  F00C         	goto	i2l362
  5095  0017A4                     i2l2735:
  5096  0017A4  0E07               	movlw	7
  5097  0017A6  1819               	xorwf	_vactual^0,w,c
  5098  0017A8  101A               	iorwf	(_vactual+1)^0,w,c
  5099  0017AA  A4D8               	btfss	status,2,c
  5100  0017AC  EFDA  F00B         	goto	i2u201_41
  5101  0017B0  EFDC  F00B         	goto	i2u201_40
  5102  0017B4                     i2u201_41:
  5103  0017B4  EFE8  F00B         	goto	i2l2739
  5104  0017B8                     i2u201_40:
  5105  0017B8                     
  5106                           ;proyectofinal.c: 306:             ira(carro7[0],carro7[1]);
  5107  0017B8  C068  F021         	movff	_carro7,i2ira@desX
  5108  0017BC  C069  F022         	movff	_carro7+1,i2ira@desX+1
  5109  0017C0  C06A  F023         	movff	_carro7+2,i2ira@desY
  5110  0017C4  C06B  F024         	movff	_carro7+3,i2ira@desY+1
  5111  0017C8  ECCE  F005         	call	i2_ira	;wreg free
  5112                           
  5113                           ;proyectofinal.c: 307:         }else if(vactual==8){
  5114  0017CC  EF14  F00C         	goto	i2l362
  5115  0017D0                     i2l2739:
  5116  0017D0  0E08               	movlw	8
  5117  0017D2  1819               	xorwf	_vactual^0,w,c
  5118  0017D4  101A               	iorwf	(_vactual+1)^0,w,c
  5119  0017D6  A4D8               	btfss	status,2,c
  5120  0017D8  EFF0  F00B         	goto	i2u202_41
  5121  0017DC  EFF2  F00B         	goto	i2u202_40
  5122  0017E0                     i2u202_41:
  5123  0017E0  EFFE  F00B         	goto	i2l2743
  5124  0017E4                     i2u202_40:
  5125  0017E4                     
  5126                           ;proyectofinal.c: 308:             ira(carro8[0],carro8[1]);
  5127  0017E4  C064  F021         	movff	_carro8,i2ira@desX
  5128  0017E8  C065  F022         	movff	_carro8+1,i2ira@desX+1
  5129  0017EC  C066  F023         	movff	_carro8+2,i2ira@desY
  5130  0017F0  C067  F024         	movff	_carro8+3,i2ira@desY+1
  5131  0017F4  ECCE  F005         	call	i2_ira	;wreg free
  5132                           
  5133                           ;proyectofinal.c: 309:         }else if(vactual==9){
  5134  0017F8  EF14  F00C         	goto	i2l362
  5135  0017FC                     i2l2743:
  5136  0017FC  0E09               	movlw	9
  5137  0017FE  1819               	xorwf	_vactual^0,w,c
  5138  001800  101A               	iorwf	(_vactual+1)^0,w,c
  5139  001802  A4D8               	btfss	status,2,c
  5140  001804  EF06  F00C         	goto	i2u203_41
  5141  001808  EF08  F00C         	goto	i2u203_40
  5142  00180C                     i2u203_41:
  5143  00180C  EF14  F00C         	goto	i2l372
  5144  001810                     i2u203_40:
  5145  001810                     
  5146                           ;proyectofinal.c: 310:             ira(carro9[0],carro9[1]);
  5147  001810  C060  F021         	movff	_carro9,i2ira@desX
  5148  001814  C061  F022         	movff	_carro9+1,i2ira@desX+1
  5149  001818  C062  F023         	movff	_carro9+2,i2ira@desY
  5150  00181C  C063  F024         	movff	_carro9+3,i2ira@desY+1
  5151  001820  ECCE  F005         	call	i2_ira	;wreg free
  5152  001824  EF14  F00C         	goto	i2l362
  5153  001828                     i2l372:
  5154  001828                     i2l362:
  5155                           
  5156                           ;proyectofinal.c: 312:         extender();
  5157  001828  ECAC  F011         	call	i2_extender	;wreg free
  5158                           
  5159                           ;proyectofinal.c: 313:         ira(posX,posY-50);
  5160  00182C  C009  F021         	movff	_posX,i2ira@desX
  5161  001830  C00A  F022         	movff	_posX+1,i2ira@desX+1
  5162  001834  0ECE               	movlw	206
  5163  001836  2401               	addwf	_posY^0,w,c
  5164  001838  6E23               	movwf	i2ira@desY^0,c
  5165  00183A  0EFF               	movlw	255
  5166  00183C  2002               	addwfc	(_posY+1)^0,w,c
  5167  00183E  6E24               	movwf	(i2ira@desY+1)^0,c
  5168  001840  ECCE  F005         	call	i2_ira	;wreg free
  5169                           
  5170                           ;proyectofinal.c: 314:         recoger();
  5171  001844  EC79  F011         	call	i2_recoger	;wreg free
  5172  001848                     
  5173                           ;proyectofinal.c: 315:         vactual=0;
  5174  001848  0E00               	movlw	0
  5175  00184A  6E1A               	movwf	(_vactual+1)^0,c
  5176  00184C  0E00               	movlw	0
  5177  00184E  6E19               	movwf	_vactual^0,c
  5178                           
  5179                           ;proyectofinal.c: 316:       }
  5180  001850  EF5D  F00C         	goto	i2l2751
  5181  001854                     i2l2749:
  5182                           
  5183                           ;proyectofinal.c: 318:         Transmitir('E');
  5184  001854  0E45               	movlw	69
  5185  001856  ECB1  F012         	call	i2_Transmitir
  5186                           
  5187                           ;proyectofinal.c: 319:         Transmitir('R');
  5188  00185A  0E52               	movlw	82
  5189  00185C  ECB1  F012         	call	i2_Transmitir
  5190                           
  5191                           ;proyectofinal.c: 320:         Transmitir('R');
  5192  001860  0E52               	movlw	82
  5193  001862  ECB1  F012         	call	i2_Transmitir
  5194                           
  5195                           ;proyectofinal.c: 321:         Transmitir('O');
  5196  001866  0E4F               	movlw	79
  5197  001868  ECB1  F012         	call	i2_Transmitir
  5198                           
  5199                           ;proyectofinal.c: 322:         Transmitir('R');
  5200  00186C  0E52               	movlw	82
  5201  00186E  ECB1  F012         	call	i2_Transmitir
  5202                           
  5203                           ;proyectofinal.c: 323:         Transmitir(' ');
  5204  001872  0E20               	movlw	32
  5205  001874  ECB1  F012         	call	i2_Transmitir
  5206                           
  5207                           ;proyectofinal.c: 324:         Transmitir('S');
  5208  001878  0E53               	movlw	83
  5209  00187A  ECB1  F012         	call	i2_Transmitir
  5210                           
  5211                           ;proyectofinal.c: 325:         Transmitir('A');
  5212  00187E  0E41               	movlw	65
  5213  001880  ECB1  F012         	call	i2_Transmitir
  5214                           
  5215                           ;proyectofinal.c: 326:         Transmitir('Q');
  5216  001884  0E51               	movlw	81
  5217  001886  ECB1  F012         	call	i2_Transmitir
  5218                           
  5219                           ;proyectofinal.c: 327:         Transmitir('U');
  5220  00188A  0E55               	movlw	85
  5221  00188C  ECB1  F012         	call	i2_Transmitir
  5222                           
  5223                           ;proyectofinal.c: 328:         Transmitir('E');
  5224  001890  0E45               	movlw	69
  5225  001892  ECB1  F012         	call	i2_Transmitir
  5226                           
  5227                           ;proyectofinal.c: 329:         Transmitir(' ');
  5228  001896  0E20               	movlw	32
  5229  001898  ECB1  F012         	call	i2_Transmitir
  5230                           
  5231                           ;proyectofinal.c: 330:         Transmitir('A');
  5232  00189C  0E41               	movlw	65
  5233  00189E  ECB1  F012         	call	i2_Transmitir
  5234                           
  5235                           ;proyectofinal.c: 331:         Transmitir('N');
  5236  0018A2  0E4E               	movlw	78
  5237  0018A4  ECB1  F012         	call	i2_Transmitir
  5238                           
  5239                           ;proyectofinal.c: 332:         Transmitir('T');
  5240  0018A8  0E54               	movlw	84
  5241  0018AA  ECB1  F012         	call	i2_Transmitir
  5242                           
  5243                           ;proyectofinal.c: 333:         Transmitir('E');
  5244  0018AE  0E45               	movlw	69
  5245  0018B0  ECB1  F012         	call	i2_Transmitir
  5246                           
  5247                           ;proyectofinal.c: 334:         Transmitir('S');
  5248  0018B4  0E53               	movlw	83
  5249  0018B6  ECB1  F012         	call	i2_Transmitir
  5250  0018BA                     i2l2751:
  5251                           
  5252                           ;proyectofinal.c: 336:     estado=1;
  5253  0018BA  0E00               	movlw	0
  5254  0018BC  6E14               	movwf	(_estado+1)^0,c
  5255  0018BE  0E01               	movlw	1
  5256  0018C0  6E13               	movwf	_estado^0,c
  5257  0018C2  0012               	return		;funcret
  5258  0018C4                     __end_ofi2_guardarV:
  5259                           	callstack 0
  5260                           
  5261 ;; *************** function i2_recoger *****************
  5262 ;; Defined at:
  5263 ;;		line 207 in file "proyectofinal.c"
  5264 ;; Parameters:    Size  Location     Type
  5265 ;;		None
  5266 ;; Auto vars:     Size  Location     Type
  5267 ;;  i               2    1[COMRAM] int 
  5268 ;; Return value:  Size  Location     Type
  5269 ;;                  1    wreg      void 
  5270 ;; Registers used:
  5271 ;;		wreg, status,2, status,0
  5272 ;; Tracked objects:
  5273 ;;		On entry : 0/0
  5274 ;;		On exit  : 0/0
  5275 ;;		Unchanged: 0/0
  5276 ;; Data sizes:     COMRAM   BANK0   BANK1   BANK2   BANK3   BANK4   BANK5   BANK6   BANK7
  5277 ;;      Params:         0       0       0       0       0       0       0       0       0
  5278 ;;      Locals:         2       0       0       0       0       0       0       0       0
  5279 ;;      Temps:          1       0       0       0       0       0       0       0       0
  5280 ;;      Totals:         3       0       0       0       0       0       0       0       0
  5281 ;;Total ram usage:        3 bytes
  5282 ;; Hardware stack levels used: 1
  5283 ;; This function calls:
  5284 ;;		Nothing
  5285 ;; This function is called by:
  5286 ;;		i2_guardarV
  5287 ;; This function uses a non-reentrant model
  5288 ;;
  5289                           
  5290                           	psect	text23
  5291  0022F2                     __ptext23:
  5292                           	callstack 0
  5293  0022F2                     i2_recoger:
  5294                           	callstack 24
  5295  0022F2                     
  5296                           ;proyectofinal.c: 208:   LATE2 = 0;
  5297  0022F2  948D               	bcf	3981,2,c	;volatile
  5298  0022F4                     
  5299                           ;proyectofinal.c: 209:   if(estadob==1){
  5300  0022F4  0411               	decf	_estadob^0,w,c
  5301  0022F6  1012               	iorwf	(_estadob+1)^0,w,c
  5302  0022F8  A4D8               	btfss	status,2,c
  5303  0022FA  EF81  F011         	goto	i2u170_41
  5304  0022FE  EF83  F011         	goto	i2u170_40
  5305  002302                     i2u170_41:
  5306  002302  EFA7  F011         	goto	i2l2505
  5307  002306                     i2u170_40:
  5308  002306                     
  5309                           ;proyectofinal.c: 210:    for(int i=0;i<1500;i++){
  5310  002306  0E00               	movlw	0
  5311  002308  6E23               	movwf	(i2recoger@i+1)^0,c
  5312  00230A  0E00               	movlw	0
  5313  00230C  6E22               	movwf	i2recoger@i^0,c
  5314  00230E                     i2l333:
  5315                           
  5316                           ;proyectofinal.c: 211:       LATB5 = 1;
  5317  00230E  8A8A               	bsf	3978,5,c	;volatile
  5318  002310                     
  5319                           ;proyectofinal.c: 212:       _delay((unsigned long)((stepDelay)*(8000000/4000.0)));
  5320  002310  0E03               	movlw	3
  5321  002312  6E21               	movwf	??i2_recoger^0,c
  5322  002314  0E98               	movlw	152
  5323  002316                     i2u310_47:
  5324  002316  2EE8               	decfsz	wreg,f,c
  5325  002318  D7FE               	bra	i2u310_47
  5326  00231A  2E21               	decfsz	??i2_recoger^0,f,c
  5327  00231C  D7FC               	bra	i2u310_47
  5328  00231E                     
  5329                           ;proyectofinal.c: 213:       LATB5 =0;
  5330  00231E  9A8A               	bcf	3978,5,c	;volatile
  5331                           
  5332                           ;proyectofinal.c: 214:       _delay((unsigned long)((stepDelay)*(8000000/4000.0)));
  5333  002320  0E03               	movlw	3
  5334  002322  6E21               	movwf	??i2_recoger^0,c
  5335  002324  0E98               	movlw	152
  5336  002326                     i2u311_47:
  5337  002326  2EE8               	decfsz	wreg,f,c
  5338  002328  D7FE               	bra	i2u311_47
  5339  00232A  2E21               	decfsz	??i2_recoger^0,f,c
  5340  00232C  D7FC               	bra	i2u311_47
  5341  00232E                     
  5342                           ;proyectofinal.c: 215:       }
  5343  00232E  4A22               	infsnz	i2recoger@i^0,f,c
  5344  002330  2A23               	incf	(i2recoger@i+1)^0,f,c
  5345  002332  BE23               	btfsc	(i2recoger@i+1)^0,7,c
  5346  002334  EFA5  F011         	goto	i2u171_41
  5347  002338  0EDC               	movlw	220
  5348  00233A  5C22               	subwf	i2recoger@i^0,w,c
  5349  00233C  0E05               	movlw	5
  5350  00233E  5823               	subwfb	(i2recoger@i+1)^0,w,c
  5351  002340  A0D8               	btfss	status,0,c
  5352  002342  EFA5  F011         	goto	i2u171_41
  5353  002346  EFA7  F011         	goto	i2u171_40
  5354  00234A                     i2u171_41:
  5355  00234A  EF87  F011         	goto	i2l333
  5356  00234E                     i2u171_40:
  5357  00234E                     i2l2505:
  5358                           
  5359                           ;proyectofinal.c: 217:   estadob=0;
  5360  00234E  0E00               	movlw	0
  5361  002350  6E12               	movwf	(_estadob+1)^0,c
  5362  002352  0E00               	movlw	0
  5363  002354  6E11               	movwf	_estadob^0,c
  5364  002356  0012               	return		;funcret
  5365  002358                     __end_ofi2_recoger:
  5366                           	callstack 0
  5367                           
  5368 ;; *************** function i2_ira *****************
  5369 ;; Defined at:
  5370 ;;		line 169 in file "proyectofinal.c"
  5371 ;; Parameters:    Size  Location     Type
  5372 ;;  desX            2    0[COMRAM] int 
  5373 ;;  desY            2    2[COMRAM] int 
  5374 ;; Auto vars:     Size  Location     Type
  5375 ;;		None
  5376 ;; Return value:  Size  Location     Type
  5377 ;;                  1    wreg      void 
  5378 ;; Registers used:
  5379 ;;		wreg, status,2, status,0
  5380 ;; Tracked objects:
  5381 ;;		On entry : 0/0
  5382 ;;		On exit  : 0/0
  5383 ;;		Unchanged: 0/0
  5384 ;; Data sizes:     COMRAM   BANK0   BANK1   BANK2   BANK3   BANK4   BANK5   BANK6   BANK7
  5385 ;;      Params:         4       0       0       0       0       0       0       0       0
  5386 ;;      Locals:         0       0       0       0       0       0       0       0       0
  5387 ;;      Temps:          8       0       0       0       0       0       0       0       0
  5388 ;;      Totals:        12       0       0       0       0       0       0       0       0
  5389 ;;Total ram usage:       12 bytes
  5390 ;; Hardware stack levels used: 1
  5391 ;; This function calls:
  5392 ;;		Nothing
  5393 ;; This function is called by:
  5394 ;;		i2_guardarV
  5395 ;; This function uses a non-reentrant model
  5396 ;;
  5397                           
  5398                           	psect	text24
  5399  000B9C                     __ptext24:
  5400                           	callstack 0
  5401  000B9C                     i2_ira:
  5402                           	callstack 24
  5403  000B9C                     
  5404                           ;proyectofinal.c: 170:  if(desX < posX)LATE0= 1;
  5405  000B9C  C021  F025         	movff	i2ira@desX,??i2_ira
  5406  000BA0  C022  F026         	movff	i2ira@desX+1,??i2_ira+1
  5407  000BA4  0E00               	movlw	0
  5408  000BA6  BE26               	btfsc	(??i2_ira+1)^0,7,c
  5409  000BA8  0EFF               	movlw	255
  5410  000BAA  6E27               	movwf	(??i2_ira+2)^0,c
  5411  000BAC  6E28               	movwf	(??i2_ira+3)^0,c
  5412  000BAE  6E29               	movwf	(??i2_ira+4)^0,c
  5413  000BB0  6E2A               	movwf	(??i2_ira+5)^0,c
  5414  000BB2  6E2B               	movwf	(??i2_ira+6)^0,c
  5415  000BB4  6E2C               	movwf	(??i2_ira+7)^0,c
  5416  000BB6  5009               	movf	_posX^0,w,c
  5417  000BB8  5C25               	subwf	??i2_ira^0,w,c
  5418  000BBA  500A               	movf	(_posX+1)^0,w,c
  5419  000BBC  5826               	subwfb	(??i2_ira+1)^0,w,c
  5420  000BBE  500B               	movf	(_posX+2)^0,w,c
  5421  000BC0  5827               	subwfb	(??i2_ira+2)^0,w,c
  5422  000BC2  500C               	movf	(_posX+3)^0,w,c
  5423  000BC4  5828               	subwfb	(??i2_ira+3)^0,w,c
  5424  000BC6  500D               	movf	(_posX+4)^0,w,c
  5425  000BC8  5829               	subwfb	(??i2_ira+4)^0,w,c
  5426  000BCA  500E               	movf	(_posX+5)^0,w,c
  5427  000BCC  582A               	subwfb	(??i2_ira+5)^0,w,c
  5428  000BCE  500F               	movf	(_posX+6)^0,w,c
  5429  000BD0  582B               	subwfb	(??i2_ira+6)^0,w,c
  5430  000BD2  5010               	movf	(_posX+7)^0,w,c
  5431  000BD4  582C               	subwfb	(??i2_ira+7)^0,w,c
  5432  000BD6  B0D8               	btfsc	status,0,c
  5433  000BD8  EFF0  F005         	goto	i2u160_41
  5434  000BDC  EFF2  F005         	goto	i2u160_40
  5435  000BE0                     i2u160_41:
  5436  000BE0  EFF5  F005         	goto	i2l310
  5437  000BE4                     i2u160_40:
  5438  000BE4  808D               	bsf	3981,0,c	;volatile
  5439  000BE6  EFF6  F005         	goto	i2l2439
  5440  000BEA                     i2l310:
  5441  000BEA  908D               	bcf	3981,0,c	;volatile
  5442  000BEC                     i2l2439:
  5443                           
  5444                           ;proyectofinal.c: 172:    if(desY < posY)LATE1 = 1;
  5445  000BEC  C023  F025         	movff	i2ira@desY,??i2_ira
  5446  000BF0  C024  F026         	movff	i2ira@desY+1,??i2_ira+1
  5447  000BF4  0E00               	movlw	0
  5448  000BF6  BE26               	btfsc	(??i2_ira+1)^0,7,c
  5449  000BF8  0EFF               	movlw	255
  5450  000BFA  6E27               	movwf	(??i2_ira+2)^0,c
  5451  000BFC  6E28               	movwf	(??i2_ira+3)^0,c
  5452  000BFE  6E29               	movwf	(??i2_ira+4)^0,c
  5453  000C00  6E2A               	movwf	(??i2_ira+5)^0,c
  5454  000C02  6E2B               	movwf	(??i2_ira+6)^0,c
  5455  000C04  6E2C               	movwf	(??i2_ira+7)^0,c
  5456  000C06  5001               	movf	_posY^0,w,c
  5457  000C08  5C25               	subwf	??i2_ira^0,w,c
  5458  000C0A  5002               	movf	(_posY+1)^0,w,c
  5459  000C0C  5826               	subwfb	(??i2_ira+1)^0,w,c
  5460  000C0E  5003               	movf	(_posY+2)^0,w,c
  5461  000C10  5827               	subwfb	(??i2_ira+2)^0,w,c
  5462  000C12  5004               	movf	(_posY+3)^0,w,c
  5463  000C14  5828               	subwfb	(??i2_ira+3)^0,w,c
  5464  000C16  5005               	movf	(_posY+4)^0,w,c
  5465  000C18  5829               	subwfb	(??i2_ira+4)^0,w,c
  5466  000C1A  5006               	movf	(_posY+5)^0,w,c
  5467  000C1C  582A               	subwfb	(??i2_ira+5)^0,w,c
  5468  000C1E  5007               	movf	(_posY+6)^0,w,c
  5469  000C20  582B               	subwfb	(??i2_ira+6)^0,w,c
  5470  000C22  5008               	movf	(_posY+7)^0,w,c
  5471  000C24  582C               	subwfb	(??i2_ira+7)^0,w,c
  5472  000C26  B0D8               	btfsc	status,0,c
  5473  000C28  EF18  F006         	goto	i2u161_41
  5474  000C2C  EF1A  F006         	goto	i2u161_40
  5475  000C30                     i2u161_41:
  5476  000C30  EF1D  F006         	goto	i2l312
  5477  000C34                     i2u161_40:
  5478  000C34  828D               	bsf	3981,1,c	;volatile
  5479  000C36  EFFA  F006         	goto	i2l314
  5480  000C3A                     i2l312:
  5481  000C3A  928D               	bcf	3981,1,c	;volatile
  5482  000C3C  EFFA  F006         	goto	i2l314
  5483  000C40                     i2l2443:
  5484                           
  5485                           ;proyectofinal.c: 175:     if( desX != posX){
  5486  000C40  C021  F025         	movff	i2ira@desX,??i2_ira
  5487  000C44  C022  F026         	movff	i2ira@desX+1,??i2_ira+1
  5488  000C48  0E00               	movlw	0
  5489  000C4A  BE26               	btfsc	(??i2_ira+1)^0,7,c
  5490  000C4C  0EFF               	movlw	255
  5491  000C4E  6E27               	movwf	(??i2_ira+2)^0,c
  5492  000C50  6E28               	movwf	(??i2_ira+3)^0,c
  5493  000C52  6E29               	movwf	(??i2_ira+4)^0,c
  5494  000C54  6E2A               	movwf	(??i2_ira+5)^0,c
  5495  000C56  6E2B               	movwf	(??i2_ira+6)^0,c
  5496  000C58  6E2C               	movwf	(??i2_ira+7)^0,c
  5497  000C5A  5009               	movf	_posX^0,w,c
  5498  000C5C  1825               	xorwf	??i2_ira^0,w,c
  5499  000C5E  E11B               	bnz	i2u162_40
  5500  000C60  500A               	movf	(_posX+1)^0,w,c
  5501  000C62  1826               	xorwf	(??i2_ira+1)^0,w,c
  5502  000C64  E118               	bnz	i2u162_40
  5503  000C66  500B               	movf	(_posX+2)^0,w,c
  5504  000C68  1827               	xorwf	(??i2_ira+2)^0,w,c
  5505  000C6A  E115               	bnz	i2u162_40
  5506  000C6C  500C               	movf	(_posX+3)^0,w,c
  5507  000C6E  1828               	xorwf	(??i2_ira+3)^0,w,c
  5508  000C70  E112               	bnz	i2u162_40
  5509  000C72  500D               	movf	(_posX+4)^0,w,c
  5510  000C74  1829               	xorwf	(??i2_ira+4)^0,w,c
  5511  000C76  E10F               	bnz	i2u162_40
  5512  000C78  500E               	movf	(_posX+5)^0,w,c
  5513  000C7A  182A               	xorwf	(??i2_ira+5)^0,w,c
  5514  000C7C  E10C               	bnz	i2u162_40
  5515  000C7E  500F               	movf	(_posX+6)^0,w,c
  5516  000C80  182B               	xorwf	(??i2_ira+6)^0,w,c
  5517  000C82  E109               	bnz	i2u162_40
  5518  000C84  5010               	movf	(_posX+7)^0,w,c
  5519  000C86  182C               	xorwf	(??i2_ira+7)^0,w,c
  5520  000C88  B4D8               	btfsc	status,2,c
  5521  000C8A  EF49  F006         	goto	i2u162_41
  5522  000C8E  EF4B  F006         	goto	i2u162_40
  5523  000C92                     i2u162_41:
  5524  000C92  EF85  F006         	goto	i2l316
  5525  000C96                     i2u162_40:
  5526  000C96                     
  5527                           ;proyectofinal.c: 176:        LATB3= 1;
  5528  000C96  868A               	bsf	3978,3,c	;volatile
  5529  000C98                     
  5530                           ;proyectofinal.c: 177:       if(desX < posX)posX--;
  5531  000C98  C021  F025         	movff	i2ira@desX,??i2_ira
  5532  000C9C  C022  F026         	movff	i2ira@desX+1,??i2_ira+1
  5533  000CA0  0E00               	movlw	0
  5534  000CA2  BE26               	btfsc	(??i2_ira+1)^0,7,c
  5535  000CA4  0EFF               	movlw	255
  5536  000CA6  6E27               	movwf	(??i2_ira+2)^0,c
  5537  000CA8  6E28               	movwf	(??i2_ira+3)^0,c
  5538  000CAA  6E29               	movwf	(??i2_ira+4)^0,c
  5539  000CAC  6E2A               	movwf	(??i2_ira+5)^0,c
  5540  000CAE  6E2B               	movwf	(??i2_ira+6)^0,c
  5541  000CB0  6E2C               	movwf	(??i2_ira+7)^0,c
  5542  000CB2  5009               	movf	_posX^0,w,c
  5543  000CB4  5C25               	subwf	??i2_ira^0,w,c
  5544  000CB6  500A               	movf	(_posX+1)^0,w,c
  5545  000CB8  5826               	subwfb	(??i2_ira+1)^0,w,c
  5546  000CBA  500B               	movf	(_posX+2)^0,w,c
  5547  000CBC  5827               	subwfb	(??i2_ira+2)^0,w,c
  5548  000CBE  500C               	movf	(_posX+3)^0,w,c
  5549  000CC0  5828               	subwfb	(??i2_ira+3)^0,w,c
  5550  000CC2  500D               	movf	(_posX+4)^0,w,c
  5551  000CC4  5829               	subwfb	(??i2_ira+4)^0,w,c
  5552  000CC6  500E               	movf	(_posX+5)^0,w,c
  5553  000CC8  582A               	subwfb	(??i2_ira+5)^0,w,c
  5554  000CCA  500F               	movf	(_posX+6)^0,w,c
  5555  000CCC  582B               	subwfb	(??i2_ira+6)^0,w,c
  5556  000CCE  5010               	movf	(_posX+7)^0,w,c
  5557  000CD0  582C               	subwfb	(??i2_ira+7)^0,w,c
  5558  000CD2  B0D8               	btfsc	status,0,c
  5559  000CD4  EF6E  F006         	goto	i2u163_41
  5560  000CD8  EF70  F006         	goto	i2u163_40
  5561  000CDC                     i2u163_41:
  5562  000CDC  EF7B  F006         	goto	i2l2451
  5563  000CE0                     i2u163_40:
  5564  000CE0  0609               	decf	_posX^0,f,c
  5565  000CE2  0E00               	movlw	0
  5566  000CE4  5A0A               	subwfb	(_posX+1)^0,f,c
  5567  000CE6  5A0B               	subwfb	(_posX+2)^0,f,c
  5568  000CE8  5A0C               	subwfb	(_posX+3)^0,f,c
  5569  000CEA  5A0D               	subwfb	(_posX+4)^0,f,c
  5570  000CEC  5A0E               	subwfb	(_posX+5)^0,f,c
  5571  000CEE  5A0F               	subwfb	(_posX+6)^0,f,c
  5572  000CF0  5A10               	subwfb	(_posX+7)^0,f,c
  5573  000CF2  EF85  F006         	goto	i2l316
  5574  000CF6                     i2l2451:
  5575  000CF6  0E01               	movlw	1
  5576  000CF8  2609               	addwf	_posX^0,f,c
  5577  000CFA  0E00               	movlw	0
  5578  000CFC  220A               	addwfc	(_posX+1)^0,f,c
  5579  000CFE  220B               	addwfc	(_posX+2)^0,f,c
  5580  000D00  220C               	addwfc	(_posX+3)^0,f,c
  5581  000D02  220D               	addwfc	(_posX+4)^0,f,c
  5582  000D04  220E               	addwfc	(_posX+5)^0,f,c
  5583  000D06  220F               	addwfc	(_posX+6)^0,f,c
  5584  000D08  2210               	addwfc	(_posX+7)^0,f,c
  5585  000D0A                     i2l316:
  5586                           
  5587                           ;proyectofinal.c: 180:     if( desY != posY){
  5588  000D0A  C023  F025         	movff	i2ira@desY,??i2_ira
  5589  000D0E  C024  F026         	movff	i2ira@desY+1,??i2_ira+1
  5590  000D12  0E00               	movlw	0
  5591  000D14  BE26               	btfsc	(??i2_ira+1)^0,7,c
  5592  000D16  0EFF               	movlw	255
  5593  000D18  6E27               	movwf	(??i2_ira+2)^0,c
  5594  000D1A  6E28               	movwf	(??i2_ira+3)^0,c
  5595  000D1C  6E29               	movwf	(??i2_ira+4)^0,c
  5596  000D1E  6E2A               	movwf	(??i2_ira+5)^0,c
  5597  000D20  6E2B               	movwf	(??i2_ira+6)^0,c
  5598  000D22  6E2C               	movwf	(??i2_ira+7)^0,c
  5599  000D24  5001               	movf	_posY^0,w,c
  5600  000D26  1825               	xorwf	??i2_ira^0,w,c
  5601  000D28  E11B               	bnz	i2u164_40
  5602  000D2A  5002               	movf	(_posY+1)^0,w,c
  5603  000D2C  1826               	xorwf	(??i2_ira+1)^0,w,c
  5604  000D2E  E118               	bnz	i2u164_40
  5605  000D30  5003               	movf	(_posY+2)^0,w,c
  5606  000D32  1827               	xorwf	(??i2_ira+2)^0,w,c
  5607  000D34  E115               	bnz	i2u164_40
  5608  000D36  5004               	movf	(_posY+3)^0,w,c
  5609  000D38  1828               	xorwf	(??i2_ira+3)^0,w,c
  5610  000D3A  E112               	bnz	i2u164_40
  5611  000D3C  5005               	movf	(_posY+4)^0,w,c
  5612  000D3E  1829               	xorwf	(??i2_ira+4)^0,w,c
  5613  000D40  E10F               	bnz	i2u164_40
  5614  000D42  5006               	movf	(_posY+5)^0,w,c
  5615  000D44  182A               	xorwf	(??i2_ira+5)^0,w,c
  5616  000D46  E10C               	bnz	i2u164_40
  5617  000D48  5007               	movf	(_posY+6)^0,w,c
  5618  000D4A  182B               	xorwf	(??i2_ira+6)^0,w,c
  5619  000D4C  E109               	bnz	i2u164_40
  5620  000D4E  5008               	movf	(_posY+7)^0,w,c
  5621  000D50  182C               	xorwf	(??i2_ira+7)^0,w,c
  5622  000D52  B4D8               	btfsc	status,2,c
  5623  000D54  EFAE  F006         	goto	i2u164_41
  5624  000D58  EFB0  F006         	goto	i2u164_40
  5625  000D5C                     i2u164_41:
  5626  000D5C  EFEA  F006         	goto	i2l2461
  5627  000D60                     i2u164_40:
  5628  000D60                     
  5629                           ;proyectofinal.c: 181:       LATB4 = 1;
  5630  000D60  888A               	bsf	3978,4,c	;volatile
  5631  000D62                     
  5632                           ;proyectofinal.c: 182:       if(desY < posY)posY--;
  5633  000D62  C023  F025         	movff	i2ira@desY,??i2_ira
  5634  000D66  C024  F026         	movff	i2ira@desY+1,??i2_ira+1
  5635  000D6A  0E00               	movlw	0
  5636  000D6C  BE26               	btfsc	(??i2_ira+1)^0,7,c
  5637  000D6E  0EFF               	movlw	255
  5638  000D70  6E27               	movwf	(??i2_ira+2)^0,c
  5639  000D72  6E28               	movwf	(??i2_ira+3)^0,c
  5640  000D74  6E29               	movwf	(??i2_ira+4)^0,c
  5641  000D76  6E2A               	movwf	(??i2_ira+5)^0,c
  5642  000D78  6E2B               	movwf	(??i2_ira+6)^0,c
  5643  000D7A  6E2C               	movwf	(??i2_ira+7)^0,c
  5644  000D7C  5001               	movf	_posY^0,w,c
  5645  000D7E  5C25               	subwf	??i2_ira^0,w,c
  5646  000D80  5002               	movf	(_posY+1)^0,w,c
  5647  000D82  5826               	subwfb	(??i2_ira+1)^0,w,c
  5648  000D84  5003               	movf	(_posY+2)^0,w,c
  5649  000D86  5827               	subwfb	(??i2_ira+2)^0,w,c
  5650  000D88  5004               	movf	(_posY+3)^0,w,c
  5651  000D8A  5828               	subwfb	(??i2_ira+3)^0,w,c
  5652  000D8C  5005               	movf	(_posY+4)^0,w,c
  5653  000D8E  5829               	subwfb	(??i2_ira+4)^0,w,c
  5654  000D90  5006               	movf	(_posY+5)^0,w,c
  5655  000D92  582A               	subwfb	(??i2_ira+5)^0,w,c
  5656  000D94  5007               	movf	(_posY+6)^0,w,c
  5657  000D96  582B               	subwfb	(??i2_ira+6)^0,w,c
  5658  000D98  5008               	movf	(_posY+7)^0,w,c
  5659  000D9A  582C               	subwfb	(??i2_ira+7)^0,w,c
  5660  000D9C  B0D8               	btfsc	status,0,c
  5661  000D9E  EFD3  F006         	goto	i2u165_41
  5662  000DA2  EFD5  F006         	goto	i2u165_40
  5663  000DA6                     i2u165_41:
  5664  000DA6  EFE0  F006         	goto	i2l2459
  5665  000DAA                     i2u165_40:
  5666  000DAA  0601               	decf	_posY^0,f,c
  5667  000DAC  0E00               	movlw	0
  5668  000DAE  5A02               	subwfb	(_posY+1)^0,f,c
  5669  000DB0  5A03               	subwfb	(_posY+2)^0,f,c
  5670  000DB2  5A04               	subwfb	(_posY+3)^0,f,c
  5671  000DB4  5A05               	subwfb	(_posY+4)^0,f,c
  5672  000DB6  5A06               	subwfb	(_posY+5)^0,f,c
  5673  000DB8  5A07               	subwfb	(_posY+6)^0,f,c
  5674  000DBA  5A08               	subwfb	(_posY+7)^0,f,c
  5675  000DBC  EFEA  F006         	goto	i2l2461
  5676  000DC0                     i2l2459:
  5677  000DC0  0E01               	movlw	1
  5678  000DC2  2601               	addwf	_posY^0,f,c
  5679  000DC4  0E00               	movlw	0
  5680  000DC6  2202               	addwfc	(_posY+1)^0,f,c
  5681  000DC8  2203               	addwfc	(_posY+2)^0,f,c
  5682  000DCA  2204               	addwfc	(_posY+3)^0,f,c
  5683  000DCC  2205               	addwfc	(_posY+4)^0,f,c
  5684  000DCE  2206               	addwfc	(_posY+5)^0,f,c
  5685  000DD0  2207               	addwfc	(_posY+6)^0,f,c
  5686  000DD2  2208               	addwfc	(_posY+7)^0,f,c
  5687  000DD4                     i2l2461:
  5688                           
  5689                           ;proyectofinal.c: 185:       _delay((unsigned long)((stepDelay)*(8000000/4000.0)));
  5690  000DD4  0E03               	movlw	3
  5691  000DD6  6E25               	movwf	??i2_ira^0,c
  5692  000DD8  0E98               	movlw	152
  5693  000DDA                     i2u312_47:
  5694  000DDA  2EE8               	decfsz	wreg,f,c
  5695  000DDC  D7FE               	bra	i2u312_47
  5696  000DDE  2E25               	decfsz	??i2_ira^0,f,c
  5697  000DE0  D7FC               	bra	i2u312_47
  5698  000DE2                     
  5699                           ;proyectofinal.c: 186:       LATB3=0;
  5700  000DE2  968A               	bcf	3978,3,c	;volatile
  5701  000DE4                     
  5702                           ;proyectofinal.c: 187:       LATB4=0;
  5703  000DE4  988A               	bcf	3978,4,c	;volatile
  5704  000DE6                     
  5705                           ;proyectofinal.c: 188:       _delay((unsigned long)((stepDelay)*(8000000/4000.0)));
  5706  000DE6  0E03               	movlw	3
  5707  000DE8  6E25               	movwf	??i2_ira^0,c
  5708  000DEA  0E98               	movlw	152
  5709  000DEC                     i2u313_47:
  5710  000DEC  2EE8               	decfsz	wreg,f,c
  5711  000DEE  D7FE               	bra	i2u313_47
  5712  000DF0  2E25               	decfsz	??i2_ira^0,f,c
  5713  000DF2  D7FC               	bra	i2u313_47
  5714  000DF4                     i2l314:
  5715                           
  5716                           ;proyectofinal.c: 174:   while(desX != posX || desY != posY){
  5717  000DF4  C021  F025         	movff	i2ira@desX,??i2_ira
  5718  000DF8  C022  F026         	movff	i2ira@desX+1,??i2_ira+1
  5719  000DFC  0E00               	movlw	0
  5720  000DFE  BE26               	btfsc	(??i2_ira+1)^0,7,c
  5721  000E00  0EFF               	movlw	255
  5722  000E02  6E27               	movwf	(??i2_ira+2)^0,c
  5723  000E04  6E28               	movwf	(??i2_ira+3)^0,c
  5724  000E06  6E29               	movwf	(??i2_ira+4)^0,c
  5725  000E08  6E2A               	movwf	(??i2_ira+5)^0,c
  5726  000E0A  6E2B               	movwf	(??i2_ira+6)^0,c
  5727  000E0C  6E2C               	movwf	(??i2_ira+7)^0,c
  5728  000E0E  5009               	movf	_posX^0,w,c
  5729  000E10  1825               	xorwf	??i2_ira^0,w,c
  5730  000E12  E119               	bnz	i2u166_41
  5731  000E14  500A               	movf	(_posX+1)^0,w,c
  5732  000E16  1826               	xorwf	(??i2_ira+1)^0,w,c
  5733  000E18  E116               	bnz	i2u166_41
  5734  000E1A  500B               	movf	(_posX+2)^0,w,c
  5735  000E1C  1827               	xorwf	(??i2_ira+2)^0,w,c
  5736  000E1E  E113               	bnz	i2u166_41
  5737  000E20  500C               	movf	(_posX+3)^0,w,c
  5738  000E22  1828               	xorwf	(??i2_ira+3)^0,w,c
  5739  000E24  E110               	bnz	i2u166_41
  5740  000E26  500D               	movf	(_posX+4)^0,w,c
  5741  000E28  1829               	xorwf	(??i2_ira+4)^0,w,c
  5742  000E2A  E10D               	bnz	i2u166_41
  5743  000E2C  500E               	movf	(_posX+5)^0,w,c
  5744  000E2E  182A               	xorwf	(??i2_ira+5)^0,w,c
  5745  000E30  E10A               	bnz	i2u166_41
  5746  000E32  500F               	movf	(_posX+6)^0,w,c
  5747  000E34  182B               	xorwf	(??i2_ira+6)^0,w,c
  5748  000E36  E107               	bnz	i2u166_41
  5749  000E38  5010               	movf	(_posX+7)^0,w,c
  5750  000E3A  182C               	xorwf	(??i2_ira+7)^0,w,c
  5751  000E3C  A4D8               	btfss	status,2,c
  5752  000E3E  EF23  F007         	goto	i2u166_41
  5753  000E42  EF25  F007         	goto	i2u166_40
  5754  000E46                     i2u166_41:
  5755  000E46  EF20  F006         	goto	i2l2443
  5756  000E4A                     i2u166_40:
  5757  000E4A  C023  F025         	movff	i2ira@desY,??i2_ira
  5758  000E4E  C024  F026         	movff	i2ira@desY+1,??i2_ira+1
  5759  000E52  0E00               	movlw	0
  5760  000E54  BE26               	btfsc	(??i2_ira+1)^0,7,c
  5761  000E56  0EFF               	movlw	255
  5762  000E58  6E27               	movwf	(??i2_ira+2)^0,c
  5763  000E5A  6E28               	movwf	(??i2_ira+3)^0,c
  5764  000E5C  6E29               	movwf	(??i2_ira+4)^0,c
  5765  000E5E  6E2A               	movwf	(??i2_ira+5)^0,c
  5766  000E60  6E2B               	movwf	(??i2_ira+6)^0,c
  5767  000E62  6E2C               	movwf	(??i2_ira+7)^0,c
  5768  000E64  5001               	movf	_posY^0,w,c
  5769  000E66  1825               	xorwf	??i2_ira^0,w,c
  5770  000E68  E119               	bnz	i2u167_41
  5771  000E6A  5002               	movf	(_posY+1)^0,w,c
  5772  000E6C  1826               	xorwf	(??i2_ira+1)^0,w,c
  5773  000E6E  E116               	bnz	i2u167_41
  5774  000E70  5003               	movf	(_posY+2)^0,w,c
  5775  000E72  1827               	xorwf	(??i2_ira+2)^0,w,c
  5776  000E74  E113               	bnz	i2u167_41
  5777  000E76  5004               	movf	(_posY+3)^0,w,c
  5778  000E78  1828               	xorwf	(??i2_ira+3)^0,w,c
  5779  000E7A  E110               	bnz	i2u167_41
  5780  000E7C  5005               	movf	(_posY+4)^0,w,c
  5781  000E7E  1829               	xorwf	(??i2_ira+4)^0,w,c
  5782  000E80  E10D               	bnz	i2u167_41
  5783  000E82  5006               	movf	(_posY+5)^0,w,c
  5784  000E84  182A               	xorwf	(??i2_ira+5)^0,w,c
  5785  000E86  E10A               	bnz	i2u167_41
  5786  000E88  5007               	movf	(_posY+6)^0,w,c
  5787  000E8A  182B               	xorwf	(??i2_ira+6)^0,w,c
  5788  000E8C  E107               	bnz	i2u167_41
  5789  000E8E  5008               	movf	(_posY+7)^0,w,c
  5790  000E90  182C               	xorwf	(??i2_ira+7)^0,w,c
  5791  000E92  A4D8               	btfss	status,2,c
  5792  000E94  EF4E  F007         	goto	i2u167_41
  5793  000E98  EF50  F007         	goto	i2u167_40
  5794  000E9C                     i2u167_41:
  5795  000E9C  EF20  F006         	goto	i2l2443
  5796  000EA0                     i2u167_40:
  5797  000EA0  0012               	return		;funcret
  5798  000EA2                     __end_ofi2_ira:
  5799                           	callstack 0
  5800                           
  5801 ;; *************** function i2_extender *****************
  5802 ;; Defined at:
  5803 ;;		line 193 in file "proyectofinal.c"
  5804 ;; Parameters:    Size  Location     Type
  5805 ;;		None
  5806 ;; Auto vars:     Size  Location     Type
  5807 ;;  i               2    1[COMRAM] int 
  5808 ;; Return value:  Size  Location     Type
  5809 ;;                  1    wreg      void 
  5810 ;; Registers used:
  5811 ;;		wreg, status,2, status,0
  5812 ;; Tracked objects:
  5813 ;;		On entry : 0/0
  5814 ;;		On exit  : 0/0
  5815 ;;		Unchanged: 0/0
  5816 ;; Data sizes:     COMRAM   BANK0   BANK1   BANK2   BANK3   BANK4   BANK5   BANK6   BANK7
  5817 ;;      Params:         0       0       0       0       0       0       0       0       0
  5818 ;;      Locals:         2       0       0       0       0       0       0       0       0
  5819 ;;      Temps:          1       0       0       0       0       0       0       0       0
  5820 ;;      Totals:         3       0       0       0       0       0       0       0       0
  5821 ;;Total ram usage:        3 bytes
  5822 ;; Hardware stack levels used: 1
  5823 ;; This function calls:
  5824 ;;		Nothing
  5825 ;; This function is called by:
  5826 ;;		i2_guardarV
  5827 ;; This function uses a non-reentrant model
  5828 ;;
  5829                           
  5830                           	psect	text25
  5831  002358                     __ptext25:
  5832                           	callstack 0
  5833  002358                     i2_extender:
  5834                           	callstack 24
  5835  002358                     
  5836                           ;proyectofinal.c: 194:     LATE2 = 1;
  5837  002358  848D               	bsf	3981,2,c	;volatile
  5838  00235A                     
  5839                           ;proyectofinal.c: 195:    if(estadob==0){
  5840  00235A  5011               	movf	_estadob^0,w,c
  5841  00235C  1012               	iorwf	(_estadob+1)^0,w,c
  5842  00235E  A4D8               	btfss	status,2,c
  5843  002360  EFB4  F011         	goto	i2u168_41
  5844  002364  EFB6  F011         	goto	i2u168_40
  5845  002368                     i2u168_41:
  5846  002368  EFDE  F011         	goto	i2l329
  5847  00236C                     i2u168_40:
  5848  00236C                     
  5849                           ;proyectofinal.c: 196:    for(int i=0;i<1500;i++){
  5850  00236C  0E00               	movlw	0
  5851  00236E  6E23               	movwf	(i2extender@i+1)^0,c
  5852  002370  0E00               	movlw	0
  5853  002372  6E22               	movwf	i2extender@i^0,c
  5854  002374                     i2l327:
  5855                           
  5856                           ;proyectofinal.c: 197:       LATB5 = 1;
  5857  002374  8A8A               	bsf	3978,5,c	;volatile
  5858  002376                     
  5859                           ;proyectofinal.c: 198:       _delay((unsigned long)((stepDelay)*(8000000/4000.0)));
  5860  002376  0E03               	movlw	3
  5861  002378  6E21               	movwf	??i2_extender^0,c
  5862  00237A  0E98               	movlw	152
  5863  00237C                     i2u314_47:
  5864  00237C  2EE8               	decfsz	wreg,f,c
  5865  00237E  D7FE               	bra	i2u314_47
  5866  002380  2E21               	decfsz	??i2_extender^0,f,c
  5867  002382  D7FC               	bra	i2u314_47
  5868  002384                     
  5869                           ;proyectofinal.c: 199:       LATB5 = 0;
  5870  002384  9A8A               	bcf	3978,5,c	;volatile
  5871                           
  5872                           ;proyectofinal.c: 200:       _delay((unsigned long)((stepDelay)*(8000000/4000.0)));
  5873  002386  0E03               	movlw	3
  5874  002388  6E21               	movwf	??i2_extender^0,c
  5875  00238A  0E98               	movlw	152
  5876  00238C                     i2u315_47:
  5877  00238C  2EE8               	decfsz	wreg,f,c
  5878  00238E  D7FE               	bra	i2u315_47
  5879  002390  2E21               	decfsz	??i2_extender^0,f,c
  5880  002392  D7FC               	bra	i2u315_47
  5881  002394                     
  5882                           ;proyectofinal.c: 201:       }
  5883  002394  4A22               	infsnz	i2extender@i^0,f,c
  5884  002396  2A23               	incf	(i2extender@i+1)^0,f,c
  5885  002398  BE23               	btfsc	(i2extender@i+1)^0,7,c
  5886  00239A  EFD8  F011         	goto	i2u169_41
  5887  00239E  0EDC               	movlw	220
  5888  0023A0  5C22               	subwf	i2extender@i^0,w,c
  5889  0023A2  0E05               	movlw	5
  5890  0023A4  5823               	subwfb	(i2extender@i+1)^0,w,c
  5891  0023A6  A0D8               	btfss	status,0,c
  5892  0023A8  EFD8  F011         	goto	i2u169_41
  5893  0023AC  EFDA  F011         	goto	i2u169_40
  5894  0023B0                     i2u169_41:
  5895  0023B0  EFBA  F011         	goto	i2l327
  5896  0023B4                     i2u169_40:
  5897  0023B4                     
  5898                           ;proyectofinal.c: 202:    estadob=1;
  5899  0023B4  0E00               	movlw	0
  5900  0023B6  6E12               	movwf	(_estadob+1)^0,c
  5901  0023B8  0E01               	movlw	1
  5902  0023BA  6E11               	movwf	_estadob^0,c
  5903  0023BC                     i2l329:
  5904  0023BC  0012               	return		;funcret
  5905  0023BE                     __end_ofi2_extender:
  5906                           	callstack 0
  5907                           
  5908 ;; *************** function i2_Transmitir *****************
  5909 ;; Defined at:
  5910 ;;		line 129 in file "proyectofinal.c"
  5911 ;; Parameters:    Size  Location     Type
  5912 ;;  dato            1    wreg     unsigned char 
  5913 ;; Auto vars:     Size  Location     Type
  5914 ;;  dato            1    0[COMRAM] unsigned char 
  5915 ;; Return value:  Size  Location     Type
  5916 ;;                  1    wreg      void 
  5917 ;; Registers used:
  5918 ;;		wreg
  5919 ;; Tracked objects:
  5920 ;;		On entry : 0/0
  5921 ;;		On exit  : 0/0
  5922 ;;		Unchanged: 0/0
  5923 ;; Data sizes:     COMRAM   BANK0   BANK1   BANK2   BANK3   BANK4   BANK5   BANK6   BANK7
  5924 ;;      Params:         0       0       0       0       0       0       0       0       0
  5925 ;;      Locals:         1       0       0       0       0       0       0       0       0
  5926 ;;      Temps:          0       0       0       0       0       0       0       0       0
  5927 ;;      Totals:         1       0       0       0       0       0       0       0       0
  5928 ;;Total ram usage:        1 bytes
  5929 ;; Hardware stack levels used: 1
  5930 ;; This function calls:
  5931 ;;		Nothing
  5932 ;; This function is called by:
  5933 ;;		_ISR
  5934 ;;		i2_guardarV
  5935 ;; This function uses a non-reentrant model
  5936 ;;
  5937                           
  5938                           	psect	text26
  5939  002562                     __ptext26:
  5940                           	callstack 0
  5941  002562                     i2_Transmitir:
  5942                           	callstack 24
  5943                           
  5944                           ;incstack = 0
  5945                           ;i2Transmitir@dato stored from wreg
  5946  002562  6E21               	movwf	i2Transmitir@dato^0,c
  5947  002564                     i2l288:
  5948  002564  A2AC               	btfss	4012,1,c	;volatile
  5949  002566  EFB7  F012         	goto	i2u159_41
  5950  00256A  EFB9  F012         	goto	i2u159_40
  5951  00256E                     i2u159_41:
  5952  00256E  EFB2  F012         	goto	i2l288
  5953  002572                     i2u159_40:
  5954  002572                     
  5955                           ;proyectofinal.c: 132:     TXREG=dato;
  5956  002572  C021  FFAD         	movff	i2Transmitir@dato,4013	;volatile
  5957  002576  0012               	return		;funcret
  5958  002578                     __end_ofi2_Transmitir:
  5959                           	callstack 0
  5960                           
  5961 ;; *************** function i2_MensajeLCD_Var *****************
  5962 ;; Defined at:
  5963 ;;		line 344 in file "./LibLCDXC8.h"
  5964 ;; Parameters:    Size  Location     Type
  5965 ;;  a               2    6[COMRAM] PTR unsigned char 
  5966 ;;		 -> STR_12(12), STR_11(15), STR_10(10), STR_9(12), 
  5967 ;;		 -> STR_8(16), STR_7(7), STR_6(8), STR_5(7), 
  5968 ;;		 -> STR_4(10), STR_3(11), STR_2(6), STR_1(12), 
  5969 ;; Auto vars:     Size  Location     Type
  5970 ;;  p               2    8[COMRAM] PTR unsigned char 
  5971 ;;		 -> STR_12(12), STR_11(15), STR_10(10), STR_9(12), 
  5972 ;;		 -> STR_8(16), STR_7(7), STR_6(8), STR_5(7), 
  5973 ;;		 -> STR_4(10), STR_3(11), STR_2(6), STR_1(12), 
  5974 ;;		 -> NULL(0), 
  5975 ;; Return value:  Size  Location     Type
  5976 ;;                  1    wreg      void 
  5977 ;; Registers used:
  5978 ;;		wreg, status,2, status,0, tblptrl, tblptrh, tblptru, cstack
  5979 ;; Tracked objects:
  5980 ;;		On entry : 0/0
  5981 ;;		On exit  : 0/0
  5982 ;;		Unchanged: 0/0
  5983 ;; Data sizes:     COMRAM   BANK0   BANK1   BANK2   BANK3   BANK4   BANK5   BANK6   BANK7
  5984 ;;      Params:         2       0       0       0       0       0       0       0       0
  5985 ;;      Locals:         2       0       0       0       0       0       0       0       0
  5986 ;;      Temps:          0       0       0       0       0       0       0       0       0
  5987 ;;      Totals:         4       0       0       0       0       0       0       0       0
  5988 ;;Total ram usage:        4 bytes
  5989 ;; Hardware stack levels used: 1
  5990 ;; Hardware stack levels required when called: 3
  5991 ;; This function calls:
  5992 ;;		i2_EscribeLCD_c
  5993 ;; This function is called by:
  5994 ;;		_ISR
  5995 ;; This function uses a non-reentrant model
  5996 ;;
  5997                           
  5998                           	psect	text27
  5999  0024B6                     __ptext27:
  6000                           	callstack 0
  6001  0024B6                     i2_MensajeLCD_Var:
  6002                           	callstack 22
  6003  0024B6                     
  6004                           ;./LibLCDXC8.h: 348:     char * p = a;
  6005  0024B6  C027  F029         	movff	i2MensajeLCD_Var@a,i2MensajeLCD_Var@p
  6006  0024BA  C028  F02A         	movff	i2MensajeLCD_Var@a+1,i2MensajeLCD_Var@p+1
  6007                           
  6008                           ;./LibLCDXC8.h: 349:  while (*p != '\0') {
  6009  0024BE  EF6B  F012         	goto	i2l2695
  6010  0024C2                     i2l2691:
  6011                           
  6012                           ;./LibLCDXC8.h: 350:    EscribeLCD_c(*p);
  6013  0024C2  C029  FFF6         	movff	i2MensajeLCD_Var@p,tblptrl
  6014  0024C6  C02A  FFF7         	movff	i2MensajeLCD_Var@p+1,tblptrh
  6015  0024CA                     	if	0	;tblptru may be non-zero
  6016  0024CA                     	endif
  6017  0024CA                     	if	0	;tblptru may be non-zero
  6018  0024CA                     	endif
  6019  0024CA  0008               	tblrd		*
  6020  0024CC  50F5               	movf	tablat,w,c
  6021  0024CE  ECBC  F012         	call	i2_EscribeLCD_c
  6022  0024D2                     
  6023                           ;./LibLCDXC8.h: 351:   p++;
  6024  0024D2  4A29               	infsnz	i2MensajeLCD_Var@p^0,f,c
  6025  0024D4  2A2A               	incf	(i2MensajeLCD_Var@p+1)^0,f,c
  6026  0024D6                     i2l2695:
  6027                           
  6028                           ;./LibLCDXC8.h: 349:  while (*p != '\0') {
  6029  0024D6  C029  FFF6         	movff	i2MensajeLCD_Var@p,tblptrl
  6030  0024DA  C02A  FFF7         	movff	i2MensajeLCD_Var@p+1,tblptrh
  6031  0024DE                     	if	0	;tblptru may be non-zero
  6032  0024DE                     	endif
  6033  0024DE                     	if	0	;tblptru may be non-zero
  6034  0024DE                     	endif
  6035  0024DE  0008               	tblrd		*
  6036  0024E0  50F5               	movf	tablat,w,c
  6037  0024E2  0900               	iorlw	0
  6038  0024E4  A4D8               	btfss	status,2,c
  6039  0024E6  EF77  F012         	goto	i2u193_41
  6040  0024EA  EF79  F012         	goto	i2u193_40
  6041  0024EE                     i2u193_41:
  6042  0024EE  EF61  F012         	goto	i2l2691
  6043  0024F2                     i2u193_40:
  6044  0024F2  0012               	return		;funcret
  6045  0024F4                     __end_ofi2_MensajeLCD_Var:
  6046                           	callstack 0
  6047                           
  6048 ;; *************** function i2_EscribeLCD_c *****************
  6049 ;; Defined at:
  6050 ;;		line 137 in file "./LibLCDXC8.h"
  6051 ;; Parameters:    Size  Location     Type
  6052 ;;  a               1    wreg     unsigned char 
  6053 ;; Auto vars:     Size  Location     Type
  6054 ;;  a               1    5[COMRAM] unsigned char 
  6055 ;; Return value:  Size  Location     Type
  6056 ;;                  1    wreg      void 
  6057 ;; Registers used:
  6058 ;;		wreg, status,2, status,0, cstack
  6059 ;; Tracked objects:
  6060 ;;		On entry : 0/0
  6061 ;;		On exit  : 0/0
  6062 ;;		Unchanged: 0/0
  6063 ;; Data sizes:     COMRAM   BANK0   BANK1   BANK2   BANK3   BANK4   BANK5   BANK6   BANK7
  6064 ;;      Params:         0       0       0       0       0       0       0       0       0
  6065 ;;      Locals:         1       0       0       0       0       0       0       0       0
  6066 ;;      Temps:          0       0       0       0       0       0       0       0       0
  6067 ;;      Totals:         1       0       0       0       0       0       0       0       0
  6068 ;;Total ram usage:        1 bytes
  6069 ;; Hardware stack levels used: 1
  6070 ;; Hardware stack levels required when called: 2
  6071 ;; This function calls:
  6072 ;;		i2_EnviaDato
  6073 ;;		i2_HabilitaLCD
  6074 ;;		i2_RetardoLCD
  6075 ;; This function is called by:
  6076 ;;		i2_MensajeLCD_Var
  6077 ;; This function uses a non-reentrant model
  6078 ;;
  6079                           
  6080                           	psect	text28
  6081  002578                     __ptext28:
  6082                           	callstack 0
  6083  002578                     i2_EscribeLCD_c:
  6084                           	callstack 22
  6085                           
  6086                           ;incstack = 0
  6087                           ;i2EscribeLCD_c@a stored from wreg
  6088  002578  6E26               	movwf	i2EscribeLCD_c@a^0,c
  6089  00257A                     
  6090                           ;./LibLCDXC8.h: 141:  LATD1=1;
  6091  00257A  828C               	bsf	3980,1,c	;volatile
  6092  00257C                     
  6093                           ;./LibLCDXC8.h: 142:  EnviaDato(a);
  6094  00257C  5026               	movf	i2EscribeLCD_c@a^0,w,c
  6095  00257E  EC0D  F012         	call	i2_EnviaDato
  6096  002582                     
  6097                           ;./LibLCDXC8.h: 143:  HabilitaLCD();
  6098  002582  EC01  F013         	call	i2_HabilitaLCD	;wreg free
  6099  002586                     
  6100                           ;./LibLCDXC8.h: 144:  RetardoLCD(4);
  6101  002586  0E04               	movlw	4
  6102  002588  EC98  F010         	call	i2_RetardoLCD
  6103  00258C  0012               	return		;funcret
  6104  00258E                     __end_ofi2_EscribeLCD_c:
  6105                           	callstack 0
  6106                           
  6107 ;; *************** function i2_DireccionaLCD *****************
  6108 ;; Defined at:
  6109 ;;		line 355 in file "./LibLCDXC8.h"
  6110 ;; Parameters:    Size  Location     Type
  6111 ;;  a               1    wreg     unsigned char 
  6112 ;; Auto vars:     Size  Location     Type
  6113 ;;  a               1    5[COMRAM] unsigned char 
  6114 ;; Return value:  Size  Location     Type
  6115 ;;                  1    wreg      void 
  6116 ;; Registers used:
  6117 ;;		wreg, status,2, status,0, cstack
  6118 ;; Tracked objects:
  6119 ;;		On entry : 0/0
  6120 ;;		On exit  : 0/0
  6121 ;;		Unchanged: 0/0
  6122 ;; Data sizes:     COMRAM   BANK0   BANK1   BANK2   BANK3   BANK4   BANK5   BANK6   BANK7
  6123 ;;      Params:         0       0       0       0       0       0       0       0       0
  6124 ;;      Locals:         1       0       0       0       0       0       0       0       0
  6125 ;;      Temps:          0       0       0       0       0       0       0       0       0
  6126 ;;      Totals:         1       0       0       0       0       0       0       0       0
  6127 ;;Total ram usage:        1 bytes
  6128 ;; Hardware stack levels used: 1
  6129 ;; Hardware stack levels required when called: 2
  6130 ;; This function calls:
  6131 ;;		i2_EnviaDato
  6132 ;;		i2_HabilitaLCD
  6133 ;;		i2_RetardoLCD
  6134 ;; This function is called by:
  6135 ;;		_ISR
  6136 ;; This function uses a non-reentrant model
  6137 ;;
  6138                           
  6139                           	psect	text29
  6140  00258E                     __ptext29:
  6141                           	callstack 0
  6142  00258E                     i2_DireccionaLCD:
  6143                           	callstack 23
  6144                           
  6145                           ;incstack = 0
  6146                           ;i2DireccionaLCD@a stored from wreg
  6147  00258E  6E26               	movwf	i2DireccionaLCD@a^0,c
  6148  002590                     
  6149                           ;./LibLCDXC8.h: 358:  LATD1=0;
  6150  002590  928C               	bcf	3980,1,c	;volatile
  6151  002592                     
  6152                           ;./LibLCDXC8.h: 359:  EnviaDato(a);
  6153  002592  5026               	movf	i2DireccionaLCD@a^0,w,c
  6154  002594  EC0D  F012         	call	i2_EnviaDato
  6155  002598                     
  6156                           ;./LibLCDXC8.h: 360:  HabilitaLCD();
  6157  002598  EC01  F013         	call	i2_HabilitaLCD	;wreg free
  6158  00259C                     
  6159                           ;./LibLCDXC8.h: 361:  RetardoLCD(4);
  6160  00259C  0E04               	movlw	4
  6161  00259E  EC98  F010         	call	i2_RetardoLCD
  6162  0025A2  0012               	return		;funcret
  6163  0025A4                     __end_ofi2_DireccionaLCD:
  6164                           	callstack 0
  6165                           
  6166 ;; *************** function i2_BorraLCD *****************
  6167 ;; Defined at:
  6168 ;;		line 113 in file "./LibLCDXC8.h"
  6169 ;; Parameters:    Size  Location     Type
  6170 ;;		None
  6171 ;; Auto vars:     Size  Location     Type
  6172 ;;		None
  6173 ;; Return value:  Size  Location     Type
  6174 ;;                  1    wreg      void 
  6175 ;; Registers used:
  6176 ;;		wreg, status,2, status,0, cstack
  6177 ;; Tracked objects:
  6178 ;;		On entry : 0/0
  6179 ;;		On exit  : 0/0
  6180 ;;		Unchanged: 0/0
  6181 ;; Data sizes:     COMRAM   BANK0   BANK1   BANK2   BANK3   BANK4   BANK5   BANK6   BANK7
  6182 ;;      Params:         0       0       0       0       0       0       0       0       0
  6183 ;;      Locals:         0       0       0       0       0       0       0       0       0
  6184 ;;      Temps:          0       0       0       0       0       0       0       0       0
  6185 ;;      Totals:         0       0       0       0       0       0       0       0       0
  6186 ;;Total ram usage:        0 bytes
  6187 ;; Hardware stack levels used: 1
  6188 ;; Hardware stack levels required when called: 2
  6189 ;; This function calls:
  6190 ;;		i2_EnviaDato
  6191 ;;		i2_HabilitaLCD
  6192 ;;		i2_RetardoLCD
  6193 ;; This function is called by:
  6194 ;;		_ISR
  6195 ;; This function uses a non-reentrant model
  6196 ;;
  6197                           
  6198                           	psect	text30
  6199  0025CC                     __ptext30:
  6200                           	callstack 0
  6201  0025CC                     i2_BorraLCD:
  6202                           	callstack 23
  6203  0025CC                     
  6204                           ;./LibLCDXC8.h: 115:  LATD1=0;
  6205  0025CC  928C               	bcf	3980,1,c	;volatile
  6206  0025CE                     
  6207                           ;./LibLCDXC8.h: 116:  EnviaDato(0x01);
  6208  0025CE  0E01               	movlw	1
  6209  0025D0  EC0D  F012         	call	i2_EnviaDato
  6210  0025D4                     
  6211                           ;./LibLCDXC8.h: 117:  HabilitaLCD();
  6212  0025D4  EC01  F013         	call	i2_HabilitaLCD	;wreg free
  6213  0025D8                     
  6214                           ;./LibLCDXC8.h: 118:  RetardoLCD(2);
  6215  0025D8  0E02               	movlw	2
  6216  0025DA  EC98  F010         	call	i2_RetardoLCD
  6217  0025DE  0012               	return		;funcret
  6218  0025E0                     __end_ofi2_BorraLCD:
  6219                           	callstack 0
  6220                           
  6221 ;; *************** function i2_EnviaDato *****************
  6222 ;; Defined at:
  6223 ;;		line 60 in file "./LibLCDXC8.h"
  6224 ;; Parameters:    Size  Location     Type
  6225 ;;  a               1    wreg     unsigned char 
  6226 ;; Auto vars:     Size  Location     Type
  6227 ;;  a               1    4[COMRAM] unsigned char 
  6228 ;; Return value:  Size  Location     Type
  6229 ;;                  1    wreg      void 
  6230 ;; Registers used:
  6231 ;;		wreg, status,2, status,0, cstack
  6232 ;; Tracked objects:
  6233 ;;		On entry : 0/0
  6234 ;;		On exit  : 0/0
  6235 ;;		Unchanged: 0/0
  6236 ;; Data sizes:     COMRAM   BANK0   BANK1   BANK2   BANK3   BANK4   BANK5   BANK6   BANK7
  6237 ;;      Params:         0       0       0       0       0       0       0       0       0
  6238 ;;      Locals:         1       0       0       0       0       0       0       0       0
  6239 ;;      Temps:          1       0       0       0       0       0       0       0       0
  6240 ;;      Totals:         2       0       0       0       0       0       0       0       0
  6241 ;;Total ram usage:        2 bytes
  6242 ;; Hardware stack levels used: 1
  6243 ;; Hardware stack levels required when called: 1
  6244 ;; This function calls:
  6245 ;;		i2_HabilitaLCD
  6246 ;;		i2_RetardoLCD
  6247 ;; This function is called by:
  6248 ;;		i2_BorraLCD
  6249 ;;		i2_EscribeLCD_c
  6250 ;;		i2_DireccionaLCD
  6251 ;; This function uses a non-reentrant model
  6252 ;;
  6253                           
  6254                           	psect	text31
  6255  00241A                     __ptext31:
  6256                           	callstack 0
  6257  00241A                     i2_EnviaDato:
  6258                           	callstack 22
  6259                           
  6260                           ;incstack = 0
  6261                           ;i2EnviaDato@a stored from wreg
  6262  00241A  6E25               	movwf	i2EnviaDato@a^0,c
  6263  00241C                     
  6264                           ;./LibLCDXC8.h: 61:  if(interfaz==4){
  6265  00241C  0E04               	movlw	4
  6266  00241E  184C               	xorwf	_interfaz^0,w,c
  6267  002420  A4D8               	btfss	status,2,c
  6268  002422  EF15  F012         	goto	i2u132_41
  6269  002426  EF17  F012         	goto	i2u132_40
  6270  00242A                     i2u132_41:
  6271  00242A  EF2F  F012         	goto	i2l2263
  6272  00242E                     i2u132_40:
  6273  00242E                     
  6274                           ;./LibLCDXC8.h: 62:   LATD=(LATD & 0b00001111) | (a & 0b11110000);
  6275  00242E  C025  F024         	movff	i2EnviaDato@a,??i2_EnviaDato
  6276  002432  0EF0               	movlw	240
  6277  002434  1624               	andwf	??i2_EnviaDato^0,f,c
  6278  002436  508C               	movf	140,w,c	;volatile
  6279  002438  0B0F               	andlw	15
  6280  00243A  1024               	iorwf	??i2_EnviaDato^0,w,c
  6281  00243C  6E8C               	movwf	140,c	;volatile
  6282  00243E                     
  6283                           ;./LibLCDXC8.h: 63:   HabilitaLCD();
  6284  00243E  EC01  F013         	call	i2_HabilitaLCD	;wreg free
  6285  002442                     
  6286                           ;./LibLCDXC8.h: 64:   RetardoLCD(1);
  6287  002442  0E01               	movlw	1
  6288  002444  EC98  F010         	call	i2_RetardoLCD
  6289  002448                     
  6290                           ;./LibLCDXC8.h: 65:   LATD=(LATD & 0b00001111) | (a<<4);
  6291  002448  C025  F024         	movff	i2EnviaDato@a,??i2_EnviaDato
  6292  00244C  3A24               	swapf	??i2_EnviaDato^0,f,c
  6293  00244E  0EF0               	movlw	240
  6294  002450  1624               	andwf	??i2_EnviaDato^0,f,c
  6295  002452  508C               	movf	140,w,c	;volatile
  6296  002454  0B0F               	andlw	15
  6297  002456  1024               	iorwf	??i2_EnviaDato^0,w,c
  6298  002458  6E8C               	movwf	140,c	;volatile
  6299                           
  6300                           ;./LibLCDXC8.h: 68:  }else if(interfaz==8){
  6301  00245A  EF3A  F012         	goto	i2l98
  6302  00245E                     i2l2263:
  6303  00245E  0E08               	movlw	8
  6304  002460  184C               	xorwf	_interfaz^0,w,c
  6305  002462  A4D8               	btfss	status,2,c
  6306  002464  EF36  F012         	goto	i2u133_41
  6307  002468  EF38  F012         	goto	i2u133_40
  6308  00246C                     i2u133_41:
  6309  00246C  EF3A  F012         	goto	i2l98
  6310  002470                     i2u133_40:
  6311  002470                     
  6312                           ;./LibLCDXC8.h: 69:   LATD=a;
  6313  002470  C025  FF8C         	movff	i2EnviaDato@a,3980	;volatile
  6314  002474                     i2l98:
  6315  002474  0012               	return		;funcret
  6316  002476                     __end_ofi2_EnviaDato:
  6317                           	callstack 0
  6318                           
  6319 ;; *************** function i2_RetardoLCD *****************
  6320 ;; Defined at:
  6321 ;;		line 403 in file "./LibLCDXC8.h"
  6322 ;; Parameters:    Size  Location     Type
  6323 ;;  a               1    wreg     unsigned char 
  6324 ;; Auto vars:     Size  Location     Type
  6325 ;;  a               1    2[COMRAM] unsigned char 
  6326 ;; Return value:  Size  Location     Type
  6327 ;;                  1    wreg      void 
  6328 ;; Registers used:
  6329 ;;		wreg, status,2, status,0
  6330 ;; Tracked objects:
  6331 ;;		On entry : 0/0
  6332 ;;		On exit  : 0/0
  6333 ;;		Unchanged: 0/0
  6334 ;; Data sizes:     COMRAM   BANK0   BANK1   BANK2   BANK3   BANK4   BANK5   BANK6   BANK7
  6335 ;;      Params:         0       0       0       0       0       0       0       0       0
  6336 ;;      Locals:         1       0       0       0       0       0       0       0       0
  6337 ;;      Temps:          2       0       0       0       0       0       0       0       0
  6338 ;;      Totals:         3       0       0       0       0       0       0       0       0
  6339 ;;Total ram usage:        3 bytes
  6340 ;; Hardware stack levels used: 1
  6341 ;; This function calls:
  6342 ;;		Nothing
  6343 ;; This function is called by:
  6344 ;;		i2_EnviaDato
  6345 ;;		i2_BorraLCD
  6346 ;;		i2_EscribeLCD_c
  6347 ;;		i2_DireccionaLCD
  6348 ;; This function uses a non-reentrant model
  6349 ;;
  6350                           
  6351                           	psect	text32
  6352  002130                     __ptext32:
  6353                           	callstack 0
  6354  002130                     i2_RetardoLCD:
  6355                           	callstack 23
  6356                           
  6357                           ;incstack = 0
  6358                           ;i2RetardoLCD@a stored from wreg
  6359  002130  6E23               	movwf	i2RetardoLCD@a^0,c
  6360  002132                     
  6361                           ;./LibLCDXC8.h: 404:  switch(a){
  6362  002132  EFC2  F010         	goto	i2l2247
  6363  002136                     i2l2237:
  6364  002136  0E27               	movlw	39
  6365  002138  6E21               	movwf	??i2_RetardoLCD^0,c
  6366  00213A  0EF5               	movlw	245
  6367  00213C                     i2u316_47:
  6368  00213C  2EE8               	decfsz	wreg,f,c
  6369  00213E  D7FE               	bra	i2u316_47
  6370  002140  2E21               	decfsz	??i2_RetardoLCD^0,f,c
  6371  002142  D7FC               	bra	i2u316_47
  6372  002144  F000               	nop	
  6373                           
  6374                           ;./LibLCDXC8.h: 407:     break;
  6375  002146  EFDF  F010         	goto	i2l205
  6376  00214A                     i2l2239:
  6377  00214A  0E03               	movlw	3
  6378  00214C  6E21               	movwf	??i2_RetardoLCD^0,c
  6379  00214E  0E98               	movlw	152
  6380  002150                     i2u317_47:
  6381  002150  2EE8               	decfsz	wreg,f,c
  6382  002152  D7FE               	bra	i2u317_47
  6383  002154  2E21               	decfsz	??i2_RetardoLCD^0,f,c
  6384  002156  D7FC               	bra	i2u317_47
  6385                           
  6386                           ;./LibLCDXC8.h: 409:                 _delay((unsigned long)((640)*(8000000/4000000.0)));
  6387  002158  0EB6               	movlw	182
  6388  00215A                     i2u318_47:
  6389  00215A  D000               	nop2	
  6390  00215C  D000               	nop2	
  6391  00215E  2EE8               	decfsz	wreg,f,c
  6392  002160  D7FC               	bra	i2u318_47
  6393  002162  D000               	nop2	
  6394  002164  D000               	nop2	
  6395  002166  D000               	nop2	
  6396                           
  6397                           ;./LibLCDXC8.h: 411:     break;
  6398  002168  EFDF  F010         	goto	i2l205
  6399  00216C                     i2l2241:
  6400  00216C  0E42               	movlw	66
  6401  00216E                     i2u319_47:
  6402  00216E  2EE8               	decfsz	wreg,f,c
  6403  002170  D7FE               	bra	i2u319_47
  6404  002172  D000               	nop2	
  6405                           
  6406                           ;./LibLCDXC8.h: 414:     break;
  6407  002174  EFDF  F010         	goto	i2l205
  6408  002178                     i2l2243:
  6409  002178  0E1A               	movlw	26
  6410  00217A                     i2u320_47:
  6411  00217A  2EE8               	decfsz	wreg,f,c
  6412  00217C  D7FE               	bra	i2u320_47
  6413  00217E  D000               	nop2	
  6414                           
  6415                           ;./LibLCDXC8.h: 417:     break;
  6416  002180  EFDF  F010         	goto	i2l205
  6417  002184                     i2l2247:
  6418  002184  5023               	movf	i2RetardoLCD@a^0,w,c
  6419  002186  6E21               	movwf	??i2_RetardoLCD^0,c
  6420  002188  6A22               	clrf	(??i2_RetardoLCD+1)^0,c
  6421                           
  6422                           ; Switch on 2 bytes has been partitioned into a top level switch of size 1, and 1 sub-sw
      +                          itches
  6423                           ; Switch size 1, requested type "simple"
  6424                           ; Number of cases is 1, Range of values is 0 to 0
  6425                           ; switch strategies available:
  6426                           ; Name         Instructions Cycles
  6427                           ; simple_byte            4     3 (average)
  6428                           ;	Chosen strategy is simple_byte
  6429  00218A  5022               	movf	(??i2_RetardoLCD+1)^0,w,c
  6430  00218C  0A00               	xorlw	0	; case 0
  6431  00218E  B4D8               	btfsc	status,2,c
  6432  002190  EFCC  F010         	goto	i2l3711
  6433  002194  EFDF  F010         	goto	i2l205
  6434  002198                     i2l3711:
  6435                           
  6436                           ; Switch size 1, requested type "simple"
  6437                           ; Number of cases is 4, Range of values is 1 to 4
  6438                           ; switch strategies available:
  6439                           ; Name         Instructions Cycles
  6440                           ; simple_byte           13     7 (average)
  6441                           ;	Chosen strategy is simple_byte
  6442  002198  5021               	movf	??i2_RetardoLCD^0,w,c
  6443  00219A  0A01               	xorlw	1	; case 1
  6444  00219C  B4D8               	btfsc	status,2,c
  6445  00219E  EF9B  F010         	goto	i2l2237
  6446  0021A2  0A03               	xorlw	3	; case 2
  6447  0021A4  B4D8               	btfsc	status,2,c
  6448  0021A6  EFA5  F010         	goto	i2l2239
  6449  0021AA  0A01               	xorlw	1	; case 3
  6450  0021AC  B4D8               	btfsc	status,2,c
  6451  0021AE  EFB6  F010         	goto	i2l2241
  6452  0021B2  0A07               	xorlw	7	; case 4
  6453  0021B4  B4D8               	btfsc	status,2,c
  6454  0021B6  EFBC  F010         	goto	i2l2243
  6455  0021BA  EFDF  F010         	goto	i2l205
  6456  0021BE                     i2l205:
  6457  0021BE  0012               	return		;funcret
  6458  0021C0                     __end_ofi2_RetardoLCD:
  6459                           	callstack 0
  6460                           
  6461 ;; *************** function i2_HabilitaLCD *****************
  6462 ;; Defined at:
  6463 ;;		line 106 in file "./LibLCDXC8.h"
  6464 ;; Parameters:    Size  Location     Type
  6465 ;;		None
  6466 ;; Auto vars:     Size  Location     Type
  6467 ;;		None
  6468 ;; Return value:  Size  Location     Type
  6469 ;;                  1    wreg      void 
  6470 ;; Registers used:
  6471 ;;		wreg
  6472 ;; Tracked objects:
  6473 ;;		On entry : 0/0
  6474 ;;		On exit  : 0/0
  6475 ;;		Unchanged: 0/0
  6476 ;; Data sizes:     COMRAM   BANK0   BANK1   BANK2   BANK3   BANK4   BANK5   BANK6   BANK7
  6477 ;;      Params:         0       0       0       0       0       0       0       0       0
  6478 ;;      Locals:         0       0       0       0       0       0       0       0       0
  6479 ;;      Temps:          0       0       0       0       0       0       0       0       0
  6480 ;;      Totals:         0       0       0       0       0       0       0       0       0
  6481 ;;Total ram usage:        0 bytes
  6482 ;; Hardware stack levels used: 1
  6483 ;; This function calls:
  6484 ;;		Nothing
  6485 ;; This function is called by:
  6486 ;;		i2_EnviaDato
  6487 ;;		i2_BorraLCD
  6488 ;;		i2_EscribeLCD_c
  6489 ;;		i2_DireccionaLCD
  6490 ;; This function uses a non-reentrant model
  6491 ;;
  6492                           
  6493                           	psect	text33
  6494  002602                     __ptext33:
  6495                           	callstack 0
  6496  002602                     i2_HabilitaLCD:
  6497                           	callstack 23
  6498  002602                     
  6499                           ;./LibLCDXC8.h: 108:  LATD0=1;
  6500  002602  808C               	bsf	3980,0,c	;volatile
  6501  002604                     
  6502                           ;./LibLCDXC8.h: 109:  _delay((unsigned long)((40)*(8000000/4000000.0)));
  6503  002604  0E1A               	movlw	26
  6504  002606                     i2u321_47:
  6505  002606  2EE8               	decfsz	wreg,f,c
  6506  002608  D7FE               	bra	i2u321_47
  6507  00260A  D000               	nop2	
  6508  00260C                     
  6509                           ;./LibLCDXC8.h: 111:  LATD0=0;
  6510  00260C  908C               	bcf	3980,0,c	;volatile
  6511  00260E  0012               	return		;funcret
  6512  002610                     __end_ofi2_HabilitaLCD:
  6513                           	callstack 0
  6514                           
  6515                           	psect	rparam
  6516  0000                     
  6517                           	psect	temp
  6518  00004D                     btemp:
  6519                           	callstack 0
  6520  00004D                     	ds	1
  6521  0000                     int$flags	set	btemp
  6522  0000                     wtemp8	set	btemp+1
  6523  0000                     ttemp5	set	btemp+1
  6524  0000                     ttemp6	set	btemp+4
  6525  0000                     ttemp7	set	btemp+8
  6526                           
  6527                           	psect	idloc
  6528                           
  6529                           ;Config register IDLOC0 @ 0x200000
  6530                           ;	unspecified, using default values
  6531  200000                     	org	2097152
  6532  200000  FF                 	db	255
  6533                           
  6534                           ;Config register IDLOC1 @ 0x200001
  6535                           ;	unspecified, using default values
  6536  200001                     	org	2097153
  6537  200001  FF                 	db	255
  6538                           
  6539                           ;Config register IDLOC2 @ 0x200002
  6540                           ;	unspecified, using default values
  6541  200002                     	org	2097154
  6542  200002  FF                 	db	255
  6543                           
  6544                           ;Config register IDLOC3 @ 0x200003
  6545                           ;	unspecified, using default values
  6546  200003                     	org	2097155
  6547  200003  FF                 	db	255
  6548                           
  6549                           ;Config register IDLOC4 @ 0x200004
  6550                           ;	unspecified, using default values
  6551  200004                     	org	2097156
  6552  200004  FF                 	db	255
  6553                           
  6554                           ;Config register IDLOC5 @ 0x200005
  6555                           ;	unspecified, using default values
  6556  200005                     	org	2097157
  6557  200005  FF                 	db	255
  6558                           
  6559                           ;Config register IDLOC6 @ 0x200006
  6560                           ;	unspecified, using default values
  6561  200006                     	org	2097158
  6562  200006  FF                 	db	255
  6563                           
  6564                           ;Config register IDLOC7 @ 0x200007
  6565                           ;	unspecified, using default values
  6566  200007                     	org	2097159
  6567  200007  FF                 	db	255
  6568                           
  6569                           	psect	config
  6570                           
  6571                           ;Config register CONFIG1L @ 0x300000
  6572                           ;	unspecified, using default values
  6573                           ;	PLL Prescaler Selection bits
  6574                           ;	PLLDIV = 0x0, unprogrammed default
  6575                           ;	System Clock Postscaler Selection bits
  6576                           ;	CPUDIV = 0x0, unprogrammed default
  6577                           ;	USB Clock Selection bit (used in Full-Speed USB mode only; UCFG:FSEN = 1)
  6578                           ;	USBDIV = 0x0, unprogrammed default
  6579  300000                     	org	3145728
  6580  300000  00                 	db	0
  6581                           
  6582                           ;Config register CONFIG1H @ 0x300001
  6583                           ;	Oscillator Selection bits
  6584                           ;	FOSC = INTOSC_EC, Internal oscillator, CLKO function on RA6, EC used by USB (INTCKO)
  6585                           ;	Fail-Safe Clock Monitor Enable bit
  6586                           ;	FCMEN = 0x0, unprogrammed default
  6587                           ;	Internal/External Oscillator Switchover bit
  6588                           ;	IESO = 0x0, unprogrammed default
  6589  300001                     	org	3145729
  6590  300001  09                 	db	9
  6591                           
  6592                           ;Config register CONFIG2L @ 0x300002
  6593                           ;	unspecified, using default values
  6594                           ;	Power-up Timer Enable bit
  6595                           ;	PWRT = 0x1, unprogrammed default
  6596                           ;	Brown-out Reset Enable bits
  6597                           ;	BOR = 0x3, unprogrammed default
  6598                           ;	Brown-out Reset Voltage bits
  6599                           ;	BORV = 0x3, unprogrammed default
  6600                           ;	USB Voltage Regulator Enable bit
  6601                           ;	VREGEN = 0x0, unprogrammed default
  6602  300002                     	org	3145730
  6603  300002  1F                 	db	31
  6604                           
  6605                           ;Config register CONFIG2H @ 0x300003
  6606                           ;	Watchdog Timer Enable bit
  6607                           ;	WDT = OFF, WDT disabled (control is placed on the SWDTEN bit)
  6608                           ;	Watchdog Timer Postscale Select bits
  6609                           ;	WDTPS = 0xF, unprogrammed default
  6610  300003                     	org	3145731
  6611  300003  1E                 	db	30
  6612                           
  6613                           ; Padding undefined space
  6614  300004                     	org	3145732
  6615  300004  FF                 	db	255
  6616                           
  6617                           ;Config register CONFIG3H @ 0x300005
  6618                           ;	CCP2 MUX bit
  6619                           ;	CCP2MX = 0x1, unprogrammed default
  6620                           ;	PORTB A/D Enable bit
  6621                           ;	PBADEN = OFF, PORTB<4:0> pins are configured as digital I/O on Reset
  6622                           ;	Low-Power Timer 1 Oscillator Enable bit
  6623                           ;	LPT1OSC = 0x0, unprogrammed default
  6624                           ;	MCLR Pin Enable bit
  6625                           ;	MCLRE = 0x1, unprogrammed default
  6626  300005                     	org	3145733
  6627  300005  81                 	db	129
  6628                           
  6629                           ;Config register CONFIG4L @ 0x300006
  6630                           ;	Stack Full/Underflow Reset Enable bit
  6631                           ;	STVREN = 0x1, unprogrammed default
  6632                           ;	Single-Supply ICSP Enable bit
  6633                           ;	LVP = OFF, Single-Supply ICSP disabled
  6634                           ;	Dedicated In-Circuit Debug/Programming Port (ICPORT) Enable bit
  6635                           ;	ICPRT = 0x0, unprogrammed default
  6636                           ;	Extended Instruction Set Enable bit
  6637                           ;	XINST = 0x0, unprogrammed default
  6638                           ;	Background Debugger Enable bit
  6639                           ;	DEBUG = 0x1, unprogrammed default
  6640  300006                     	org	3145734
  6641  300006  81                 	db	129
  6642                           
  6643                           ; Padding undefined space
  6644  300007                     	org	3145735
  6645  300007  FF                 	db	255
  6646                           
  6647                           ;Config register CONFIG5L @ 0x300008
  6648                           ;	unspecified, using default values
  6649                           ;	Code Protection bit
  6650                           ;	CP0 = 0x1, unprogrammed default
  6651                           ;	Code Protection bit
  6652                           ;	CP1 = 0x1, unprogrammed default
  6653                           ;	Code Protection bit
  6654                           ;	CP2 = 0x1, unprogrammed default
  6655                           ;	Code Protection bit
  6656                           ;	CP3 = 0x1, unprogrammed default
  6657  300008                     	org	3145736
  6658  300008  0F                 	db	15
  6659                           
  6660                           ;Config register CONFIG5H @ 0x300009
  6661                           ;	unspecified, using default values
  6662                           ;	Boot Block Code Protection bit
  6663                           ;	CPB = 0x1, unprogrammed default
  6664                           ;	Data EEPROM Code Protection bit
  6665                           ;	CPD = 0x1, unprogrammed default
  6666  300009                     	org	3145737
  6667  300009  C0                 	db	192
  6668                           
  6669                           ;Config register CONFIG6L @ 0x30000A
  6670                           ;	unspecified, using default values
  6671                           ;	Write Protection bit
  6672                           ;	WRT0 = 0x1, unprogrammed default
  6673                           ;	Write Protection bit
  6674                           ;	WRT1 = 0x1, unprogrammed default
  6675                           ;	Write Protection bit
  6676                           ;	WRT2 = 0x1, unprogrammed default
  6677                           ;	Write Protection bit
  6678                           ;	WRT3 = 0x1, unprogrammed default
  6679  30000A                     	org	3145738
  6680  30000A  0F                 	db	15
  6681                           
  6682                           ;Config register CONFIG6H @ 0x30000B
  6683                           ;	unspecified, using default values
  6684                           ;	Configuration Register Write Protection bit
  6685                           ;	WRTC = 0x1, unprogrammed default
  6686                           ;	Boot Block Write Protection bit
  6687                           ;	WRTB = 0x1, unprogrammed default
  6688                           ;	Data EEPROM Write Protection bit
  6689                           ;	WRTD = 0x1, unprogrammed default
  6690  30000B                     	org	3145739
  6691  30000B  E0                 	db	224
  6692                           
  6693                           ;Config register CONFIG7L @ 0x30000C
  6694                           ;	unspecified, using default values
  6695                           ;	Table Read Protection bit
  6696                           ;	EBTR0 = 0x1, unprogrammed default
  6697                           ;	Table Read Protection bit
  6698                           ;	EBTR1 = 0x1, unprogrammed default
  6699                           ;	Table Read Protection bit
  6700                           ;	EBTR2 = 0x1, unprogrammed default
  6701                           ;	Table Read Protection bit
  6702                           ;	EBTR3 = 0x1, unprogrammed default
  6703  30000C                     	org	3145740
  6704  30000C  0F                 	db	15
  6705                           
  6706                           ;Config register CONFIG7H @ 0x30000D
  6707                           ;	unspecified, using default values
  6708                           ;	Boot Block Table Read Protection bit
  6709                           ;	EBTRB = 0x1, unprogrammed default
  6710  30000D                     	org	3145741
  6711  30000D  40                 	db	64
  6712                           tosu	equ	0xFFF
  6713                           tosh	equ	0xFFE
  6714                           tosl	equ	0xFFD
  6715                           stkptr	equ	0xFFC
  6716                           pclatu	equ	0xFFB
  6717                           pclath	equ	0xFFA
  6718                           pcl	equ	0xFF9
  6719                           tblptru	equ	0xFF8
  6720                           tblptrh	equ	0xFF7
  6721                           tblptrl	equ	0xFF6
  6722                           tablat	equ	0xFF5
  6723                           prodh	equ	0xFF4
  6724                           prodl	equ	0xFF3
  6725                           indf0	equ	0xFEF
  6726                           postinc0	equ	0xFEE
  6727                           postdec0	equ	0xFED
  6728                           preinc0	equ	0xFEC
  6729                           plusw0	equ	0xFEB
  6730                           fsr0h	equ	0xFEA
  6731                           fsr0l	equ	0xFE9
  6732                           wreg	equ	0xFE8
  6733                           indf1	equ	0xFE7
  6734                           postinc1	equ	0xFE6
  6735                           postdec1	equ	0xFE5
  6736                           preinc1	equ	0xFE4
  6737                           plusw1	equ	0xFE3
  6738                           fsr1h	equ	0xFE2
  6739                           fsr1l	equ	0xFE1
  6740                           bsr	equ	0xFE0
  6741                           indf2	equ	0xFDF
  6742                           postinc2	equ	0xFDE
  6743                           postdec2	equ	0xFDD
  6744                           preinc2	equ	0xFDC
  6745                           plusw2	equ	0xFDB
  6746                           fsr2h	equ	0xFDA
  6747                           fsr2l	equ	0xFD9
  6748                           status	equ	0xFD8

Data Sizes:
    Strings     119
    Constant    16
    Data        39
    BSS         48
    Persistent  0
    Stack       0

Auto Spaces:
    Space          Size  Autos    Used
    COMRAM           94     25      76
    BANK0           160     16      52
    BANK1           256      0       0
    BANK2           256      0       0
    BANK3           256      0       0
    BANK4           256      0       0
    BANK5           256      0       0
    BANK6           256      0       0
    BANK7           256      0       0

Pointer List with Targets:

    MensajeLCD_Var@a	PTR unsigned char  size(2) Largest target is 16
		 -> STR_12(CODE[12]), STR_11(CODE[15]), STR_10(CODE[10]), STR_9(CODE[12]), 
		 -> STR_8(CODE[16]), STR_7(CODE[7]), STR_6(CODE[8]), STR_5(CODE[7]), 
		 -> STR_4(CODE[10]), STR_3(CODE[11]), STR_2(CODE[6]), STR_1(CODE[12]), 

    MensajeLCD_Var@p	PTR unsigned char  size(2) Largest target is 16
		 -> STR_12(CODE[12]), STR_11(CODE[15]), STR_10(CODE[10]), STR_9(CODE[12]), 
		 -> STR_8(CODE[16]), STR_7(CODE[7]), STR_6(CODE[8]), STR_5(CODE[7]), 
		 -> STR_4(CODE[10]), STR_3(CODE[11]), STR_2(CODE[6]), STR_1(CODE[12]), 
		 -> NULL(NULL[0]), 


Critical Paths under _main in COMRAM

    _main->_EscribeLCD_n8
    _sacarV->_ira
    _guardarV->_ira
    _MensajeLCD_Var->_EscribeLCD_c
    _EscribeLCD_c->_EnviaDato
    _InicializaLCD->_EnviaDato
    _BorraLCD->_EnviaDato
    _EscribeLCD_n8->___awmod
    ___awdiv->___awmod
    _DireccionaLCD->_EnviaDato
    _EnviaDato->_RetardoLCD

Critical Paths under _ISR in COMRAM

    i2_guardarV->i2_ira
    i2_MensajeLCD_Var->i2_EscribeLCD_c
    i2_EscribeLCD_c->i2_EnviaDato
    i2_DireccionaLCD->i2_EnviaDato
    i2_BorraLCD->i2_EnviaDato
    i2_EnviaDato->i2_RetardoLCD

Critical Paths under _main in BANK0

    _main->_EscribeLCD_n8
    _sacarV->_ira
    _guardarV->_ira
    _EscribeLCD_n8->___awdiv

Critical Paths under _ISR in BANK0

    None.

Critical Paths under _main in BANK1

    None.

Critical Paths under _ISR in BANK1

    None.

Critical Paths under _main in BANK2

    None.

Critical Paths under _ISR in BANK2

    None.

Critical Paths under _main in BANK3

    None.

Critical Paths under _ISR in BANK3

    None.

Critical Paths under _main in BANK4

    None.

Critical Paths under _ISR in BANK4

    None.

Critical Paths under _main in BANK5

    None.

Critical Paths under _ISR in BANK5

    None.

Critical Paths under _main in BANK6

    None.

Critical Paths under _ISR in BANK6

    None.

Critical Paths under _main in BANK7

    None.

Critical Paths under _ISR in BANK7

    None.

Call Graph Tables:

 ---------------------------------------------------------------------------------
 (Depth) Function   	        Calls       Base Space   Used Autos Params    Refs
 ---------------------------------------------------------------------------------
 (0) _main                                                 2     2      0   14104
                                             14 BANK0      2     2      0
                           _BorraLCD
                       _ConfiguraLCD
                      _DireccionaLCD
                      _EscribeLCD_n8
                      _InicializaLCD
                     _MensajeLCD_Var
                           _guardarV
                             _sacarV
                          _setorigin
 ---------------------------------------------------------------------------------
 (1) _setorigin                                            3     3      0      30
                                             18 COMRAM     3     3      0
 ---------------------------------------------------------------------------------
 (1) _sacarV                                               0     0      0    4682
                         _Transmitir
                           _extender
                                _ira
                            _recoger
 ---------------------------------------------------------------------------------
 (1) _guardarV                                             0     0      0    4682
                         _Transmitir
                           _extender
                                _ira
                            _recoger
 ---------------------------------------------------------------------------------
 (2) _recoger                                              3     3      0      46
                                             18 COMRAM     3     3      0
 ---------------------------------------------------------------------------------
 (2) _ira                                                 12     8      4    4568
                                             18 COMRAM     4     0      4
                                              0 BANK0      8     8      0
 ---------------------------------------------------------------------------------
 (2) _extender                                             3     3      0      46
                                             18 COMRAM     3     3      0
 ---------------------------------------------------------------------------------
 (2) _Transmitir                                           1     1      0      22
                                             18 COMRAM     1     1      0
 ---------------------------------------------------------------------------------
 (1) _MensajeLCD_Var                                       4     2      2    1174
                                              0 BANK0      4     2      2
                       _EscribeLCD_c
 ---------------------------------------------------------------------------------
 (2) _EscribeLCD_c                                         1     1      0     132
                                             23 COMRAM     1     1      0
                          _EnviaDato
                        _HabilitaLCD
                         _RetardoLCD
 ---------------------------------------------------------------------------------
 (1) _InicializaLCD                                        0     0      0     220
                           _BorraLCD
                          _EnviaDato
                        _HabilitaLCD
                         _RetardoLCD
 ---------------------------------------------------------------------------------
 (2) _BorraLCD                                             0     0      0     110
                          _EnviaDato
                        _HabilitaLCD
                         _RetardoLCD
 ---------------------------------------------------------------------------------
 (1) _EscribeLCD_n8                                        7     6      1    3029
                                             24 COMRAM     1     0      1
                                              8 BANK0      6     6      0
                          _EnviaDato
                        _HabilitaLCD
                         _RetardoLCD
                            ___awdiv
                            ___awmod
 ---------------------------------------------------------------------------------
 (2) ___awmod                                              6     2      4    1333
                                             18 COMRAM     6     2      4
 ---------------------------------------------------------------------------------
 (2) ___awdiv                                              8     4      4     985
                                              0 BANK0      8     4      4
                            ___awmod (ARG)
 ---------------------------------------------------------------------------------
 (1) _DireccionaLCD                                        1     1      0     132
                                             23 COMRAM     1     1      0
                          _EnviaDato
                        _HabilitaLCD
                         _RetardoLCD
 ---------------------------------------------------------------------------------
 (3) _EnviaDato                                            2     2      0      88
                                             21 COMRAM     2     2      0
                        _HabilitaLCD
                         _RetardoLCD
 ---------------------------------------------------------------------------------
 (3) _RetardoLCD                                           3     3      0      22
                                             18 COMRAM     3     3      0
 ---------------------------------------------------------------------------------
 (3) _HabilitaLCD                                          0     0      0       0
 ---------------------------------------------------------------------------------
 (1) _ConfiguraLCD                                         1     1      0      45
                                             18 COMRAM     1     1      0
 ---------------------------------------------------------------------------------
 Estimated maximum stack depth 3
 ---------------------------------------------------------------------------------
 (Depth) Function   	        Calls       Base Space   Used Autos Params    Refs
 ---------------------------------------------------------------------------------
 (5) _ISR                                                  6     6      0    1461
                                             12 COMRAM     6     6      0
                         i2_BorraLCD
                    i2_DireccionaLCD
                   i2_MensajeLCD_Var
                       i2_Transmitir
                         i2_guardarV
                        i2_setorigin
 ---------------------------------------------------------------------------------
 (6) i2_setorigin                                          3     3      0      30
                                              0 COMRAM     3     3      0
 ---------------------------------------------------------------------------------
 (6) i2_guardarV                                           0     0      0     862
                       i2_Transmitir
                         i2_extender
                              i2_ira
                          i2_recoger
 ---------------------------------------------------------------------------------
 (7) i2_recoger                                            3     3      0      46
                                              0 COMRAM     3     3      0
 ---------------------------------------------------------------------------------
 (7) i2_ira                                               12     8      4     748
                                              0 COMRAM    12     8      4
 ---------------------------------------------------------------------------------
 (7) i2_extender                                           3     3      0      46
                                              0 COMRAM     3     3      0
 ---------------------------------------------------------------------------------
 (7) i2_Transmitir                                         1     1      0      22
                                              0 COMRAM     1     1      0
 ---------------------------------------------------------------------------------
 (6) i2_MensajeLCD_Var                                     4     2      2     305
                                              6 COMRAM     4     2      2
                     i2_EscribeLCD_c
 ---------------------------------------------------------------------------------
 (7) i2_EscribeLCD_c                                       1     1      0     132
                                              5 COMRAM     1     1      0
                        i2_EnviaDato
                      i2_HabilitaLCD
                       i2_RetardoLCD
 ---------------------------------------------------------------------------------
 (6) i2_DireccionaLCD                                      1     1      0     132
                                              5 COMRAM     1     1      0
                        i2_EnviaDato
                      i2_HabilitaLCD
                       i2_RetardoLCD
 ---------------------------------------------------------------------------------
 (6) i2_BorraLCD                                           0     0      0     110
                        i2_EnviaDato
                      i2_HabilitaLCD
                       i2_RetardoLCD
 ---------------------------------------------------------------------------------
 (8) i2_EnviaDato                                          2     2      0      88
                                              3 COMRAM     2     2      0
                      i2_HabilitaLCD
                       i2_RetardoLCD
 ---------------------------------------------------------------------------------
 (8) i2_RetardoLCD                                         3     3      0      22
                                              0 COMRAM     3     3      0
 ---------------------------------------------------------------------------------
 (8) i2_HabilitaLCD                                        0     0      0       0
 ---------------------------------------------------------------------------------
 Estimated maximum stack depth 8
 ---------------------------------------------------------------------------------

 Call Graph Graphs:

 _main (ROOT)
   _BorraLCD
     _EnviaDato
       _HabilitaLCD
       _RetardoLCD
     _HabilitaLCD
     _RetardoLCD
   _ConfiguraLCD
   _DireccionaLCD
     _EnviaDato
     _HabilitaLCD
     _RetardoLCD
   _EscribeLCD_n8
     _EnviaDato
     _HabilitaLCD
     _RetardoLCD
     ___awdiv
       ___awmod (ARG)
     ___awmod
   _InicializaLCD
     _BorraLCD
     _EnviaDato
     _HabilitaLCD
     _RetardoLCD
   _MensajeLCD_Var
     _EscribeLCD_c
       _EnviaDato
       _HabilitaLCD
       _RetardoLCD
   _guardarV
     _Transmitir
     _extender
     _ira
     _recoger
   _sacarV
     _Transmitir
     _extender
     _ira
     _recoger
   _setorigin

 _ISR (ROOT)
   i2_BorraLCD
     i2_EnviaDato
       i2_HabilitaLCD
       i2_RetardoLCD
     i2_HabilitaLCD
     i2_RetardoLCD
   i2_DireccionaLCD
     i2_EnviaDato
     i2_HabilitaLCD
     i2_RetardoLCD
   i2_MensajeLCD_Var
     i2_EscribeLCD_c
       i2_EnviaDato
       i2_HabilitaLCD
       i2_RetardoLCD
   i2_Transmitir
   i2_guardarV
     i2_Transmitir
     i2_extender
     i2_ira
     i2_recoger
   i2_setorigin

 Address spaces:
Name               Size   Autos  Total    Cost      Usage
BIGRAM             7FF      0       0      34        0.0%
EEDATA             100      0       0       0        0.0%
BITBANK7           100      0       0      18        0.0%
BANK7              100      0       0      19        0.0%
BITBANK6           100      0       0      16        0.0%
BANK6              100      0       0      17        0.0%
BITBANK5           100      0       0      14        0.0%
BANK5              100      0       0      15        0.0%
BITBANK4           100      0       0      12        0.0%
BANK4              100      0       0      13        0.0%
BITBANK3           100      0       0      10        0.0%
BANK3              100      0       0      11        0.0%
BITBANK2           100      0       0       8        0.0%
BANK2              100      0       0       9        0.0%
BITBANK1           100      0       0       6        0.0%
BANK1              100      0       0       7        0.0%
BITBANK0            A0      0       0       4        0.0%
BANK0               A0     10      34       5       32.5%
BITCOMRAM           5E      0       0       0        0.0%
COMRAM              5E     19      4C       1       80.9%
BITBIGSFRlll        21      0       0      32        0.0%
BITBIGSFRhhhlh      19      0       0      21        0.0%
BITBIGSFRhhl        11      0       0      23        0.0%
BITBIGSFRhhhh        D      0       0      20        0.0%
BITBIGSFRhlhlh       B      0       0      26        0.0%
BITBIGSFRllh         8      0       0      31        0.0%
BITBIGSFRhlhhlh      8      0       0      25        0.0%
BITBIGSFRhlhhh       8      0       0      24        0.0%
BITBIGSFRhlhll       6      0       0      27        0.0%
BITBIGSFRhlll        5      0       0      29        0.0%
BITBIGSFRhhhll       1      0       0      22        0.0%
BITBIGSFRhllh        1      0       0      28        0.0%
BITBIGSFRlh          1      0       0      30        0.0%
BIGSFR               0      0       0     200        0.0%
BITSFR               0      0       0     200        0.0%
SFR                  0      0       0     200        0.0%
STACK                0      0       0       2        0.0%
NULL                 0      0       0       0        0.0%
ABS                  0      0      80      33        0.0%
DATA                 0      0      80       3        0.0%
CODE                 0      0       0       0        0.0%


Microchip Technology PIC18 Macro Assembler V2.36 build 20220127204148 
Symbol Table                                                                                   Tue Jun 28 22:58:57 2022

                      l91 251A                        l92 251E                        l98 2418  
        i2DireccionaLCD@a 0026              ___awdiv@sign 0089                EnviaDato@a 0037  
                      _vs 004A                       l111 2600                       l114 25CA  
                     l108 1F28                       l300 1C38                       l205 212E  
           _InicializaLCD 1E5A                       l310 08DA                       l302 1C84  
                     l127 254A                       l136 1BDC                       l312 092A  
                     l305 1CC2                       l314 0AEC                       l171 24B4  
                     l323 0B9A                       l307 1D1A                       l316 09FA  
                     l333 2242                       l174 2560                       l350 1092  
                     l327 22A8                       l335 228A                       l329 22F0  
                     l362 15D8                       l291 2534                       l372 15D8  
                     l357 1172                       l295 1BE8                       l288 2522  
                     l643 1FEE                       l379 1672                       l299 1C28  
                     l656 209E                       _GIE 007F97                       _RB0 007C08  
                     _RB1 007C09                       _RB2 007C0A                       u500 1BF6  
                     u501 1BF2                       u430 2508                       u510 1C24  
                     u431 2504                       u511 1C20                       u440 251A  
                     u600 1D02                       u520 1C36                       u441 2516  
                     u601 1CFE                       u521 1C32                       u530 1C46  
                     u531 1C42                       u540 1C76                       _ISR 0008  
                     u541 1C72                       u550 1C84                       u551 1C80  
                     u560 1C92                       u561 1C8E                       u571 1C98  
                     u580 1CAC                       u581 1CA8                       u591 1CB2  
                     _Dec 001C                       _Che 001E                       _Hum 001F  
                     _Uni 001B                       _ira 088A       __end_ofi2_setorigin 1E5A  
            ___awmod@sign 0038                       wreg 000FE8                      ?_ISR 0021  
        ??i2_EscribeLCD_c 0026                      l3001 088A                      l3011 0986  
                    l3003 08D4                      l3101 2054                      l3021 0A52  
                    l3013 0988                      l3005 08DC                      l3111 208E  
                    l3103 206A                      l2311 22A0                      l3031 0AD8  
                    l3023 0A9A                      l3015 09D0                      l3007 0924  
                    l1417 24F6                      l3041 1F3E                      l3113 2096  
                    l3105 2072                      l3201 1B9E                      l3121 1E6E  
                    l2321 22C8                      l3033 0ADA                      l3025 0AB0  
                    l3017 09E6                      l3009 0930                      l1419 2508  
                    l3051 1F64                      l3043 1F46                      l3107 2078  
                    l3131 1E9A                      l3123 1E7A                      l3211 2476  
                    l2323 22E8                      l2307 228C                      l3035 0B44  
                    l3019 0A50                      l3027 0AC4                      l3221 254E  
                    l3061 1F9C                      l3053 1F6C                      l3045 1F4A  
                    l3037 1F2A                      l3109 207E                      l3205 1BA8  
                    l3141 1EC6                      l3133 1EA6                      l3125 1E7E  
                    l3117 1E5A                      l3213 2482                      l2317 22AA  
                    l2309 228E                      l3029 0AD6                      l2341 2282  
                    l2325 2226                      l3301 0F6E                      l1541 1C16  
                    l1533 1BDE                      l3223 2550                      l3071 1FC8  
                    l3063 1FA2                      l3055 1F7E                      l3047 1F58  
                    l3039 1F30                      l3151 1EF2                      l3143 1ED2  
                    l3135 1EAA                      l3127 1E82                      l3119 1E5C  
                    l3215 2492                      l2319 22B8                      l2335 2244  
                    l2327 2228                      l3231 1436                      l3311 0FC2  
                    l3303 0F82                      l1551 1C58                      l1543 1C36  
                    l1535 1BF6                      l3225 2556                      l3065 1FB8  
                    l3057 1F86                      l3073 1FCE                      l3049 1F60  
                    l3081 1FF0                      l3161 1F0E                      l3153 1EFA  
                    l3145 1ED6                      l3137 1EAE                      l3129 1E88  
                    l3217 2498                      l2337 2252                      l2329 223A  
                    l3241 14A4                      l3233 144E                      l3321 101E  
                    l3313 0FD6                      l3305 0F8E                      l1561 1CAC  
                    l1545 1C46                      l1553 1C68                      l1537 1BF8  
                    l3227 255A                      l3075 1FDE                      l3067 1FC0  
                    l3059 1F8E                      l3091 201C                      l3083 1FF4  
                    l3171 1A68                      l3155 1EFE                      l3163 1F14  
                    l3147 1EDA                      l3139 1EB4                      l3219 24B4  
                    l2267 2522                      l2339 2262                      l3251 1510  
                    l3243 14B8                      l3235 1460                      l3331 1072  
                    l3323 102A                      l3315 0FEA                      l3307 0FA2  
                    l1571 1CC4                      l1563 1CB8                      l1555 1C76  
                    l1547 1C48                      l1539 1C06                      l3077 1FE6  
                    l3069 1FC2                      l3093 2024                      l3085 2002  
                    l3181 1AEA                      l3173 1A6E                      l3165 1F18  
                    l3157 1F04                      l3149 1EE0                      l2269 2530  
                    l3261 1580                      l3253 1528                      l3245 14D0  
                    l3237 1478                      l3229 1424                      l3341 10C6  
                    l3333 1086                      l3325 103E                      l3317 0FF6  
                    l3309 0FB6                      l1573 1CD2                      l1565 1CBA  
                    l1557 1C92                      l1549 1C56                      l3095 2036  
                    l3087 200A                      l3191 1B72                      l3183 1AEE  
                    l3175 1A8E                      l3167 1F1E                      l3159 1F0A  
                    l3263 1594                      l3255 153C                      l3247 14E4  
                    l3239 148C                      l3271 1604                      l3351 116A  
                    l3343 10CA                      l3327 1052                      l3319 100A  
                    l3335 1092                      l1575 1CE2                      l1559 1C9E  
                    l3097 203E                      l3089 200E                      l3193 1B76  
                    l3185 1AF4                      l3177 1A92                      l3169 1F22  
                    l3273 166A                      l3265 15AC                      l3257 1554  
                    l3249 14FC                      l3345 10DE                      l3337 10AA  
                    l3329 105E                      l3281 0EC0                      l1577 1D02  
                    l3601 193E                      l3099 2046                      l3195 1B7C  
                    l3187 1AFE                      l3179 1A9C                      l3267 15C0  
                    l3259 1568                      l3347 10F2                      l3339 10AE  
                    l3291 0F1A                      l3283 0ED2                      l3275 0EA2  
                    l3611 1970                      l3603 1940                      l3197 1B86  
                    l3189 1B0C                      l3269 15F8                      l3293 0F26  
                    l3285 0EE6                      l3349 10FE                      l3277 0EAA  
                    l3621 19B0                      l3613 1982                      l3605 1944  
                    l3199 1B9A                      l3295 0F3A                      l3287 0EF2  
                    l3279 0EBC                      l3631 19F8                      l3623 19BE  
                    l3615 1990                      l3607 195E                      l3297 0F4E  
                    l3289 0F06                      l3633 19FC                      l3641 1A30  
                    l3625 19D2                      l3617 1998                      l3609 1962  
                    l3707 1BBE                      l3299 0F5A                      l3643 1A34  
                    l3635 1A0A                      l3627 19DC                      l3619 19AC  
                    l3571 18E6                      l3709 2108                      l3645 1A42  
                    l3637 1A1E                      l3629 19E4                      l3581 191C  
                    l3573 1900                      l2951 25FE                      l3639 1A28  
                    l3591 1934                      l3583 1920                      l3575 1906  
                    l3567 18C4                      l2961 20E8                      l2953 20A2  
                    l3593 1936                      l3585 1924                      l3577 190A  
                    l3569 18DC                      ?_ira 0033                      l2947 25F4  
                    l2955 20A6                      l2971 23C0                      l3595 1938  
                    l3587 1928                      l3579 1918                      l2949 25F6  
                    l2957 20BA                      l2965 20F4                      l2973 23D2  
                    l2981 2402                      l3597 193A                      l3589 192C  
                    l2959 20DC                      l2983 2414                      l2975 23E2  
                    l2991 25C4                      l3599 193C                      l2977 23E6  
                    l2985 25B8                      l2993 2538                      l2979 23EC  
                    l2987 25BA                      l2995 253A                      l2989 25C0  
                    l2997 2540                      l2999 2544              i2_Transmitir 2562  
                    STR_1 0848                      STR_2 0882                      STR_3 0854  
                    STR_4 0869                      STR_5 087B                      STR_6 0873  
                    STR_7 087B                      STR_8 0811                      STR_9 083C  
                    u2300 2414                      u1340 2530                      u2301 2410  
                    u1341 252C                      u1430 22A0                      u2310 08D4  
                    _LATB 000F8A                      u3007 20CA                      u1431 229C  
                    u2311 08D0                      u2400 1F58                      u1440 22E8  
                    u2320 0924                      _LATD 000F8C                      u3017 20DE  
                    u2401 1F54                      u1441 22E4                      u2321 0920  
                    _LATE 000F8D                      u2410 1F7E                      u2330 0986  
                    u1450 223A                      u3027 20EA                      u2411 1F7A  
                    u2331 0982                      u1451 2236                      u2420 1F9C  
                    u2500 208E                      u2340 09D0                      u1460 2282  
                    u3037 25F8                      u2421 1F98                      u2501 208A  
                    u2341 09CC                      u1461 227E                      u2430 1FB8  
                    u2510 1E6E                      u2350 0A50                      u2431 1FB4  
                    u2511 1E6A                      u2351 0A4C                      u2440 1FDE  
                    u2520 1E9A                      u2360 0A9A                      u2600 14E4  
                    u2441 1FDA                      u2521 1E96                      u2361 0A96  
                    u2601 14E0                      u2290 23D2                      u2450 2002  
                    u2530 1EC6                      u2370 0B44                      u2610 1510  
                    u2291 23CE                      u2451 1FFE                      u2531 1EC2  
                    u2371 0B40                      u2611 150C                      u2460 201C  
                    u2540 1EF2                      u2380 0B9A                      u2620 153C  
                    u2700 0F6E                      u2461 2018                      u2541 1EEE  
                    u2381 0B96                      u2621 1538                      u2701 0F6A  
                    u2390 1F3E                      u2470 2036                      u2550 24B4  
                    u2630 1568                      u2710 0FA2                      u2391 1F3A  
                    u2471 2032                      u2551 24B0                      u2631 1564  
                    u2711 0F9E                      u2480 2054                      u2640 1594  
                    u2560 1436                      u2720 0FD6                      u2800 1982  
                    u2481 2050                      u2641 1590                      u2561 1432  
                    u2721 0FD2                      u2801 197E                      u2490 206A  
                    u2650 15C0                      u2570 1460                      u2730 100A  
                    u2810 19AC                      u2491 2066                      u2651 15BC  
                    u2571 145C                      u2731 1006                      u2811 19A8  
                    u2580 148C                      u2740 103E                      u2660 0EBC  
                    u2820 19F8                      u2581 1488                      u2741 103A  
                    u2661 0EB8                      u2821 19F4                      u2590 14B8  
                    u2750 1072                      u2670 0ED2                      u2591 14B4  
                    u2751 106E                      u2671 0ECE                      u2680 0F06  
                    u2681 0F02                      u2690 0F3A                      u2691 0F36  
                    u2907 1CCA                      u2917 1CDA                      u2837 18F2  
                    u2927 224A                      u2847 1950                      u2937 225A  
                    u2857 1A4E                      u2947 0ACC                      u2867 1BFE  
                    _RCIE 007CED                      _RCIF 007CF5                      u2957 0AE2  
                    u2877 1C0E                      u2967 22B0                      u2887 1C4E  
                    u2977 22C0                      u2897 1C60                      u2987 20AC  
                    u2997 20C0                      _RCIP 007CFD                      i2l98 2474  
                    _RBPU 007F8F                      _TMR0 000FD6                      _TRMT 007D61  
          ??_EscribeLCD_c 0038                      _PosZ 007C                      _Temp 0020  
              i2_guardarV 1674                      _auxT 0074                      _main 18C4  
                    _posX 0009                      _posY 0001                      fsr2h 000FDA  
                    fsr1l 000FE1                      fsr2l 000FD9                      btemp 004D  
              i2_extender 2358                      start 000E              ___param_bank 000000  
                   ??_ISR 002D                     ??_ira 0084           i2_DireccionaLCD 258E  
          ?_InicializaLCD 0021                     ?_main 0021           __end_of___awdiv 1FF0  
                   STR_10 085F                     STR_11 0821                     STR_12 0830  
         __end_of___awmod 20A0             EscribeLCD_c@a 0038                     _T0CON 000FD5  
         ___awdiv@divisor 0086                     _LATB3 007C53                     _LATD0 007C60  
                   _LATB4 007C54                     _LATD1 007C61                     _LATB5 007C55  
                   _LATE0 007C68                     _LATE1 007C69                     _LATE2 007C6A  
                   i2l111 260E                     i2l114 25DE                     i2l300 1D76  
                   i2l205 21BE                     i2l310 0BEA                     i2l302 1DC2  
                   i2l127 258C                     i2l312 0C3A                     i2l305 1E00  
                   i2l314 0DF4                     i2l171 24F2                     i2l323 0EA0  
                   i2l307 1E58                     i2l316 0D0A                     i2l333 230E  
                   i2l174 25A2                     i2l327 2374                     i2l335 2356  
                   i2l329 23BC                     i2l409 1408                     i2l362 1828  
                   i2l291 2576                     i2l372 1828                     i2l295 1D26  
                   i2l288 2564                     i2l379 18C2                     i2l299 1D66  
         ___awdiv@counter 0088                     _RCREG 000FAE                     _RCSTA 000FAB  
        i2Transmitir@dato 0021                     _SPBRG 000FAF                     _TRISB 000F93  
                   _TRISD 000F95                     _TRISE 000F96                     _TXREG 000FAD  
                   _TXSTA 000FAC                     i2_ira 0B9C           ??_EscribeLCD_n8 008C  
                   _carro 0017               ?i2_BorraLCD 0021                     _piso1 080D  
                   _piso2 080B                     _piso3 0809                     _piso4 0807  
         __end_of_recoger 228C                i2recoger@i 0022                     tablat 000FF5  
             _HabilitaLCD 25F4                     ttemp5 004E                     ttemp6 0051  
                   ttemp7 0055                     status 000FD8                     wtemp8 004E  
        __end_of_BorraLCD 25CC           __initialization 21C0              __end_of_main 1A64  
             i2_setorigin 1D1C          i2_MensajeLCD_Var 24B6                    ??_main 0092  
    __end_of_ConfiguraLCD 2520             __activetblptr 000002                    ?i2_ira 0021  
                  _ADCON1 000FC1            DireccionaLCD@a 0038            EscribeLCD_n8@a 0091  
          EscribeLCD_n8@b 0039          ___awdiv@dividend 0084                    i2l2231 2604  
                  i2l2233 260C                    i2l2241 216C                    i2l2243 2178  
                  i2l2235 2132                    i2l2229 2602                    i2l2237 2136  
                  i2l2261 2448                    i2l2253 241C                    i2l2501 231E  
                  i2l2239 214A                    i2l2247 2184                    i2l2255 242E  
                  i2l2263 245E                    i2l2423 257A                    i2l2431 2564  
                  i2l2503 232E                    i2l2265 2470                    i2l2257 243E  
                  i2l2425 257C                    i2l2433 2572                    i2l2441 0C34  
                  i2l2505 234E                    i2l2259 2442                    i2l2427 2582  
                  i2l2451 0CF6                    i2l2443 0C40                    i2l2435 0B9C  
                  i2l1731 1D34                    i2l2701 2592                    i2l2429 2586  
                  i2l2453 0D60                    i2l2461 0DD4                    i2l2445 0C96  
                  i2l2437 0BE4                    i2l1741 1D84                    i2l1733 1D36  
                  i2l2703 2598                    i2l2471 2358                    i2l2463 0DE2  
                  i2l2455 0D62                    i2l2447 0C98                    i2l2439 0BEC  
                  i2l2711 169E                    i2l1751 1DB4                    i2l1743 1D86  
                  i2l1735 1D44                    i2l2705 259C                    i2l2481 2376  
                  i2l2473 235A                    i2l2465 0DE4                    i2l2457 0DAA  
                  i2l2449 0CE0                    i2l2721 1708                    i2l2713 16B0  
                  i2l1761 1DF8                    i2l1753 1DD0                    i2l1745 1D94  
                  i2l1737 1D54                    i2l1729 1D1C                    i2l2483 2384  
                  i2l2475 236C                    i2l2467 0DE6                    i2l2459 0DC0  
                  i2l2491 22F4                    i2l2731 1778                    i2l2723 1720  
                  i2l2715 16C8                    i2l2707 1674                    i2l1771 1E20  
                  i2l1755 1DDC                    i2l1747 1D96                    i2l1739 1D74  
                  i2l2485 2394                    i2l2469 0E4A                    i2l2493 2306  
                  i2l2741 17E4                    i2l2733 178C                    i2l2725 1734  
                  i2l2717 16DC                    i2l2709 1686                    i2l1773 1E40  
                  i2l1757 1DEA                    i2l1749 1DA6                    i2l2901 133E  
                  i2l3711 2198                    i2l2487 23B4                    i2l2751 18BA  
                  i2l2743 17FC                    i2l2735 17A4                    i2l2727 174C  
                  i2l2719 16F4                    i2l1767 1E02                    i2l1759 1DF6  
                  i2l2911 1384                    i2l2903 1340                    i2l2681 25CC  
                  i2l2489 22F2                    i2l2745 1810                    i2l2737 17B8  
                  i2l2729 1760                    i2l1769 1E10                    i2l2913 1388  
                  i2l2921 13B6                    i2l2905 1352                    i2l2841 11BA  
                  i2l2833 118E                    i2l2683 25CE                    i2l2691 24C2  
                  i2l2499 2310                    i2l2747 1848                    i2l2739 17D0  
                  i2l2931 13FC                    i2l2923 13D2                    i2l2915 1394  
                  i2l2907 1356                    i2l2851 11F4                    i2l2843 11C0  
                  i2l2835 119C                    i2l2685 25D4                    i2l2693 24D2  
                  i2l2749 1854                    i2l2925 13D6                    i2l2933 1400  
                  i2l2917 13A6                    i2l2909 1372                    i2l2861 123A  
                  i2l2853 1206                    i2l2845 11D2                    i2l2837 11A0  
                  i2l2687 25D8                    i2l2695 24D6                    i2l2927 13E2  
                  i2l2919 13AE                    i2l2871 1276                    i2l2863 1242  
                  i2l2855 120E                    i2l2847 11DA                    i2l2839 11A8  
                  i2l2697 24F2                    i2l2689 24B6                    i2l2929 13F4  
                  i2l2881 12BC                    i2l2873 1288                    i2l2865 1254  
                  i2l2857 1220                    i2l2849 11EC                    i2l2699 2590  
                  i2l2891 1302                    i2l2883 12CE                    i2l2875 1290  
                  i2l2867 125C                    i2l2859 1228                    i2l2893 1314  
                  i2l2885 12D6                    i2l2877 12A2                    i2l2869 126E  
                  i2l2895 1326                    i2l2887 12E8                    i2l2879 12AA  
                  i2l2889 12FA                    i2l2897 132E                    i2l2899 1330  
                  _OSCCON 000FD3                    _TMR0IE 007F95                    _TMR0IF 007F92  
             ?i2_guardarV 0021     __end_of_DireccionaLCD 2562                _RetardoLCD 20A0  
             ?i2_extender 0021   __end_ofi2_DireccionaLCD 25A4      EscribeLCD_n8@centena 008E  
        __end_of_columna1 0807          __end_of_columna2 0805          __end_of_columna3 0803  
               ??___awdiv 0039                 ??___awmod 0037                    _carro1 0046  
                  _carro2 0042                    _carro3 003E                    _carro4 003A  
                  _carro5 0070                    _carro6 006C                    _carro7 0068  
                  _carro8 0064                    _carro9 0060           ??_InicializaLCD 0038  
        __end_of_guardarV 1674                    _estado 0013                    _sacarV 0EA2  
                  clear_0 2206                    clear_1 2212          ___awdiv@quotient 008A  
         ___awmod@divisor 0035                    isa$std 000001           ___awmod@counter 0037  
        __end_of_extender 22F2      __end_of_EscribeLCD_c 254C              ?i2_EnviaDato 0021  
            __pdataCOMRAM 003A               i2extender@i 0022                 ??_recoger 0033  
            __mediumconst 0000                    tblptrh 000FF7                    tblptrl 000FF6  
                  tblptru 000FF8                _Transmitir 2520     __end_ofi2_HabilitaLCD 2610  
       __end_ofi2_recoger 2358                __accesstop 0060   __end_of__initialization 2218  
          Transmitir@dato 0033             ___rparam_used 000001             __end_ofi2_ira 0EA2  
          __pcstackCOMRAM 0021              __pidataBANK0 25A4             __end_of_piso1 080F  
           __end_of_piso2 080D             __end_of_piso3 080B             __end_of_piso4 0809  
       __end_of_EnviaDato 241A                   ??i2_ira 0025                 ?_BorraLCD 0021  
          _MensajeLCD_Var 2476                __pbssBANK0 0074           MensajeLCD_Var@a 0084  
         MensajeLCD_Var@p 0086               ?_RetardoLCD 0021               RetardoLCD@a 0035  
        ?i2_DireccionaLCD 0021                   ?_sacarV 0021                   _BAUDCON 000FB8  
  __end_of_MensajeLCD_Var 24B6                   i2u90_40 1DEA                   i2u82_40 1D34  
                 i2u90_41 1DE6                   i2u82_41 1D30                   i2u83_40 1D62  
                 i2u91_41 1DF0                   i2u83_41 1D5E                   i2u92_40 1E40  
                 i2u84_40 1D74                   i2u92_41 1E3C                   i2u84_41 1D70  
                 i2u85_40 1D84                   i2u85_41 1D80                   i2u86_40 1DB4  
                 i2u86_41 1DB0                   i2u87_40 1DC2                   i2u87_41 1DBE  
                 i2u88_40 1DD0                   i2u88_41 1DCC                   i2u89_41 1DD6  
            ??i2_BorraLCD 0026                ??_BorraLCD 0038               ?_Transmitir 0021  
__end_ofi2_MensajeLCD_Var 24F4              ?_HabilitaLCD 0021                 ?_guardarV 0021  
            _ConfiguraLCD 24F4                 ?_extender 0021                   __Hparam 0000  
                 __Lparam 0000                   ___awdiv 1F2A                   ___awmod 1FF0  
            ?i2_setorigin 0021              __psmallconst 0800        __end_ofi2_BorraLCD 25E0  
                 __pcinit 21C0                   __ramtop 0800                   __ptext0 18C4  
                 __ptext1 1BDE                   __ptext2 0EA2                   __ptext3 1424  
                 __ptext4 2226                   __ptext5 088A                   __ptext6 228C  
                 __ptext7 2520                   __ptext8 2476                   __ptext9 2536  
                 _lectura 001D                   _estadob 0011          ___awmod@dividend 0033  
                 _recoger 2226                   _vactual 0019           ?_MensajeLCD_Var 0084  
                 ira@desX 0033                   ira@desY 0035     __end_of_EscribeLCD_n8 1BDE  
          __pintcode_body 1174      end_of_initialization 2218              ??i2_guardarV 002D  
              ??_guardarV 0037             __Lmediumconst 0000                   int_func 1174  
            _EscribeLCD_c 2536              ??i2_extender 0021                ??_extender 0033  
       __end_of_setorigin 1D1C         __end_of_stepDelay 0811                   postdec1 000FE5  
                 postinc0 000FEE                   postinc2 000FDE        __end_ofi2_guardarV 18C4  
      __end_ofi2_extender 23BE           i2EscribeLCD_c@a 0026             ?i2_RetardoLCD 0021  
               i2_recoger 22F2                 i2ira@desX 0021                 i2ira@desY 0023  
           __pidataCOMRAM 25E0     __end_of_InicializaLCD 1F2A            __end_of_sacarV 1174  
               _EnviaDato 23BE              i2setorigin@i 0022       start_initialization 21C0  
             __end_of_ISR 1424               __end_of_ira 0B9C             ?i2_Transmitir 0021  
          ??i2_RetardoLCD 0021              ??_RetardoLCD 0033                ?i2_recoger 0021  
     EscribeLCD_n8@decena 008F               __pdataBANK0 0060       EscribeLCD_n8@unidad 0090  
                ??_sacarV 0037                ?_EnviaDato 0021               __pbssCOMRAM 0001  
      __end_of_RetardoLCD 2130             __pcstackBANK0 0084            ??i2_Transmitir 0021  
            ??_Transmitir 0033         ?i2_MensajeLCD_Var 0027        ??i2_MensajeLCD_Var 0029  
           _DireccionaLCD 254C            i2_EscribeLCD_c 2578                 __pintcode 0008  
                ?___awdiv 0084                  ?___awmod 0033        __end_of_Transmitir 2536  
        ??_MensajeLCD_Var 0039               __smallconst 0800                  ?_recoger 0021  
           i2_HabilitaLCD 2602            ?_DireccionaLCD 0021    __end_ofi2_EscribeLCD_c 258E  
             ??i2_recoger 0021                  i2u200_40 178C                  i2u200_41 1788  
                i2u201_40 17B8                  i2u201_41 17B4                  i2u202_40 17E4  
                i2u210_40 11EC                  i2u202_41 17E0                  i2u210_41 11E8  
                i2u203_40 1810                  i2u211_40 1206                  i2u203_41 180C  
                i2u211_41 1202                  i2u132_40 242E                  i2u220_40 12E8  
                i2u212_40 1220                  i2u132_41 242A                  i2u220_41 12E4  
                i2u212_41 121C                  i2u133_40 2470                  i2u221_40 12FA  
                i2u213_40 123A                  i2u133_41 246C                  i2u221_41 12F6  
                i2u213_41 1236                  i2u222_40 1314                  i2u214_40 1254  
                i2u222_41 1310                  i2u214_41 1250                  i2u310_47 2316  
                i2u223_40 1326                  i2u215_40 126E                  i2u207_40 119C  
                i2u223_41 1322                  i2u215_41 126A                  i2u207_41 1198  
                i2u311_47 2326                  i2u160_40 0BE4                  i2u224_40 133E  
                i2u216_40 1288                  i2u208_40 11BA                  i2u160_41 0BE0  
                i2u224_41 133A                  i2u216_41 1284                  i2u208_41 11B6  
                i2u320_47 217A                  i2u312_47 0DDA                  i2u304_47 1D3C  
                i2u161_40 0C34                  i2u225_40 1352                  i2u217_40 12A2  
                i2u209_40 11D2                  i2u161_41 0C30                  i2u225_41 134E  
                i2u217_41 129E                  i2u209_41 11CE                  i2u321_47 2606  
                i2u313_47 0DEC                  i2u305_47 1D4C                  i2u162_40 0C96  
                i2u170_40 2306                  i2u226_40 1372                  i2u218_40 12BC  
                i2u162_41 0C92                  i2u170_41 2302                  i2u226_41 136E  
                i2u218_41 12B8                  i2u314_47 237C                  i2u306_47 1D8C  
                i2u163_40 0CE0                  i2u171_40 234E                  i2u227_40 1384  
                i2u219_40 12CE                  i2u163_41 0CDC                  i2u171_41 234A  
                i2u227_41 1380                  i2u219_41 12CA                  i2u315_47 238C  
                i2u307_47 1D9E                  i2u164_40 0D60                  i2u228_40 13D2  
                i2u164_41 0D5C                  i2u228_41 13CE                  i2u316_47 213C  
                i2u308_47 1E08                  i2u165_40 0DAA                  i2u165_41 0DA6  
                i2u317_47 2150                  i2u309_47 1E18                  i2u166_40 0E4A  
                i2u166_41 0E46                  i2u318_47 215A                  i2u159_40 2572  
                i2u167_40 0EA0                  i2u159_41 256E                  i2u167_41 0E9C  
                i2u319_47 216E                  i2u168_40 236C                  i2u168_41 2368  
                i2u193_40 24F2                  i2u169_40 23B4                  i2u193_41 24EE  
                i2u169_41 23B0                  i2u194_40 1686                  i2u194_41 1682  
                i2u195_40 16B0                  i2u195_41 16AC                  i2u196_40 16DC  
                i2u196_41 16D8                  i2u197_40 1708                  i2u197_41 1704  
                i2u198_40 1734                  i2u198_41 1730                  i2u199_40 1760  
                i2u199_41 175C                 _setorigin 1BDE                 _stepDelay 080F  
           ??i2_EnviaDato 0024      __end_ofi2_RetardoLCD 21C0               ??_EnviaDato 0036  
              setorigin@i 0034                  _BorraLCD 25B8                 copy_data0 21D4  
               copy_data1 21F4            ?i2_HabilitaLCD 0021           ?i2_EscribeLCD_c 0021  
                __Hrparam 0000                  __Lrparam 0000      __end_ofi2_Transmitir 2578  
              ?_setorigin 0021              i2EnviaDato@a 0025             ConfiguraLCD@a 0033  
               extender@i 0034         ??i2_DireccionaLCD 0026                  __ptext10 1E5A  
                __ptext11 25B8                  __ptext12 1A64                  __ptext21 1D1C  
                __ptext13 1FF0                  __ptext30 25CC                  __ptext22 1674  
                __ptext14 1F2A                  __ptext31 241A                  __ptext23 22F2  
                __ptext15 254C                  __ptext32 2130                  __ptext24 0B9C  
                __ptext16 23BE                  __ptext33 2602                  __ptext25 2358  
                __ptext17 20A0                  __ptext26 2562                  __ptext18 25F4  
                __ptext27 24B6                  __ptext19 24F4                  __ptext28 2578  
                __ptext29 258E       __end_ofi2_EnviaDato 2476                  _columna1 0805  
                _columna2 0803                  _columna3 0801                  _contador 0015  
         ??_DireccionaLCD 0038                  _guardarV 1424                  _interfaz 004C  
                _extender 228C                  isa$xinst 000000                  int$flags 004D  
           _EscribeLCD_n8 1A64           ??i2_HabilitaLCD 0021                  intlevel2 0000  
                recoger@i 0034             ??_HabilitaLCD 0033             ?_ConfiguraLCD 0021  
           i2RetardoLCD@a 0023             ??i2_setorigin 0021               ??_setorigin 0033  
             i2_EnviaDato 241A            ?_EscribeLCD_n8 0039                i2_BorraLCD 25CC  
          ??_ConfiguraLCD 0033             ?_EscribeLCD_c 0021         i2MensajeLCD_Var@a 0027  
       i2MensajeLCD_Var@p 0029              i2_RetardoLCD 2130       __end_of_HabilitaLCD 2602  
